 uix86

 Timestamp is 478abaa6 (Sun Jan 13 20:28:06 2008)

 Preferred load address is 40000000

 Start         Length     Name                   Class
 0001:00000000 000278a8H .text                   CODE
 0002:00000000 000000dcH .idata$5                DATA
 0002:000000e0 00006320H .rdata                  DATA
 0002:00006400 0000004aH .rdata$debug            DATA
 0002:00006450 00000008H .rdata$sxdata           DATA
 0002:00006458 00000004H .rtc$IAA                DATA
 0002:0000645c 00000004H .rtc$IZZ                DATA
 0002:00006460 00000004H .rtc$TAA                DATA
 0002:00006464 00000004H .rtc$TZZ                DATA
 0002:00006468 00000014H .idata$2                DATA
 0002:0000647c 00000014H .idata$3                DATA
 0002:00006490 000000dcH .idata$4                DATA
 0002:0000656c 000003d6H .idata$6                DATA
 0002:00006950 00000056H .edata                  DATA
 0003:00000000 00000004H .CRT$XCA                DATA
 0003:00000004 00000004H .CRT$XCAA               DATA
 0003:00000008 00000004H .CRT$XCZ                DATA
 0003:0000000c 00000004H .CRT$XIA                DATA
 0003:00000010 0000000cH .CRT$XIC                DATA
 0003:0000001c 00000004H .CRT$XIZ                DATA
 0003:00000020 00000004H .CRT$XPA                DATA
 0003:00000024 00000004H .CRT$XPX                DATA
 0003:00000028 00000004H .CRT$XPZ                DATA
 0003:0000002c 00000004H .CRT$XTA                DATA
 0003:00000030 00000004H .CRT$XTZ                DATA
 0003:00000040 00003c44H .data                   DATA
 0003:00003ca0 004b1dd8H .bss                    DATA

  Address         Publics by Value              Rva+Base     Lib:Object

 0000:00000000       __except_list              00000000     <absolute>
 0000:00000002       ___safe_se_handler_count   00000002     <absolute>
 0001:00000000       _BG_LegalizedForcePowers   40001000 f   bg_misc.obj
 0001:00000480       _vectoyaw                  40001480 f   bg_misc.obj
 0001:00000500       _BG_HasYsalamiri           40001500 f   bg_misc.obj
 0001:00000540       _BG_CanUseFPNow            40001540 f   bg_misc.obj
 0001:000005e0       _BG_FindItemForPowerup     400015e0 f   bg_misc.obj
 0001:00000620       _BG_FindItemForHoldable    40001620 f   bg_misc.obj
 0001:00000670       _BG_FindItemForWeapon      40001670 f   bg_misc.obj
 0001:000006c0       _BG_FindItem               400016c0 f   bg_misc.obj
 0001:00000700       _BG_ProperForceIndex       40001700 f   bg_misc.obj
 0001:00000720       _BG_CycleForce             40001720 f   bg_misc.obj
 0001:00000810       _BG_GetItemIndexByTag      40001810 f   bg_misc.obj
 0001:00000850       _BG_CycleInven             40001850 f   bg_misc.obj
 0001:000008d0       _BG_CanItemBeGrabbed       400018d0 f   bg_misc.obj
 0001:00000b80       _BG_EvaluateTrajectory     40001b80 f   bg_misc.obj
 0001:00000cc0       _BG_EvaluateTrajectoryDelta 40001cc0 f   bg_misc.obj
 0001:00000db0       _BG_AddPredictableEventToPlayerstate 40001db0 f   bg_misc.obj
 0001:00000de0       _BG_TouchJumpPad           40001de0 f   bg_misc.obj
 0001:00000e50       _BG_PlayerStateToEntityState 40001e50 f   bg_misc.obj
 0001:00001200       _BG_PlayerStateToEntityStateExtraPolate 40002200 f   bg_misc.obj
 0001:000015c0       _BG_Alloc                  400025c0 f   bg_misc.obj
 0001:00001610       _BG_AllocUnaligned         40002610 f   bg_misc.obj
 0001:00001650       _BG_TempAlloc              40002650 f   bg_misc.obj
 0001:00001690       _BG_TempFree               40002690 f   bg_misc.obj
 0001:000016d0       _BG_StringAlloc            400026d0 f   bg_misc.obj
 0001:00001740       _BG_OutOfMemory            40002740 f   bg_misc.obj
 0001:00001760       _BG_PlayerTouchesItem      40002760 f   bg_misc.obj
 0001:00001800       _Q_rand                    40002800 f   q_math.obj
 0001:00001810       _Q_random                  40002810 f   q_math.obj
 0001:00001840       _Q_crandom                 40002840 f   q_math.obj
 0001:00001870       _ClampChar                 40002870 f   q_math.obj
 0001:00001890       _ClampShort                40002890 f   q_math.obj
 0001:000018e0       _DirToByte                 400028e0 f   q_math.obj
 0001:00001aa0       _ByteToDir                 40002aa0 f   q_math.obj
 0001:00001b00       _ColorBytes3               40002b00 f   q_math.obj
 0001:00001b40       _ColorBytes4               40002b40 f   q_math.obj
 0001:00001bd0       _NormalizeColor            40002bd0 f   q_math.obj
 0001:00001c40       _vectoangles               40002c40 f   q_math.obj
 0001:00001d50       _AxisClear                 40002d50 f   q_math.obj
 0001:00001d80       _AxisCopy                  40002d80 f   q_math.obj
 0001:00001dc0       _ProjectPointOnPlane       40002dc0 f   q_math.obj
 0001:00001e40       _VectorRotate              40002e40 f   q_math.obj
 0001:00001ea0       _Q_rsqrt                   40002ea0 f   q_math.obj
 0001:00001ee0       _Q_fabs                    40002ee0 f   q_math.obj
 0001:00001f00       _LerpAngle                 40002f00 f   q_math.obj
 0001:00001f50       _AngleSubtract             40002f50 f   q_math.obj
 0001:00001fb0       _AnglesSubtract            40002fb0 f   q_math.obj
 0001:00001ff0       _AngleMod                  40002ff0 f   q_math.obj
 0001:00002020       _AngleNormalize360         40003020 f   q_math.obj
 0001:00002050       _AngleNormalize180         40003050 f   q_math.obj
 0001:00002090       _AngleDelta                40003090 f   q_math.obj
 0001:000020d0       _SetPlaneSignbits          400030d0 f   q_math.obj
 0001:00002120       _BoxOnPlaneSide            40003120 f   q_math.obj
 0001:00002360       _RadiusFromBounds          40003360 f   q_math.obj
 0001:000023e0       _ClearBounds               400033e0 f   q_math.obj
 0001:00002410       _AddPointToBounds          40003410 f   q_math.obj
 0001:00002490       _VectorNormalize           40003490 f   q_math.obj
 0001:000024f0       _VectorNormalize2          400034f0 f   q_math.obj
 0001:00002560       __VectorMA                 40003560 f   q_math.obj
 0001:000025a0       __DotProduct               400035a0 f   q_math.obj
 0001:000025c0       __VectorSubtract           400035c0 f   q_math.obj
 0001:000025f0       __VectorAdd                400035f0 f   q_math.obj
 0001:00002620       __VectorCopy               40003620 f   q_math.obj
 0001:00002640       __VectorScale              40003640 f   q_math.obj
 0001:00002670       _Vector4Scale              40003670 f   q_math.obj
 0001:000026a0       _Q_log2                    400036a0 f   q_math.obj
 0001:000026c0       _MatrixMultiply            400036c0 f   q_math.obj
 0001:000027b0       _AngleVectors              400037b0 f   q_math.obj
 0001:000028f0       _PerpendicularVector       400038f0 f   q_math.obj
 0001:000029e0       _Rand_Init                 400039e0 f   q_math.obj
 0001:000029f0       _flrand                    400039f0 f   q_math.obj
 0001:00002a30       _irand                     40003a30 f   q_math.obj
 0001:00002a60       _powf                      40003a60 f   q_math.obj
 0001:00002ab0       _PlaneFromPoints           40003ab0 f   q_math.obj
 0001:00002b60       _RotatePointAroundVector   40003b60 f   q_math.obj
 0001:00002d60       _RotateAroundDirection     40003d60 f   q_math.obj
 0001:00002df0       _AnglesToAxis              40003df0 f   q_math.obj
 0001:00002e40       _MakeNormalVectors         40003e40 f   q_math.obj
 0001:00002ed0       _GetStringForID            40003ed0 f   q_shared.obj
 0001:00002f10       _Com_Clamp                 40003f10 f   q_shared.obj
 0001:00002f40       _COM_SkipPath              40003f40 f   q_shared.obj
 0001:00002f70       _COM_StripExtension        40003f70 f   q_shared.obj
 0001:00002fa0       _ShortSwap                 40003fa0 f   q_shared.obj
 0001:00002fc0       _ShortNoSwap               40003fc0 f   q_shared.obj
 0001:00002fd0       _LongSwap                  40003fd0 f   q_shared.obj
 0001:00003000       _LongNoSwap                40004000 f   q_shared.obj
 0001:00003010       _Long64Swap                40004010 f   q_shared.obj
 0001:00003070       _Long64NoSwap              40004070 f   q_shared.obj
 0001:00003080       _FloatSwap                 40004080 f   q_shared.obj
 0001:000030c0       _FloatNoSwap               400040c0 f   q_shared.obj
 0001:000030d0       _COM_GetCurrentParseLine   400040d0 f   q_shared.obj
 0001:000030e0       _COM_ParseError            400040e0 f   q_shared.obj
 0001:00003120       _COM_ParseWarning          40004120 f   q_shared.obj
 0001:00003160       _SkipWhitespace            40004160 f   q_shared.obj
 0001:000031b0       _COM_Compress              400041b0 f   q_shared.obj
 0001:000032b0       _COM_ParseExt              400042b0 f   q_shared.obj
 0001:00003420       _COM_ParseString           40004420 f   q_shared.obj
 0001:00003450       _COM_ParseInt              40004450 f   q_shared.obj
 0001:00003490       _COM_ParseFloat            40004490 f   q_shared.obj
 0001:000034d0       _COM_ParseVec4             400044d0 f   q_shared.obj
 0001:00003520       _SkipBracedSection         40004520 f   q_shared.obj
 0001:00003560       _SkipRestOfLine            40004560 f   q_shared.obj
 0001:00003590       _Q_isprint                 40004590 f   q_shared.obj
 0001:000035b0       _Q_islower                 400045b0 f   q_shared.obj
 0001:000035d0       _Q_isupper                 400045d0 f   q_shared.obj
 0001:000035f0       _Q_isalpha                 400045f0 f   q_shared.obj
 0001:00003620       _Q_strrchr                 40004620 f   q_shared.obj
 0001:00003650       _Q_strncpyz                40004650 f   q_shared.obj
 0001:000036b0       _Q_stricmpn                400046b0 f   q_shared.obj
 0001:00003730       _Q_strncmp                 40004730 f   q_shared.obj
 0001:00003770       _Q_stricmp                 40004770 f   q_shared.obj
 0001:000037a0       _Q_strlwr                  400047a0 f   q_shared.obj
 0001:000037d0       _Q_strupr                  400047d0 f   q_shared.obj
 0001:00003800       _Q_strcat                  40004800 f   q_shared.obj
 0001:00003850       _Q_PrintStrlen             40004850 f   q_shared.obj
 0001:00003890       _Q_CleanStr                40004890 f   q_shared.obj
 0001:000038e0       _Com_sprintf               400048e0 f   q_shared.obj
 0001:00003960       _va                        40004960 f   q_shared.obj
 0001:000039a0       _Info_ValueForKey          400049a0 f   q_shared.obj
 0001:00003aa0       _Info_NextPair             40004aa0 f   q_shared.obj
 0001:00003b00       _Info_RemoveKey            40004b00 f   q_shared.obj
 0001:00003c00       _Info_RemoveKey_Big        40004c00 f   q_shared.obj
 0001:00003d10       _Info_Validate             40004d10 f   q_shared.obj
 0001:00003d40       _Info_SetValueForKey       40004d40 f   q_shared.obj
 0001:00003f10       _Info_SetValueForKey_Big   40004f10 f   q_shared.obj
 0001:000040e0       _Q_irand                   400050e0 f   q_shared.obj
 0001:00004100       _GetIDForString            40005100 f   q_shared.obj
 0001:00004150       _Q_stristr                 40005150 f   q_shared.obj
 0001:000041c0       _COM_DefaultExtension      400051c0 f   q_shared.obj
 0001:00004240       _COM_BeginParseSession     40005240 f   q_shared.obj
 0001:00004270       _COM_Parse                 40005270 f   q_shared.obj
 0001:00004280       _COM_MatchToken            40005280 f   q_shared.obj
 0001:000042f0       _Parse1DMatrix             400052f0 f   q_shared.obj
 0001:00004370       _Parse2DMatrix             40005370 f   q_shared.obj
 0001:00004400       _Parse3DMatrix             40005400 f   q_shared.obj
 0001:00004490       _Com_Error                 40005490 f   ui_atoms.obj
 0001:000044d0       _Com_Printf                400054d0 f   ui_atoms.obj
 0001:00004510       _UI_ClampCvar              40005510 f   ui_atoms.obj
 0001:00004540       _UI_StartDemoLoop          40005540 f   ui_atoms.obj
 0001:00004550       _UI_Argv                   40005550 f   ui_atoms.obj
 0001:00004570       _UI_Cvar_VariableString    40005570 f   ui_atoms.obj
 0001:00004590       _UI_SetBestScores          40005590 f   ui_atoms.obj
 0001:000048d0       _UI_LoadBestScores         400058d0 f   ui_atoms.obj
 0001:000049e0       _UI_ClearScores            400059e0 f   ui_atoms.obj
 0001:00005010       _UI_ConsoleCommand         40006010 f   ui_atoms.obj
 0001:00005210       _UI_Shutdown               40006210 f   ui_atoms.obj
 0001:00005220       _UI_DrawNamedPic           40006220 f   ui_atoms.obj
 0001:00005260       _UI_DrawHandlePic          40006260 f   ui_atoms.obj
 0001:00005300       _UI_FillRect               40006300 f   ui_atoms.obj
 0001:00005340       _UI_DrawSides              40006340 f   ui_atoms.obj
 0001:000053a0       _UI_DrawTopBottom          400063a0 f   ui_atoms.obj
 0001:00005400       _UI_DrawRect               40006400 f   ui_atoms.obj
 0001:00005440       _UI_SetColor               40006440 f   ui_atoms.obj
 0001:00005450       _UI_UpdateScreen           40006450 f   ui_atoms.obj
 0001:00005460       _UI_DrawTextBox            40006460 f   ui_atoms.obj
 0001:00005550       _UI_CursorInRect           40006550 f   ui_atoms.obj
 0001:00005590       _UI_InitForceShaders       40006590 f   ui_force.obj
 0001:00005700       _UI_DrawForceStars         40006700 f   ui_force.obj
 0001:00005820       _UI_UpdateClientForcePowers 40006820 f   ui_force.obj
 0001:00005910       _UI_TranslateFCFIndex      40006910 f   ui_force.obj
 0001:00005930       _UI_SaveForceTemplate      40006930 f   ui_force.obj
 0001:00005b20       _UpdateForceUsed           40006b20 f   ui_force.obj
 0001:00005e00       _UI_ReadLegalForce         40006e00 f   ui_force.obj
 0001:000061a0       _UI_UpdateForcePowers      400071a0 f   ui_force.obj
 0001:000063c0       _UI_SkinColor_HandleKey    400073c0 f   ui_force.obj
 0001:00006430       _UI_ForceSide_HandleKey    40007430 f   ui_force.obj
 0001:00006540       _UI_JediNonJedi_HandleKey  40007540 f   ui_force.obj
 0001:000066b0       _UI_ForceMaxRank_HandleKey 400076b0 f   ui_force.obj
 0001:00006730       _UI_ForcePowerRank_HandleKey 40007730 f   ui_force.obj
 0001:00006850       _UI_ForceConfigHandle      40007850 f   ui_force.obj
 0001:00006db0       _UI_ParseInfos             40007db0 f   ui_gameinfo.obj
 0001:00007050       _UI_LoadArenas             40008050 f   ui_gameinfo.obj
 0001:000074e0       _UI_LoadBots               400084e0 f   ui_gameinfo.obj
 0001:00007600       _UI_GetBotInfoByNumber     40008600 f   ui_gameinfo.obj
 0001:00007630       _UI_GetBotInfoByName       40008630 f   ui_gameinfo.obj
 0001:00007680       _UI_GetNumBots             40008680 f   ui_gameinfo.obj
 0001:00007690       _UI_GetBotNameByNumber     40008690 f   ui_gameinfo.obj
 0001:000076e0       _UI_TeamName               400086e0 f   ui_main.obj
 0001:00007710       _AssetCache                40008710 f   ui_main.obj
 0001:00007850       __UI_DrawSides             40008850 f   ui_main.obj
 0001:000078c0       __UI_DrawTopBottom         400088c0 f   ui_main.obj
 0001:00007930       __UI_DrawRect              40008930 f   ui_main.obj
 0001:00007980       _MenuFontToHandle          40008980 f   ui_main.obj
 0001:000079a0       _Text_Width                400089a0 f   ui_main.obj
 0001:000079f0       _Text_Height               400089f0 f   ui_main.obj
 0001:00007a40       _Text_Paint                40008a40 f   ui_main.obj
 0001:00007ae0       _Text_PaintWithCursor      40008ae0 f   ui_main.obj
 0001:00007dd0       _UI_DrawCenteredPic        40008dd0 f   ui_main.obj
 0001:00007e30       _UI_GetStripEdString       40008e30 f   ui_main.obj
 0001:00007e60       __UI_Shutdown              40008e60 f   ui_main.obj
 0001:00007e70       _GetMenuBuffer             40008e70 f   ui_main.obj
 0001:00007f10       _Asset_Parse               40008f10 f   ui_main.obj
 0001:000083e0       _UI_Report                 400093e0 f   ui_main.obj
 0001:000083f0       _UI_ParseMenu              400093f0 f   ui_main.obj
 0001:000084c0       _Load_Menu                 400094c0 f   ui_main.obj
 0001:00008540       _UI_LoadMenus              40009540 f   ui_main.obj
 0001:00008fc0       _UI_HasSetSaberOnly        40009fc0 f   ui_main.obj
 0001:00009080       _UI_TrueJediEnabled        4000a080 f   ui_main.obj
 0001:000096d0       _UpdateForceStatus         4000a6d0 f   ui_main.obj
 0001:0000b6c0       _UI_ServersSort            4000c6c0 f   ui_main.obj
 0001:0000bf70       _UI_UpdateVideoSetup       4000cf70 f   ui_main.obj
 0001:0000c0d0       _UI_GetVideoSetup          4000d0d0 f   ui_main.obj
 0001:0000c440       _UI_hasSkinForBase         4000d440 f   ui_main.obj
 0001:0000dc20       _UI_FeederSelection        4000ec20 f   ui_main.obj
 0001:0000e710       _UI_LoadForceConfig_List   4000f710 f   ui_main.obj
 0001:0000eb20       __UI_KeyEvent              4000fb20 f   ui_main.obj
 0001:0000eba0       __UI_MouseEvent            4000fba0 f   ui_main.obj
 0001:0000ec20       _UI_LoadNonIngame          4000fc20 f   ui_main.obj
 0001:0000ec60       __UI_SetActiveMenu         4000fc60 f   ui_main.obj
 0001:0000ee70       __UI_IsFullscreen          4000fe70 f   ui_main.obj
 0001:0000f040       _Text_PaintCenter          40010040 f   ui_main.obj
 0001:0000f0e0       _UI_RegisterCvars          400100e0 f   ui_main.obj
 0001:0000f120       _UI_UpdateCvars            40010120 f   ui_main.obj
 0001:0000f320       _UI_ShowPostGame           40010320 f   ui_main.obj
 0001:0000f380       _UI_Load                   40010380 f   ui_main.obj
 0001:00011b30       _UI_DrawConnectScreen      40012b30 f   ui_main.obj
 0001:00012100       __UI_Refresh               40013100 f   ui_main.obj
 0001:00013f10       __UI_Init                  40014f10 f   ui_main.obj
 0001:00014380       _vmMain                    40015380 f   ui_main.obj
 0001:00014460       _UI_Alloc                  40015460 f   ui_shared.obj
 0001:000144b0       _UI_InitMemory             400154b0 f   ui_shared.obj
 0001:000144c0       _UI_OutOfMemory            400154c0 f   ui_shared.obj
 0001:00014510       _String_Alloc              40015510 f   ui_shared.obj
 0001:00014620       _String_Report             40015620 f   ui_shared.obj
 0001:000146a0       _PC_SourceWarning          400156a0 f   ui_shared.obj
 0001:00014710       _PC_SourceError            40015710 f   ui_shared.obj
 0001:00014780       _LerpColor                 40015780 f   ui_shared.obj
 0001:00014880       _Float_Parse               40015880 f   ui_shared.obj
 0001:000148b0       _PC_Float_Parse            400158b0 f   ui_shared.obj
 0001:00014950       _Color_Parse               40015950 f   ui_shared.obj
 0001:000149a0       _PC_Color_Parse            400159a0 f   ui_shared.obj
 0001:000149f0       _Int_Parse                 400159f0 f   ui_shared.obj
 0001:00014a20       _PC_Int_Parse              40015a20 f   ui_shared.obj
 0001:00014ab0       _Rect_Parse                40015ab0 f   ui_shared.obj
 0001:00014b30       _PC_Rect_Parse             40015b30 f   ui_shared.obj
 0001:00014b90       _String_Parse              40015b90 f   ui_shared.obj
 0001:00014bc0       _PC_String_Parse           40015bc0 f   ui_shared.obj
 0001:00014cb0       _PC_Script_Parse           40015cb0 f   ui_shared.obj
 0001:00014dd0       _Init_Display              40015dd0 f   ui_shared.obj
 0001:00014de0       _GradientBar_Paint         40015de0 f   ui_shared.obj
 0001:00014e20       _Window_Init               40015e20 f   ui_shared.obj
 0001:00014e50       _Fade                      40015e50 f   ui_shared.obj
 0001:00014ed0       _Window_Paint              40015ed0 f   ui_shared.obj
 0001:000152d0       _IsVisible                 400162d0 f   ui_shared.obj
 0001:000152f0       _Rect_ContainsPoint        400162f0 f   ui_shared.obj
 0001:00015340       _Menu_ItemsMatchingGroup   40016340 f   ui_shared.obj
 0001:000153b0       _Menu_GetMatchingItemByNumber 400163b0 f   ui_shared.obj
 0001:00015430       _Script_SetColor           40016430 f   ui_shared.obj
 0001:00015500       _Script_SetAsset           40016500 f   ui_shared.obj
 0001:00015530       _Script_SetBackground      40016530 f   ui_shared.obj
 0001:00015570       _Menu_FindItemByName       40016570 f   ui_shared.obj
 0001:000155d0       _Script_SetTeamColor       400165d0 f   ui_shared.obj
 0001:00015620       _Script_SetItemColor       40016620 f   ui_shared.obj
 0001:00015760       _Script_SetItemRect        40016760 f   ui_shared.obj
 0001:00015800       _Menu_ShowItemByName       40016800 f   ui_shared.obj
 0001:00015880       _Menu_FadeItemByName       40016880 f   ui_shared.obj
 0001:000158e0       _Menus_FindByName          400168e0 f   ui_shared.obj
 0001:00015930       _Script_Show               40016930 f   ui_shared.obj
 0001:00015970       _Script_Hide               40016970 f   ui_shared.obj
 0001:000159b0       _Script_FadeIn             400169b0 f   ui_shared.obj
 0001:000159f0       _Script_FadeOut            400169f0 f   ui_shared.obj
 0001:00015a30       _Script_Defer              40016a30 f   ui_shared.obj
 0001:00015a70       _Script_SetPlayerModel     40016a70 f   ui_shared.obj
 0001:00015ab0       _Script_SetPlayerHead      40016ab0 f   ui_shared.obj
 0001:00015af0       _Script_SetCvar            40016af0 f   ui_shared.obj
 0001:00015b50       _Script_SetCvarToCvar      40016b50 f   ui_shared.obj
 0001:00015bd0       _Script_Exec               40016bd0 f   ui_shared.obj
 0001:00015c20       _Script_Play               40016c20 f   ui_shared.obj
 0001:00015c70       _Script_playLooped         40016c70 f   ui_shared.obj
 0001:00015cc0       _Item_RunScript            40016cc0 f   ui_shared.obj
 0001:00015db0       _Item_EnableShowViaCvar    40016db0 f   ui_shared.obj
 0001:00015ee0       _Item_TextScroll_MaxScroll 40016ee0 f   ui_shared.obj
 0001:00015f10       _Item_TextScroll_ThumbPosition 40016f10 f   ui_shared.obj
 0001:00015f90       _Item_TextScroll_ThumbDrawPosition 40016f90 f   ui_shared.obj
 0001:00016020       _Item_TextScroll_OverLB    40017020 f   ui_shared.obj
 0001:00016180       _Item_TextScroll_MouseEnter 40017180 f   ui_shared.obj
 0001:000161b0       _Item_TextScroll_HandleKey 400171b0 f   ui_shared.obj
 0001:00016310       _Item_ListBox_MaxScroll    40017310 f   ui_shared.obj
 0001:00016370       _Item_ListBox_ThumbPosition 40017370 f   ui_shared.obj
 0001:00016420       _Item_ListBox_ThumbDrawPosition 40017420 f   ui_shared.obj
 0001:00016520       _Item_Slider_ThumbPosition 40017520 f   ui_shared.obj
 0001:000165c0       _Item_Slider_OverSlider    400175c0 f   ui_shared.obj
 0001:00016640       _Item_ListBox_OverLB       40017640 f   ui_shared.obj
 0001:00016870       _Item_ListBox_MouseEnter   40017870 f   ui_shared.obj
 0001:000169a0       _Item_MouseEnter           400179a0 f   ui_shared.obj
 0001:00016b00       _Item_MouseLeave           40017b00 f   ui_shared.obj
 0001:00016b50       _Menu_HitTest              40017b50 f   ui_shared.obj
 0001:00016bd0       _Item_SetMouseOver         40017bd0 f   ui_shared.obj
 0001:00016c00       _Item_OwnerDraw_HandleKey  40017c00 f   ui_shared.obj
 0001:00016c40       _Item_ListBox_HandleKey    40017c40 f   ui_shared.obj
 0001:00017060       _Item_YesNo_HandleKey      40018060 f   ui_shared.obj
 0001:00017160       _Item_Multi_CountSettings  40018160 f   ui_shared.obj
 0001:00017180       _Item_Multi_FindCvarByValue 40018180 f   ui_shared.obj
 0001:00017260       _Item_Multi_Setting        40018260 f   ui_shared.obj
 0001:00017340       _Item_Multi_HandleKey      40018340 f   ui_shared.obj
 0001:000178e0       _Item_StartCapture         400188e0 f   ui_shared.obj
 0001:00017b60       _Item_StopCapture          40018b60 f   ui_shared.obj
 0001:00017b70       _Item_Slider_HandleKey     40018b70 f   ui_shared.obj
 0001:00017cd0       _Item_Action               40018cd0 f   ui_shared.obj
 0001:00017df0       _Menus_Activate            40018df0 f   ui_shared.obj
 0001:00017e90       _Display_VisibleMenuCount  40018e90 f   ui_shared.obj
 0001:00017f40       _ToWindowCoords            40018f40 f   ui_shared.obj
 0001:00017f70       _Rect_ToWindowCoords       40018f70 f   ui_shared.obj
 0001:00017fa0       _Item_SetTextExtents       40018fa0 f   ui_shared.obj
 0001:000181a0       _Item_TextColor            400191a0 f   ui_shared.obj
 0001:000183d0       _Item_Text_AutoWrapped_Paint 400193d0 f   ui_shared.obj
 0001:000185f0       _Item_Text_Wrapped_Paint   400195f0 f   ui_shared.obj
 0001:00018750       _Item_Text_Paint           40019750 f   ui_shared.obj
 0001:000188a0       _Item_TextField_Paint      400198a0 f   ui_shared.obj
 0001:00018ab0       _Item_YesNo_Paint          40019ab0 f   ui_shared.obj
 0001:00018ca0       _Item_Multi_Paint          40019ca0 f   ui_shared.obj
 0001:00018ea0       _Controls_GetConfig        40019ea0 f   ui_shared.obj
 0001:00018ee0       _Controls_SetConfig        40019ee0 f   ui_shared.obj
 0001:00018f30       _BindingIDFromName         40019f30 f   ui_shared.obj
 0001:00018f70       _BindingFromName           40019f70 f   ui_shared.obj
 0001:00019090       _Item_Slider_Paint         4001a090 f   ui_shared.obj
 0001:00019220       _Item_Bind_Paint           4001a220 f   ui_shared.obj
 0001:000194e0       _Display_KeyBindPending    4001a4e0 f   ui_shared.obj
 0001:000194f0       _Item_Bind_HandleKey       4001a4f0 f   ui_shared.obj
 0001:00019760       _Item_Model_Paint          4001a760 f   ui_shared.obj
 0001:00019960       _Item_Image_Paint          4001a960 f   ui_shared.obj
 0001:000199c0       _Item_TextScroll_Paint     4001a9c0 f   ui_shared.obj
 0001:00019be0       _Item_ListBox_Paint        4001abe0 f   ui_shared.obj
 0001:0001a450       _Item_OwnerDraw_Paint      4001b450 f   ui_shared.obj
 0001:0001a870       _Menu_Init                 4001b870 f   ui_shared.obj
 0001:0001a8f0       _Menu_GetFocusedItem       4001b8f0 f   ui_shared.obj
 0001:0001a930       _Menu_GetFocused           4001b930 f   ui_shared.obj
 0001:0001a970       _Menu_ScrollFeeder         4001b970 f   ui_shared.obj
 0001:0001a9e0       _Menu_SetFeederSelection   4001b9e0 f   ui_shared.obj
 0001:0001aaa0       _Menus_AnyFullScreenVisible 4001baa0 f   ui_shared.obj
 0001:0001aad0       _Item_Init                 4001bad0 f   ui_shared.obj
 0001:0001ab10       _Item_ValidateTypeData     4001bb10 f   ui_shared.obj
 0001:0001ac00       _KeywordHash_Key           4001bc00 f   ui_shared.obj
 0001:0001ac50       _KeywordHash_Add           4001bc50 f   ui_shared.obj
 0001:0001ac70       _KeywordHash_Find          4001bc70 f   ui_shared.obj
 0001:0001acc0       _ItemParse_name            4001bcc0 f   ui_shared.obj
 0001:0001ace0       _ItemParse_focusSound      4001bce0 f   ui_shared.obj
 0001:0001ad20       _ItemParse_text            4001bd20 f   ui_shared.obj
 0001:0001ad40       _ItemParse_descText        4001bd40 f   ui_shared.obj
 0001:0001ad60       _ItemParse_text2           4001bd60 f   ui_shared.obj
 0001:0001ad80       _ItemParse_text2alignx     4001bd80 f   ui_shared.obj
 0001:0001ada0       _ItemParse_text2aligny     4001bda0 f   ui_shared.obj
 0001:0001adc0       _ItemParse_group           4001bdc0 f   ui_shared.obj
 0001:0001ade0       _ItemParse_asset_model     4001bde0 f   ui_shared.obj
 0001:0001ae40       _ItemParse_asset_shader    4001be40 f   ui_shared.obj
 0001:0001ae80       _ItemParse_model_origin    4001be80 f   ui_shared.obj
 0001:0001aee0       _ItemParse_model_fovx      4001bee0 f   ui_shared.obj
 0001:0001af10       _ItemParse_model_fovy      4001bf10 f   ui_shared.obj
 0001:0001af40       _ItemParse_model_rotation  4001bf40 f   ui_shared.obj
 0001:0001af70       _ItemParse_model_angle     4001bf70 f   ui_shared.obj
 0001:0001afa0       _ItemParse_rect            4001bfa0 f   ui_shared.obj
 0001:0001afc0       _ItemParse_flag            4001bfc0 f   ui_shared.obj
 0001:0001b050       _ItemParse_style           4001c050 f   ui_shared.obj
 0001:0001b080       _ItemParse_decoration      4001c080 f   ui_shared.obj
 0001:0001b090       _ItemParse_notselectable   4001c090 f   ui_shared.obj
 0001:0001b0d0       _ItemParse_wrapped         4001c0d0 f   ui_shared.obj
 0001:0001b0f0       _ItemParse_autowrapped     4001c0f0 f   ui_shared.obj
 0001:0001b110       _ItemParse_horizontalscroll 4001c110 f   ui_shared.obj
 0001:0001b130       _ItemParse_type            4001c130 f   ui_shared.obj
 0001:0001b160       _ItemParse_elementwidth    4001c160 f   ui_shared.obj
 0001:0001b190       _ItemParse_elementheight   4001c190 f   ui_shared.obj
 0001:0001b1c0       _ItemParse_feeder          4001c1c0 f   ui_shared.obj
 0001:0001b1e0       _ItemParse_elementtype     4001c1e0 f   ui_shared.obj
 0001:0001b220       _ItemParse_columns         4001c220 f   ui_shared.obj
 0001:0001b300       _ItemParse_border          4001c300 f   ui_shared.obj
 0001:0001b320       _ItemParse_bordersize      4001c320 f   ui_shared.obj
 0001:0001b340       _ItemParse_visible         4001c340 f   ui_shared.obj
 0001:0001b370       _ItemParse_ownerdraw       4001c370 f   ui_shared.obj
 0001:0001b3a0       _ItemParse_align           4001c3a0 f   ui_shared.obj
 0001:0001b3c0       _ItemParse_textalign       4001c3c0 f   ui_shared.obj
 0001:0001b400       _ItemParse_textalignx      4001c400 f   ui_shared.obj
 0001:0001b420       _ItemParse_textaligny      4001c420 f   ui_shared.obj
 0001:0001b440       _ItemParse_textscale       4001c440 f   ui_shared.obj
 0001:0001b460       _ItemParse_textstyle       4001c460 f   ui_shared.obj
 0001:0001b480       _ItemParse_backcolor       4001c480 f   ui_shared.obj
 0001:0001b4d0       _ItemParse_forecolor       4001c4d0 f   ui_shared.obj
 0001:0001b530       _ItemParse_bordercolor     4001c530 f   ui_shared.obj
 0001:0001b580       _ItemParse_outlinecolor    4001c580 f   ui_shared.obj
 0001:0001b5a0       _ItemParse_background      4001c5a0 f   ui_shared.obj
 0001:0001b5e0       _ItemParse_cinematic       4001c5e0 f   ui_shared.obj
 0001:0001b600       _ItemParse_doubleClick     4001c600 f   ui_shared.obj
 0001:0001b640       _ItemParse_onFocus         4001c640 f   ui_shared.obj
 0001:0001b660       _ItemParse_leaveFocus      4001c660 f   ui_shared.obj
 0001:0001b680       _ItemParse_mouseEnter      4001c680 f   ui_shared.obj
 0001:0001b6a0       _ItemParse_mouseExit       4001c6a0 f   ui_shared.obj
 0001:0001b6c0       _ItemParse_mouseEnterText  4001c6c0 f   ui_shared.obj
 0001:0001b6e0       _ItemParse_mouseExitText   4001c6e0 f   ui_shared.obj
 0001:0001b700       _ItemParse_action          4001c700 f   ui_shared.obj
 0001:0001b720       _ItemParse_special         4001c720 f   ui_shared.obj
 0001:0001b740       _ItemParse_cvarTest        4001c740 f   ui_shared.obj
 0001:0001b760       _ItemParse_cvar            4001c760 f   ui_shared.obj
 0001:0001b7e0       _ItemParse_font            4001c7e0 f   ui_shared.obj
 0001:0001b810       _ItemParse_maxChars        4001c810 f   ui_shared.obj
 0001:0001b860       _ItemParse_maxPaintChars   4001c860 f   ui_shared.obj
 0001:0001b8b0       _ItemParse_maxLineChars    4001c8b0 f   ui_shared.obj
 0001:0001b900       _ItemParse_lineHeight      4001c900 f   ui_shared.obj
 0001:0001b950       _ItemParse_cvarFloat       4001c950 f   ui_shared.obj
 0001:0001b9c0       _ItemParse_cvarStrList     4001c9c0 f   ui_shared.obj
 0001:0001bad0       _ItemParse_cvarFloatList   4001cad0 f   ui_shared.obj
 0001:0001bbe0       _ItemParse_addColorRange   4001cbe0 f   ui_shared.obj
 0001:0001bc80       _ItemParse_ownerdrawFlag   4001cc80 f   ui_shared.obj
 0001:0001bcb0       _ItemParse_enableCvar      4001ccb0 f   ui_shared.obj
 0001:0001bce0       _ItemParse_disableCvar     4001cce0 f   ui_shared.obj
 0001:0001bd20       _ItemParse_showCvar        4001cd20 f   ui_shared.obj
 0001:0001bd60       _ItemParse_hideCvar        4001cd60 f   ui_shared.obj
 0001:0001bda0       _ItemParse_Appearance_slot 4001cda0 f   ui_shared.obj
 0001:0001bdc0       _Item_SetupKeywordHash     4001cdc0 f   ui_shared.obj
 0001:0001be10       _Item_Parse                4001ce10 f   ui_shared.obj
 0001:0001c160       _Item_InitControls         4001d160 f   ui_shared.obj
 0001:0001c190       _MenuParse_font            4001d190 f   ui_shared.obj
 0001:0001c1f0       _MenuParse_name            4001d1f0 f   ui_shared.obj
 0001:0001c230       _MenuParse_fullscreen      4001d230 f   ui_shared.obj
 0001:0001c250       _MenuParse_rect            4001d250 f   ui_shared.obj
 0001:0001c270       _MenuParse_style           4001d270 f   ui_shared.obj
 0001:0001c2a0       _MenuParse_visible         4001d2a0 f   ui_shared.obj
 0001:0001c2d0       _MenuParse_onOpen          4001d2d0 f   ui_shared.obj
 0001:0001c2f0       _MenuParse_onClose         4001d2f0 f   ui_shared.obj
 0001:0001c310       _MenuParse_onESC           4001d310 f   ui_shared.obj
 0001:0001c330       _MenuParse_border          4001d330 f   ui_shared.obj
 0001:0001c350       _MenuParse_borderSize      4001d350 f   ui_shared.obj
 0001:0001c370       _MenuParse_backcolor       4001d370 f   ui_shared.obj
 0001:0001c3c0       _MenuParse_descAlignment   4001d3c0 f   ui_shared.obj
 0001:0001c400       _MenuParse_descX           4001d400 f   ui_shared.obj
 0001:0001c420       _MenuParse_descY           4001d420 f   ui_shared.obj
 0001:0001c440       _MenuParse_descScale       4001d440 f   ui_shared.obj
 0001:0001c460       _MenuParse_descColor       4001d460 f   ui_shared.obj
 0001:0001c4b0       _MenuParse_forecolor       4001d4b0 f   ui_shared.obj
 0001:0001c500       _MenuParse_bordercolor     4001d500 f   ui_shared.obj
 0001:0001c550       _MenuParse_focuscolor      4001d550 f   ui_shared.obj
 0001:0001c5a0       _MenuParse_disablecolor    4001d5a0 f   ui_shared.obj
 0001:0001c5f0       _MenuParse_outlinecolor    4001d5f0 f   ui_shared.obj
 0001:0001c610       _MenuParse_background      4001d610 f   ui_shared.obj
 0001:0001c650       _MenuParse_cinematic       4001d650 f   ui_shared.obj
 0001:0001c670       _MenuParse_ownerdrawFlag   4001d670 f   ui_shared.obj
 0001:0001c6a0       _MenuParse_ownerdraw       4001d6a0 f   ui_shared.obj
 0001:0001c6c0       _MenuParse_popup           4001d6c0 f   ui_shared.obj
 0001:0001c6e0       _MenuParse_outOfBounds     4001d6e0 f   ui_shared.obj
 0001:0001c700       _MenuParse_soundLoop       4001d700 f   ui_shared.obj
 0001:0001c720       _MenuParse_fadeClamp       4001d720 f   ui_shared.obj
 0001:0001c740       _MenuParse_fadeAmount      4001d740 f   ui_shared.obj
 0001:0001c760       _MenuParse_fadeCycle       4001d760 f   ui_shared.obj
 0001:0001c780       _MenuParse_itemDef         4001d780 f   ui_shared.obj
 0001:0001c870       _MenuParse_appearanceIncrement 4001d870 f   ui_shared.obj
 0001:0001c890       _Menu_SetupKeywordHash     4001d890 f   ui_shared.obj
 0001:0001c8e0       _Menu_Parse                4001d8e0 f   ui_shared.obj
 0001:0001c9f0       _Menu_Count                4001d9f0 f   ui_shared.obj
 0001:0001ca00       _Menu_Reset                4001da00 f   ui_shared.obj
 0001:0001ca10       _Display_GetContext        4001da10 f   ui_shared.obj
 0001:0001ca20       _Display_CaptureItem       4001da20 f   ui_shared.obj
 0001:0001cab0       _Display_CursorType        4001dab0 f   ui_shared.obj
 0001:0001cc80       _Display_CacheAll          4001dc80 f   ui_shared.obj
 0001:0001cd60       _String_Init               4001dd60 f   ui_shared.obj
 0001:0001cdc0       _Item_SetScreenCoords      4001ddc0 f   ui_shared.obj
 0001:0001ce30       _Item_UpdatePosition       4001de30 f   ui_shared.obj
 0001:0001ce80       _Menu_UpdatePosition       4001de80 f   ui_shared.obj
 0001:0001cf00       _Menu_PostParse            4001df00 f   ui_shared.obj
 0001:0001cf40       _Menu_ClearFocus           4001df40 f   ui_shared.obj
 0001:0001cfb0       _Menus_ShowByName          4001dfb0 f   ui_shared.obj
 0001:0001d010       _Menus_CloseByName         4001e010 f   ui_shared.obj
 0001:0001d0a0       _Menus_CloseAll            4001e0a0 f   ui_shared.obj
 0001:0001d130       _Script_Close              4001e130 f   ui_shared.obj
 0001:0001d180       _Menu_TransitionItemByName 4001e180 f   ui_shared.obj
 0001:0001d310       _Script_RunDeferred        4001e310 f   ui_shared.obj
 0001:0001d340       _Script_Transition         4001e340 f   ui_shared.obj
 0001:0001d430       _Menu_OrbitItemByName      4001e430 f   ui_shared.obj
 0001:0001d500       _Script_Orbit              4001e500 f   ui_shared.obj
 0001:0001d5e0       _Script_SetFocus           4001e5e0 f   ui_shared.obj
 0001:0001d680       _Item_SetFocus             4001e680 f   ui_shared.obj
 0001:0001d810       _Item_HandleKey            4001e810 f   ui_shared.obj
 0001:0001d960       _Item_Paint                4001e960 f   ui_shared.obj
 0001:0001df00       _Menu_HandleMouseMove      4001ef00 f   ui_shared.obj
 0001:0001e090       _Menu_Paint                4001f090 f   ui_shared.obj
 0001:0001e200       _Menu_New                  4001f200 f   ui_shared.obj
 0001:0001e250       _Menu_PaintAll             4001f250 f   ui_shared.obj
 0001:0001e4c0       _Display_MouseMove         4001f4c0 f   ui_shared.obj
 0001:0001e580       _Menu_SetPrevCursorItem    4001f580 f   ui_shared.obj
 0001:0001e660       _Menu_SetNextCursorItem    4001f660 f   ui_shared.obj
 0001:0001e750       _Menus_HandleOOBClick      4001f750 f   ui_shared.obj
 0001:0001e8d0       _Menus_ActivateByName      4001f8d0 f   ui_shared.obj
 0001:0001e990       _Menus_OpenByName          4001f990 f   ui_shared.obj
 0001:0001e9a0       _Script_Open               4001f9a0 f   ui_shared.obj
 0001:0001e9d0       _Item_TextField_HandleKey  4001f9d0 f   ui_shared.obj
 0001:0001ee00       _Menu_HandleKey            4001fe00 f   ui_shared.obj
 0001:0001f2c0       _Display_HandleKey         400202c0 f   ui_shared.obj
 0001:0001f300       _dllEntry                  40020300 f   ui_syscalls.obj
 0001:0001f310       _PASSFLOAT                 40020310 f   ui_syscalls.obj
 0001:0001f320       _trap_Print                40020320 f   ui_syscalls.obj
 0001:0001f340       _trap_Error                40020340 f   ui_syscalls.obj
 0001:0001f360       _trap_Milliseconds         40020360 f   ui_syscalls.obj
 0001:0001f370       _trap_Cvar_Register        40020370 f   ui_syscalls.obj
 0001:0001f390       _trap_Cvar_Update          40020390 f   ui_syscalls.obj
 0001:0001f3b0       _trap_Cvar_Set             400203b0 f   ui_syscalls.obj
 0001:0001f3d0       _trap_Cvar_VariableValue   400203d0 f   ui_syscalls.obj
 0001:0001f3f0       _trap_Cvar_VariableStringBuffer 400203f0 f   ui_syscalls.obj
 0001:0001f410       _trap_Cvar_SetValue        40020410 f   ui_syscalls.obj
 0001:0001f430       _trap_Cvar_Reset           40020430 f   ui_syscalls.obj
 0001:0001f450       _trap_Cvar_Create          40020450 f   ui_syscalls.obj
 0001:0001f470       _trap_Cvar_InfoStringBuffer 40020470 f   ui_syscalls.obj
 0001:0001f490       _trap_Argc                 40020490 f   ui_syscalls.obj
 0001:0001f4a0       _trap_Argv                 400204a0 f   ui_syscalls.obj
 0001:0001f4c0       _trap_Cmd_ExecuteText      400204c0 f   ui_syscalls.obj
 0001:0001f4e0       _trap_FS_FOpenFile         400204e0 f   ui_syscalls.obj
 0001:0001f500       _trap_FS_Read              40020500 f   ui_syscalls.obj
 0001:0001f520       _trap_FS_Write             40020520 f   ui_syscalls.obj
 0001:0001f540       _trap_FS_FCloseFile        40020540 f   ui_syscalls.obj
 0001:0001f560       _trap_FS_GetFileList       40020560 f   ui_syscalls.obj
 0001:0001f580       _trap_R_RegisterModel      40020580 f   ui_syscalls.obj
 0001:0001f5a0       _trap_R_RegisterSkin       400205a0 f   ui_syscalls.obj
 0001:0001f5c0       _trap_R_RegisterFont       400205c0 f   ui_syscalls.obj
 0001:0001f5e0       _trap_R_Font_StrLenPixels  400205e0 f   ui_syscalls.obj
 0001:0001f610       _trap_R_Font_StrLenChars   40020610 f   ui_syscalls.obj
 0001:0001f630       _trap_R_Font_HeightPixels  40020630 f   ui_syscalls.obj
 0001:0001f650       _trap_R_Font_DrawString    40020650 f   ui_syscalls.obj
 0001:0001f690       _trap_Language_IsAsian     40020690 f   ui_syscalls.obj
 0001:0001f6a0       _trap_Language_UsesSpaces  400206a0 f   ui_syscalls.obj
 0001:0001f6b0       _trap_AnyLanguage_ReadCharFromString 400206b0 f   ui_syscalls.obj
 0001:0001f6d0       _trap_R_RegisterShaderNoMip 400206d0 f   ui_syscalls.obj
 0001:0001f6f0       _trap_R_ClearScene         400206f0 f   ui_syscalls.obj
 0001:0001f700       _trap_R_AddRefEntityToScene 40020700 f   ui_syscalls.obj
 0001:0001f720       _trap_R_AddPolyToScene     40020720 f   ui_syscalls.obj
 0001:0001f740       _trap_R_AddLightToScene    40020740 f   ui_syscalls.obj
 0001:0001f790       _trap_R_RenderScene        40020790 f   ui_syscalls.obj
 0001:0001f7b0       _trap_R_SetColor           400207b0 f   ui_syscalls.obj
 0001:0001f7d0       _trap_R_DrawStretchPic     400207d0 f   ui_syscalls.obj
 0001:0001f850       _trap_R_ModelBounds        40020850 f   ui_syscalls.obj
 0001:0001f870       _trap_UpdateScreen         40020870 f   ui_syscalls.obj
 0001:0001f880       _trap_CM_LerpTag           40020880 f   ui_syscalls.obj
 0001:0001f8b0       _trap_S_StartLocalSound    400208b0 f   ui_syscalls.obj
 0001:0001f8d0       _trap_S_RegisterSound      400208d0 f   ui_syscalls.obj
 0001:0001f8f0       _trap_Key_KeynumToStringBuf 400208f0 f   ui_syscalls.obj
 0001:0001f910       _trap_Key_GetBindingBuf    40020910 f   ui_syscalls.obj
 0001:0001f930       _trap_Key_SetBinding       40020930 f   ui_syscalls.obj
 0001:0001f950       _trap_Key_IsDown           40020950 f   ui_syscalls.obj
 0001:0001f970       _trap_Key_GetOverstrikeMode 40020970 f   ui_syscalls.obj
 0001:0001f980       _trap_Key_SetOverstrikeMode 40020980 f   ui_syscalls.obj
 0001:0001f9a0       _trap_Key_ClearStates      400209a0 f   ui_syscalls.obj
 0001:0001f9b0       _trap_Key_GetCatcher       400209b0 f   ui_syscalls.obj
 0001:0001f9c0       _trap_Key_SetCatcher       400209c0 f   ui_syscalls.obj
 0001:0001f9e0       _trap_GetClipboardData     400209e0 f   ui_syscalls.obj
 0001:0001fa00       _trap_GetClientState       40020a00 f   ui_syscalls.obj
 0001:0001fa20       _trap_GetGlconfig          40020a20 f   ui_syscalls.obj
 0001:0001fa40       _trap_GetConfigString      40020a40 f   ui_syscalls.obj
 0001:0001fa60       _trap_LAN_GetServerCount   40020a60 f   ui_syscalls.obj
 0001:0001fa80       _trap_LAN_GetServerAddressString 40020a80 f   ui_syscalls.obj
 0001:0001faa0       _trap_LAN_GetServerInfo    40020aa0 f   ui_syscalls.obj
 0001:0001fac0       _trap_LAN_GetServerPing    40020ac0 f   ui_syscalls.obj
 0001:0001fae0       _trap_LAN_GetPingQueueCount 40020ae0 f   ui_syscalls.obj
 0001:0001faf0       _trap_LAN_ServerStatus     40020af0 f   ui_syscalls.obj
 0001:0001fb10       _trap_LAN_SaveCachedServers 40020b10 f   ui_syscalls.obj
 0001:0001fb20       _trap_LAN_LoadCachedServers 40020b20 f   ui_syscalls.obj
 0001:0001fb30       _trap_LAN_ResetPings       40020b30 f   ui_syscalls.obj
 0001:0001fb50       _trap_LAN_ClearPing        40020b50 f   ui_syscalls.obj
 0001:0001fb70       _trap_LAN_GetPing          40020b70 f   ui_syscalls.obj
 0001:0001fb90       _trap_LAN_GetPingInfo      40020b90 f   ui_syscalls.obj
 0001:0001fbb0       _trap_LAN_MarkServerVisible 40020bb0 f   ui_syscalls.obj
 0001:0001fbd0       _trap_LAN_ServerIsVisible  40020bd0 f   ui_syscalls.obj
 0001:0001fbf0       _trap_LAN_UpdateVisiblePings 40020bf0 f   ui_syscalls.obj
 0001:0001fc10       _trap_LAN_AddServer        40020c10 f   ui_syscalls.obj
 0001:0001fc30       _trap_LAN_RemoveServer     40020c30 f   ui_syscalls.obj
 0001:0001fc50       _trap_LAN_CompareServers   40020c50 f   ui_syscalls.obj
 0001:0001fc80       _trap_MemoryRemaining      40020c80 f   ui_syscalls.obj
 0001:0001fc90       _trap_PC_AddGlobalDefine   40020c90 f   ui_syscalls.obj
 0001:0001fcb0       _trap_PC_LoadSource        40020cb0 f   ui_syscalls.obj
 0001:0001fcd0       _trap_PC_FreeSource        40020cd0 f   ui_syscalls.obj
 0001:0001fcf0       _trap_PC_ReadToken         40020cf0 f   ui_syscalls.obj
 0001:0001fd10       _trap_PC_SourceFileAndLine 40020d10 f   ui_syscalls.obj
 0001:0001fd30       _trap_PC_LoadGlobalDefines 40020d30 f   ui_syscalls.obj
 0001:0001fd50       _trap_PC_RemoveAllGlobalDefines 40020d50 f   ui_syscalls.obj
 0001:0001fd60       _trap_S_StopBackgroundTrack 40020d60 f   ui_syscalls.obj
 0001:0001fd70       _trap_S_StartBackgroundTrack 40020d70 f   ui_syscalls.obj
 0001:0001fd90       _trap_RealTime             40020d90 f   ui_syscalls.obj
 0001:0001fdb0       _trap_CIN_PlayCinematic    40020db0 f   ui_syscalls.obj
 0001:0001fde0       _trap_CIN_StopCinematic    40020de0 f   ui_syscalls.obj
 0001:0001fe00       _trap_CIN_RunCinematic     40020e00 f   ui_syscalls.obj
 0001:0001fe20       _trap_CIN_DrawCinematic    40020e20 f   ui_syscalls.obj
 0001:0001fe40       _trap_CIN_SetExtents       40020e40 f   ui_syscalls.obj
 0001:0001fe70       _trap_R_RemapShader        40020e70 f   ui_syscalls.obj
 0001:0001fe90       _trap_SP_Register          40020e90 f   ui_syscalls.obj
 0001:0001feb0       _trap_SP_GetStringTextString 40020eb0 f   ui_syscalls.obj
 0001:0001fed0       _trap_G2API_SetBoneAngles  40020ed0 f   ui_syscalls.obj
 0001:0001ff16       _atol                      40020f16 f   LIBC:atox.obj
 0001:0001ff6e       _atoi                      40020f6e f   LIBC:atox.obj
 0001:0001ff73       __atoi64                   40020f73 f   LIBC:atox.obj
 0001:0001ffec       __fpclear                  40020fec f   LIBC:fpinit.obj
 0001:0001ffed       __cfltcvt_init             40020fed f   LIBC:fpinit.obj
 0001:00020025       ___setfflag                40021025 f   LIBC:fpinit.obj
 0001:00020035       __fpmath                   40021035 f   LIBC:fpinit.obj
 0001:00020054       __ftol2                    40021054 f   LIBC:ftol2.obj
 0001:000200c9       _vsprintf                  400210c9 f   LIBC:vsprintf.obj
 0001:00020120       __vscprintf                40021120 f   LIBC:vsprintf.obj
 0001:00020150       _atof                      40021150 f   LIBC:atof.obj
 0001:000201a0       _strncpy                   400211a0 f   LIBC:strncpy.obj
 0001:000202c4       __tolower                  400212c4 f   LIBC:tolower.obj
 0001:000202cc       _tolower                   400212cc f   LIBC:tolower.obj
 0001:000203a1       __toupper                  400213a1 f   LIBC:toupper.obj
 0001:000203a9       _toupper                   400213a9 f   LIBC:toupper.obj
 0001:00020480       __alloca_probe             40021480     LIBC:chkstk.obj
 0001:00020480       __chkstk                   40021480 f   LIBC:chkstk.obj
 0001:000204d0       _strchr                    400214d0 f   LIBC:strchr.obj
 0001:000204d6       ___from_strstr_to_strchr   400214d6     LIBC:strchr.obj
 0001:0002058e       _srand                     4002158e f   LIBC:rand.obj
 0001:00020598       _rand                      40021598 f   LIBC:rand.obj
 0001:000205c0       _strstr                    400215c0 f   LIBC:strstr.obj
 0001:000206e0       _qsort                     400216e0 f   LIBC:qsort.obj
 0001:00020970       _memmove                   40021970 f   LIBC:memmove.obj
 0001:00020cad       __CRT_INIT@12              40021cad f   LIBC:dllcrt0.obj
 0001:00020db8       __DllMainCRTStartup@12     40021db8 f   LIBC:dllcrt0.obj
 0001:00020e9c       __amsg_exit                40021e9c f   LIBC:dllcrt0.obj
 0001:00020ecf       __ismbcspace               40021ecf f   LIBC:ismbspc.obj
 0001:00020f60       __allmul                   40021f60 f   LIBC:llmul.obj
 0001:00020f94       __forcdecpt                40021f94 f   LIBC:cvt.obj
 0001:00020fec       __cropzeros                40021fec f   LIBC:cvt.obj
 0001:00021037       __positive                 40022037 f   LIBC:cvt.obj
 0001:00021051       __fassign                  40022051 f   LIBC:cvt.obj
 0001:000210ac       __cftoe                    400220ac f   LIBC:cvt.obj
 0001:000211c4       __cftof                    400221c4 f   LIBC:cvt.obj
 0001:000212c4       __cftog                    400222c4 f   LIBC:cvt.obj
 0001:0002136e       __cfltcvt                  4002236e f   LIBC:cvt.obj
 0001:000213bf       __setdefaultprecision      400223bf f   LIBC:fp8.obj
 0001:000213d1       __ms_p5_test_fdiv          400223d1 f   LIBC:testfdiv.obj
 0001:00021411       __ms_p5_mp_test_fdiv       40022411 f   LIBC:testfdiv.obj
 0001:0002143a       __flsbuf                   4002243a f   LIBC:_flsbuf.obj
 0001:000215fd       __output                   400225fd f   LIBC:output.obj
 0001:00021df7       __fltin                    40022df7 f   LIBC:cfin.obj
 0001:00021e90       _strlen                    40022e90 f   LIBC:strlen.obj
 0001:00021f1b       ___pwctype_func            40022f1b f   LIBC:ctype.obj
 0001:00021f21       ___pctype_func             40022f21 f   LIBC:ctype.obj
 0001:00021f27       __chvalidator              40022f27 f   LIBC:isctype.obj
 0001:00021f3a       __isctype                  40022f3a f   LIBC:isctype.obj
 0001:00021fd4       ___crtLCMapStringA         40022fd4 f   LIBC:a_map.obj
 0001:00022390       ___crtExitProcess          40023390 f   LIBC:crt0dat.obj
 0001:000223f6       __cinit                    400233f6 f   LIBC:crt0dat.obj
 0001:00022521       _exit                      40023521 f   LIBC:crt0dat.obj
 0001:00022532       __exit                     40023532 f   LIBC:crt0dat.obj
 0001:00022543       __cexit                    40023543 f   LIBC:crt0dat.obj
 0001:00022552       __c_exit                   40023552 f   LIBC:crt0dat.obj
 0001:00022561       __ioinit                   40023561 f   LIBC:ioinit.obj
 0001:0002270c       __ioterm                   4002370c f   LIBC:ioinit.obj
 0001:0002272f       __setenvp                  4002372f f   LIBC:stdenvp.obj
 0001:00022962       __setargv                  40023962 f   LIBC:stdargv.obj
 0001:00022a04       ___heap_select             40023a04 f   LIBC:heapinit.obj
 0001:00022a1e       __heap_init                40023a1e f   LIBC:heapinit.obj
 0001:00022a6f       __heap_term                40023a6f f   LIBC:heapinit.obj
 0001:00022aee       __get_heap_handle          40023aee f   LIBC:heapinit.obj
 0001:00022af4       ___crtGetEnvironmentStringsA 40023af4 f   LIBC:a_env.obj
 0001:00022c16       __RTC_Initialize           40023c16 f   LIBC:initsect.obj
 0001:00022c5a       __RTC_Terminate            40023c5a f   LIBC:initsect.obj
 0001:00022cd5       __XcptFilter               40023cd5 f   LIBC:winxfltr.obj
 0001:00022e46       ___CppXcptFilter           40023e46 f   LIBC:winxfltr.obj
 0001:00022e61       _DllMain@12                40023e61 f   LIBC:dllmain.obj
 0001:00022e84       __SEH_prolog               40023e84 f   LIBC:sehprolg.obj
 0001:00022ebf       __SEH_epilog               40023ebf f   LIBC:sehprolg.obj
 0001:00022ed8       __except_handler3          40023ed8 f   LIBC:exsup3.obj
 0001:00022fbe       __seh_longjmp_unwind@4     40023fbe f   LIBC:exsup3.obj
 0001:00022fd9       __NMSG_WRITE               40023fd9 f   LIBC:crt0msg.obj
 0001:00023150       __GET_RTERRMSG             40024150 f   LIBC:crt0msg.obj
 0001:0002317a       __FF_MSGBANNER             4002417a f   LIBC:crt0msg.obj
 0001:000231b3       ___crtGetStringTypeA       400241b3 f   LIBC:a_str.obj
 0001:00023597       __setmbcp                  40024597 f   LIBC:mbctype.obj
 0001:0002377d       __getmbcp                  4002477d f   LIBC:mbctype.obj
 0001:0002378d       ___initmbctable            4002478d f   LIBC:mbctype.obj
 0001:000237ab       __ZeroTail                 400247ab f   LIBC:intrncvt.obj
 0001:000237dd       __IncMan                   400247dd f   LIBC:intrncvt.obj
 0001:0002382a       __RoundMan                 4002482a f   LIBC:intrncvt.obj
 0001:0002389c       __CopyMan                  4002489c f   LIBC:intrncvt.obj
 0001:000238b7       __FillZeroMan              400248b7 f   LIBC:intrncvt.obj
 0001:000238c3       __IsZeroMan                400248c3 f   LIBC:intrncvt.obj
 0001:000238dc       __ShrMan                   400248dc f   LIBC:intrncvt.obj
 0001:00023957       __ld12cvt                  40024957 f   LIBC:intrncvt.obj
 0001:00023aaf       __ld12tod                  40024aaf f   LIBC:intrncvt.obj
 0001:00023ac5       __ld12tof                  40024ac5 f   LIBC:intrncvt.obj
 0001:00023adb       __ld12told                 40024adb f   LIBC:intrncvt.obj
 0001:00023b57       __atodbl                   40024b57 f   LIBC:intrncvt.obj
 0001:00023b94       __atoldbl                  40024b94 f   LIBC:intrncvt.obj
 0001:00023bd2       __atoflt                   40024bd2 f   LIBC:intrncvt.obj
 0001:00023c10       _strcpy                    40024c10 f   LIBC:strcat.obj
 0001:00023c20       _strcat                    40024c20 f   LIBC:strcat.obj
 0001:00023d08       __fptostr                  40024d08 f   LIBC:_fptostr.obj
 0001:00023d7f       ___dtold                   40024d7f f   LIBC:cfout.obj
 0001:00023e39       __fltout                   40024e39 f   LIBC:cfout.obj
 0001:00023eb0       _memset                    40024eb0 f   LIBC:memset.obj
 0001:00023f10       __fptrap                   40024f10 f   LIBC:crt0fp.obj
 0001:00023f19       __fpreset                  40024f19 f   LIBC:ieee87.obj
 0001:0002409c       __statusfp                 4002509c f   LIBC:ieee87.obj
 0001:000240ac       __clearfp                  400250ac f   LIBC:ieee87.obj
 0001:000240bd       __control87                400250bd f   LIBC:ieee87.obj
 0001:000240ef       __controlfp                400250ef f   LIBC:ieee87.obj
 0001:00024105       __lseek                    40025105 f   LIBC:lseek.obj
 0001:00024191       __write                    40025191 f   LIBC:write.obj
 0001:00024381       __getbuf                   40025381 f   LIBC:_getbuf.obj
 0001:000243c5       __isatty                   400253c5 f   LIBC:isatty.obj
 0001:000243ec       ___iob_func                400253ec f   LIBC:_file.obj
 0001:000243f2       ___initstdio               400253f2 f   LIBC:_file.obj
 0001:00024498       ___endstdio                40025498 f   LIBC:_file.obj
 0001:000244ac       _free                      400254ac f   LIBC:free.obj
 0001:000244e4       __heap_alloc               400254e4 f   LIBC:malloc.obj
 0001:0002452a       __nh_malloc                4002552a f   LIBC:malloc.obj
 0001:00024556       _malloc                    40025556 f   LIBC:malloc.obj
 0001:00024568       _wctomb                    40025568 f   LIBC:wctomb.obj
 0001:000245ff       @__security_check_cookie@4 400255ff f   LIBC:secchk.obj
 0001:00024610       __aulldvrm                 40025610 f   LIBC:ulldvrm.obj
 0001:000246a5       ___strgtold12              400256a5 f   LIBC:strgtold.obj
 0001:00024b2c       ___STRINGTOLD              40025b2c f   LIBC:strgtold.obj
 0001:00024b78       ___ansicp                  40025b78 f   LIBC:convrtcp.obj
 0001:00024bbb       ___convertcp               40025bbb f   LIBC:convrtcp.obj
 0001:00024d84       __resetstkoflw             40025d84 f   LIBC:resetstk.obj
 0001:00024e67       __onexit                   40025e67 f   LIBC:onexit.obj
 0001:00024ee9       _atexit                    40025ee9 f   LIBC:onexit.obj
 0001:00024efb       ___onexitinit              40025efb f   LIBC:onexit.obj
 0001:00024f23       __get_sbh_threshold        40025f23 f   LIBC:sbheap.obj
 0001:00024f38       ___sbh_heap_init           40025f38 f   LIBC:sbheap.obj
 0001:00024f80       ___sbh_find_block          40025f80 f   LIBC:sbheap.obj
 0001:00024fab       ___sbh_free_block          40025fab f   LIBC:sbheap.obj
 0001:000252c3       ___sbh_alloc_new_region    400262c3 f   LIBC:sbheap.obj
 0001:0002537a       ___sbh_alloc_new_group     4002637a f   LIBC:sbheap.obj
 0001:00025480       ___sbh_resize_block        40026480 f   LIBC:sbheap.obj
 0001:0002575f       ___sbh_heapmin             4002675f f   LIBC:sbheap.obj
 0001:00025830       ___sbh_heap_check          40026830 f   LIBC:sbheap.obj
 0001:00025b49       __set_sbh_threshold        40026b49 f   LIBC:sbheap.obj
 0001:00025ba4       ___sbh_alloc_block         40026ba4 f   LIBC:sbheap.obj
 0001:00025ea0       _memcpy                    40026ea0 f   LIBC:memcpy.obj
 0001:000261e0       __global_unwind2           400271e0 f   LIBC:exsup.obj
 0001:00026222       __local_unwind2            40027222 f   LIBC:exsup.obj
 0001:0002627a       __NLG_Return2              4002727a     LIBC:exsup.obj
 0001:0002628a       __abnormal_termination     4002728a f   LIBC:exsup.obj
 0001:000262ad       __NLG_Notify1              400272ad f   LIBC:exsup.obj
 0001:000262b6       __NLG_Notify               400272b6 f   LIBC:exsup.obj
 0001:000262c9       __NLG_Dispatch             400272c9     LIBC:exsup.obj
 0001:000262ce       __ValidateEH3RN            400272ce f   LIBC:eh3valid.obj
 0001:000264f7       ___crtMessageBoxA          400274f7 f   LIBC:crtmbox.obj
 0001:000265f0       _calloc                    400275f0 f   LIBC:calloc.obj
 0001:0002666b       ___addl                    4002766b f   LIBC:mantold.obj
 0001:0002668c       ___add_12                  4002768c f   LIBC:mantold.obj
 0001:000266ea       ___shl_12                  400276ea f   LIBC:mantold.obj
 0001:00026718       ___shr_12                  40027718 f   LIBC:mantold.obj
 0001:00026745       ___mtold12                 40027745 f   LIBC:mantold.obj
 0001:00026823       _$I10_OUTPUT               40027823 f   LIBC:x10fout.obj
 0001:00026ab1       __dosmaperr                40027ab1 f   LIBC:dosmap.obj
 0001:00026b10       __alloc_osfhnd             40027b10 f   LIBC:osfinfo.obj
 0001:00026bad       __set_osfhnd               40027bad f   LIBC:osfinfo.obj
 0001:00026c24       __free_osfhnd              40027c24 f   LIBC:osfinfo.obj
 0001:00026c9e       __get_osfhandle            40027c9e f   LIBC:osfinfo.obj
 0001:00026cda       __open_osfhandle           40027cda f   LIBC:osfinfo.obj
 0001:00026d77       __lseeki64                 40027d77 f   LIBC:lseeki64.obj
 0001:00026e16       __fcloseall                40027e16 f   LIBC:closeall.obj
 0001:00026e6e       __flush                    40027e6e f   LIBC:fflush.obj
 0001:00026ecb       _fflush                    40027ecb f   LIBC:fflush.obj
 0001:00026f73       __flushall                 40027f73 f   LIBC:fflush.obj
 0001:00026f7c       ?_set_new_handler@@YAP6AHI@ZP6AHI@Z@Z 40027f7c f   LIBC:handler.obj
 0001:00026f8c       ?_query_new_handler@@YAP6AHI@ZXZ 40027f8c f   LIBC:handler.obj
 0001:00026f92       __callnewh                 40027f92 f   LIBC:handler.obj
 0001:00026fad       ___security_init_cookie    40027fad f   LIBC:seccinit.obj
 0001:00027013       ___security_error_handler  40028013 f   LIBC:secfail.obj
 0001:0002715b       __set_security_error_handler 4002815b f   LIBC:secfail.obj
 0001:0002716b       ___buffer_overrun          4002816b f   LIBC:secfail.obj
 0001:00027177       ___set_buffer_overrun_handler 40028177 f   LIBC:secfail.obj
 0001:00027187       ___ld12mul                 40028187 f   LIBC:tenpow.obj
 0001:000273b9       ___multtenpow12            400283b9 f   LIBC:tenpow.obj
 0001:0002743f       _realloc                   4002843f f   LIBC:realloc.obj
 0001:000275a1       __msize                    400285a1 f   LIBC:msize.obj
 0001:000275d9       _fclose                    400285d9 f   LIBC:fclose.obj
 0001:0002762f       __commit                   4002862f f   LIBC:commit.obj
 0001:00027686       __close                    40028686 f   LIBC:close.obj
 0001:00027739       __freebuf                  40028739 f   LIBC:_freebuf.obj
 0001:00027764       _GetCommandLineA@0         40028764 f   kernel32:KERNEL32.dll
 0001:0002776a       _GetVersionExA@4           4002876a f   kernel32:KERNEL32.dll
 0001:00027770       _GetProcAddress@8          40028770 f   kernel32:KERNEL32.dll
 0001:00027776       _GetModuleHandleA@4        40028776 f   kernel32:KERNEL32.dll
 0001:0002777c       _LCMapStringA@24           4002877c f   kernel32:KERNEL32.dll
 0001:00027782       _WideCharToMultiByte@32    40028782 f   kernel32:KERNEL32.dll
 0001:00027788       _MultiByteToWideChar@24    40028788 f   kernel32:KERNEL32.dll
 0001:0002778e       _GetLastError@0            4002878e f   kernel32:KERNEL32.dll
 0001:00027794       _LCMapStringW@24           40028794 f   kernel32:KERNEL32.dll
 0001:0002779a       _ExitProcess@4             4002879a f   kernel32:KERNEL32.dll
 0001:000277a0       _TerminateProcess@8        400287a0 f   kernel32:KERNEL32.dll
 0001:000277a6       _GetCurrentProcess@0       400287a6 f   kernel32:KERNEL32.dll
 0001:000277ac       _SetHandleCount@4          400287ac f   kernel32:KERNEL32.dll
 0001:000277b2       _GetStdHandle@4            400287b2 f   kernel32:KERNEL32.dll
 0001:000277b8       _GetFileType@4             400287b8 f   kernel32:KERNEL32.dll
 0001:000277be       _GetStartupInfoA@4         400287be f   kernel32:KERNEL32.dll
 0001:000277c4       _GetModuleFileNameA@12     400287c4 f   kernel32:KERNEL32.dll
 0001:000277ca       _HeapDestroy@4             400287ca f   kernel32:KERNEL32.dll
 0001:000277d0       _HeapCreate@12             400287d0 f   kernel32:KERNEL32.dll
 0001:000277d6       _VirtualFree@12            400287d6 f   kernel32:KERNEL32.dll
 0001:000277dc       _HeapFree@12               400287dc f   kernel32:KERNEL32.dll
 0001:000277e2       _FreeEnvironmentStringsA@4 400287e2 f   kernel32:KERNEL32.dll
 0001:000277e8       _GetEnvironmentStrings@0   400287e8 f   kernel32:KERNEL32.dll
 0001:000277ee       _FreeEnvironmentStringsW@4 400287ee f   kernel32:KERNEL32.dll
 0001:000277f4       _GetEnvironmentStringsW@0  400287f4 f   kernel32:KERNEL32.dll
 0001:000277fa       _UnhandledExceptionFilter@4 400287fa f   kernel32:KERNEL32.dll
 0001:00027800       _DisableThreadLibraryCalls@4 40028800 f   kernel32:KERNEL32.dll
 0001:00027806       _WriteFile@20              40028806 f   kernel32:KERNEL32.dll
 0001:0002780c       _GetStringTypeA@20         4002880c f   kernel32:KERNEL32.dll
 0001:00027812       _GetStringTypeW@16         40028812 f   kernel32:KERNEL32.dll
 0001:00027818       _GetACP@0                  40028818 f   kernel32:KERNEL32.dll
 0001:0002781e       _GetOEMCP@0                4002881e f   kernel32:KERNEL32.dll
 0001:00027824       _GetCPInfo@8               40028824 f   kernel32:KERNEL32.dll
 0001:0002782a       _SetFilePointer@16         4002882a f   kernel32:KERNEL32.dll
 0001:00027830       _HeapAlloc@12              40028830 f   kernel32:KERNEL32.dll
 0001:00027836       _GetLocaleInfoA@16         40028836 f   kernel32:KERNEL32.dll
 0001:0002783c       _VirtualProtect@16         4002883c f   kernel32:KERNEL32.dll
 0001:00027842       _VirtualAlloc@16           40028842 f   kernel32:KERNEL32.dll
 0001:00027848       _GetSystemInfo@4           40028848 f   kernel32:KERNEL32.dll
 0001:0002784e       _VirtualQuery@12           4002884e f   kernel32:KERNEL32.dll
 0001:00027854       _HeapReAlloc@16            40028854 f   kernel32:KERNEL32.dll
 0001:0002785a       _IsBadWritePtr@8           4002885a f   kernel32:KERNEL32.dll
 0001:00027860       _RtlUnwind@16              40028860 f   kernel32:KERNEL32.dll
 0001:00027866       _InterlockedExchange@8     40028866 f   kernel32:KERNEL32.dll
 0001:0002786c       _LoadLibraryA@4            4002886c f   kernel32:KERNEL32.dll
 0001:00027872       _SetStdHandle@8            40028872 f   kernel32:KERNEL32.dll
 0001:00027878       _QueryPerformanceCounter@4 40028878 f   kernel32:KERNEL32.dll
 0001:0002787e       _GetTickCount@0            4002887e f   kernel32:KERNEL32.dll
 0001:00027884       _GetCurrentThreadId@0      40028884 f   kernel32:KERNEL32.dll
 0001:0002788a       _GetCurrentProcessId@0     4002888a f   kernel32:KERNEL32.dll
 0001:00027890       _GetSystemTimeAsFileTime@4 40028890 f   kernel32:KERNEL32.dll
 0001:00027896       _HeapSize@12               40028896 f   kernel32:KERNEL32.dll
 0001:0002789c       _FlushFileBuffers@4        4002889c f   kernel32:KERNEL32.dll
 0001:000278a2       _CloseHandle@4             400288a2 f   kernel32:KERNEL32.dll
 0002:00000000       __imp__GetCommandLineA@0   40029000     kernel32:KERNEL32.dll
 0002:00000004       __imp__GetVersionExA@4     40029004     kernel32:KERNEL32.dll
 0002:00000008       __imp__GetProcAddress@8    40029008     kernel32:KERNEL32.dll
 0002:0000000c       __imp__GetModuleHandleA@4  4002900c     kernel32:KERNEL32.dll
 0002:00000010       __imp__LCMapStringA@24     40029010     kernel32:KERNEL32.dll
 0002:00000014       __imp__WideCharToMultiByte@32 40029014     kernel32:KERNEL32.dll
 0002:00000018       __imp__MultiByteToWideChar@24 40029018     kernel32:KERNEL32.dll
 0002:0000001c       __imp__GetLastError@0      4002901c     kernel32:KERNEL32.dll
 0002:00000020       __imp__LCMapStringW@24     40029020     kernel32:KERNEL32.dll
 0002:00000024       __imp__ExitProcess@4       40029024     kernel32:KERNEL32.dll
 0002:00000028       __imp__TerminateProcess@8  40029028     kernel32:KERNEL32.dll
 0002:0000002c       __imp__GetCurrentProcess@0 4002902c     kernel32:KERNEL32.dll
 0002:00000030       __imp__SetHandleCount@4    40029030     kernel32:KERNEL32.dll
 0002:00000034       __imp__GetStdHandle@4      40029034     kernel32:KERNEL32.dll
 0002:00000038       __imp__GetFileType@4       40029038     kernel32:KERNEL32.dll
 0002:0000003c       __imp__GetStartupInfoA@4   4002903c     kernel32:KERNEL32.dll
 0002:00000040       __imp__GetModuleFileNameA@12 40029040     kernel32:KERNEL32.dll
 0002:00000044       __imp__HeapDestroy@4       40029044     kernel32:KERNEL32.dll
 0002:00000048       __imp__HeapCreate@12       40029048     kernel32:KERNEL32.dll
 0002:0000004c       __imp__VirtualFree@12      4002904c     kernel32:KERNEL32.dll
 0002:00000050       __imp__HeapFree@12         40029050     kernel32:KERNEL32.dll
 0002:00000054       __imp__FreeEnvironmentStringsA@4 40029054     kernel32:KERNEL32.dll
 0002:00000058       __imp__GetEnvironmentStrings@0 40029058     kernel32:KERNEL32.dll
 0002:0000005c       __imp__FreeEnvironmentStringsW@4 4002905c     kernel32:KERNEL32.dll
 0002:00000060       __imp__GetEnvironmentStringsW@0 40029060     kernel32:KERNEL32.dll
 0002:00000064       __imp__UnhandledExceptionFilter@4 40029064     kernel32:KERNEL32.dll
 0002:00000068       __imp__DisableThreadLibraryCalls@4 40029068     kernel32:KERNEL32.dll
 0002:0000006c       __imp__WriteFile@20        4002906c     kernel32:KERNEL32.dll
 0002:00000070       __imp__GetStringTypeA@20   40029070     kernel32:KERNEL32.dll
 0002:00000074       __imp__GetStringTypeW@16   40029074     kernel32:KERNEL32.dll
 0002:00000078       __imp__GetACP@0            40029078     kernel32:KERNEL32.dll
 0002:0000007c       __imp__GetOEMCP@0          4002907c     kernel32:KERNEL32.dll
 0002:00000080       __imp__GetCPInfo@8         40029080     kernel32:KERNEL32.dll
 0002:00000084       __imp__SetFilePointer@16   40029084     kernel32:KERNEL32.dll
 0002:00000088       __imp__HeapAlloc@12        40029088     kernel32:KERNEL32.dll
 0002:0000008c       __imp__GetLocaleInfoA@16   4002908c     kernel32:KERNEL32.dll
 0002:00000090       __imp__VirtualProtect@16   40029090     kernel32:KERNEL32.dll
 0002:00000094       __imp__VirtualAlloc@16     40029094     kernel32:KERNEL32.dll
 0002:00000098       __imp__GetSystemInfo@4     40029098     kernel32:KERNEL32.dll
 0002:0000009c       __imp__VirtualQuery@12     4002909c     kernel32:KERNEL32.dll
 0002:000000a0       __imp__HeapReAlloc@16      400290a0     kernel32:KERNEL32.dll
 0002:000000a4       __imp__IsBadWritePtr@8     400290a4     kernel32:KERNEL32.dll
 0002:000000a8       __imp__RtlUnwind@16        400290a8     kernel32:KERNEL32.dll
 0002:000000ac       __imp__InterlockedExchange@8 400290ac     kernel32:KERNEL32.dll
 0002:000000b0       __imp__LoadLibraryA@4      400290b0     kernel32:KERNEL32.dll
 0002:000000b4       __imp__SetStdHandle@8      400290b4     kernel32:KERNEL32.dll
 0002:000000b8       __imp__QueryPerformanceCounter@4 400290b8     kernel32:KERNEL32.dll
 0002:000000bc       __imp__GetTickCount@0      400290bc     kernel32:KERNEL32.dll
 0002:000000c0       __imp__GetCurrentThreadId@0 400290c0     kernel32:KERNEL32.dll
 0002:000000c4       __imp__GetCurrentProcessId@0 400290c4     kernel32:KERNEL32.dll
 0002:000000c8       __imp__GetSystemTimeAsFileTime@4 400290c8     kernel32:KERNEL32.dll
 0002:000000cc       __imp__HeapSize@12         400290cc     kernel32:KERNEL32.dll
 0002:000000d0       __imp__FlushFileBuffers@4  400290d0     kernel32:KERNEL32.dll
 0002:000000d4       __imp__CloseHandle@4       400290d4     kernel32:KERNEL32.dll
 0002:000000d8       \177KERNEL32_NULL_THUNK_DATA 400290d8     kernel32:KERNEL32.dll
 0002:000000fc       ??_C@_0BD@LADOFFHF@EV_BODY_QUEUE_COPY?$AA@ 400290fc     bg_misc.obj
 0002:00000110       ??_C@_0BA@LOAEJFFI@EV_TAUNT_PATROL?$AA@ 40029110     bg_misc.obj
 0002:00000120       ??_C@_0BD@HMFKCJAA@EV_TAUNT_GUARDBASE?$AA@ 40029120     bg_misc.obj
 0002:00000134       ??_C@_0BB@NHAKBFEP@EV_TAUNT_GETFLAG?$AA@ 40029134     bg_misc.obj
 0002:00000148       ??_C@_0BC@CHOOODFF@EV_TAUNT_FOLLOWME?$AA@ 40029148     bg_misc.obj
 0002:0000015c       ??_C@_0M@CJNAMJCI@EV_TAUNT_NO?$AA@ 4002915c     bg_misc.obj
 0002:00000168       ??_C@_0N@GEFDJMFE@EV_TAUNT_YES?$AA@ 40029168     bg_misc.obj
 0002:00000178       ??_C@_08GBKLDCBE@EV_TAUNT?$AA@ 40029178     bg_misc.obj
 0002:00000184       ??_C@_0BF@EAHNFOOG@EV_STARTLOOPINGSOUND?$AA@ 40029184     bg_misc.obj
 0002:0000019c       ??_C@_0BE@OHJHDFJH@EV_STOPLOOPINGSOUND?$AA@ 4002919c     bg_misc.obj
 0002:000001b0       ??_C@_0M@LDAKOPJP@EV_TESTLINE?$AA@ 400291b0     bg_misc.obj
 0002:000001bc       ??_C@_0O@PBPAKHP@EV_DEBUG_LINE?$AA@ 400291bc     bg_misc.obj
 0002:000001cc       ??_C@_0O@CBLOOGHB@EV_SHIELD_HIT?$AA@ 400291cc     bg_misc.obj
 0002:000001dc       ??_C@_0BF@LLJHJACN@EV_WEAPON_CHARGE_ALT?$AA@ 400291dc     bg_misc.obj
 0002:000001f4       ??_C@_0BB@HAHOHAKJ@EV_WEAPON_CHARGE?$AA@ 400291f4     bg_misc.obj
 0002:00000208       ??_C@_0BF@KFICFFCM@EV_SET_FORCE_DISABLE?$AA@ 40029208     bg_misc.obj
 0002:00000220       ??_C@_0BC@DDJADHAK@EV_SET_FREE_SABER?$AA@ 40029220     bg_misc.obj
 0002:00000234       ??_C@_0BB@JIHOLMBD@EV_GIVE_NEW_RANK?$AA@ 40029234     bg_misc.obj
 0002:00000248       ??_C@_0BI@CEGPCIEH@EV_DESTROY_WEAPON_MODEL?$AA@ 40029248     bg_misc.obj
 0002:00000260       ??_C@_0BL@DNICLAEN@EV_DESTROY_GHOUL2_INSTANCE?$AA@ 40029260     bg_misc.obj
 0002:0000027c       ??_C@_0BK@KKHGBKBG@EV_SAGA_OBJECTIVECOMPLETE?$AA@ 4002927c     bg_misc.obj
 0002:00000298       ??_C@_0BC@EFMHNGOM@EV_SAGA_ROUNDOVER?$AA@ 40029298     bg_misc.obj
 0002:000002ac       ??_C@_0O@NEHCEMNJ@EV_CTFMESSAGE?$AA@ 400292ac     bg_misc.obj
 0002:000002bc       ??_C@_0N@GAJBP@EV_SCOREPLUM?$AA@ 400292bc     bg_misc.obj
 0002:000002cc       ??_C@_0O@JLGFLKBE@EV_GIB_PLAYER?$AA@ 400292cc     bg_misc.obj
 0002:000002dc       ??_C@_0BB@KGMADNKO@EV_FORCE_DRAINED?$AA@ 400292dc     bg_misc.obj
 0002:000002f0       ??_C@_0BG@CHAMNADK@EV_POWERUP_BATTLESUIT?$AA@ 400292f0     bg_misc.obj
 0002:00000308       ??_C@_0BA@HLHGHIIE@EV_POWERUP_QUAD?$AA@ 40029308     bg_misc.obj
 0002:00000318       ??_C@_0M@PPLCDPP@EV_OBITUARY?$AA@ 40029318     bg_misc.obj
 0002:00000324       ??_C@_09KNGHBIAK@EV_DEATH3?$AA@ 40029324     bg_misc.obj
 0002:00000330       ??_C@_09LEHMCJEL@EV_DEATH2?$AA@ 40029330     bg_misc.obj
 0002:0000033c       ??_C@_09JPFBHKII@EV_DEATH1?$AA@ 4002933c     bg_misc.obj
 0002:00000348       ??_C@_07EMHHKOOH@EV_PAIN?$AA@ 40029348     bg_misc.obj
 0002:00000350       ??_C@_09ICDIPKFJ@EV_BULLET?$AA@ 40029350     bg_misc.obj
 0002:0000035c       ??_C@_0BG@LPAHEABB@EV_MISSILE_MISS_METAL?$AA@ 4002935c     bg_misc.obj
 0002:00000374       ??_C@_0BA@CAHALNAE@EV_MISSILE_MISS?$AA@ 40029374     bg_misc.obj
 0002:00000384       ??_C@_0P@JFMFNBMO@EV_MISSILE_HIT?$AA@ 40029384     bg_misc.obj
 0002:00000394       ??_C@_09KLJDDMJG@EV_DEBRIS?$AA@ 40029394     bg_misc.obj
 0002:000003a0       ??_C@_0BB@HHFJBAND@EV_GLASS_SHATTER?$AA@ 400293a0     bg_misc.obj
 0002:000003b4       ??_C@_0N@BEKJCCJE@EV_PLAY_ROFF?$AA@ 400293b4     bg_misc.obj
 0002:000003c4       ??_C@_0BA@LLJGBFCE@EV_ENTITY_SOUND?$AA@ 400293c4     bg_misc.obj
 0002:000003d4       ??_C@_0BF@DDOIKLHD@EV_GLOBAL_TEAM_SOUND?$AA@ 400293d4     bg_misc.obj
 0002:000003ec       ??_C@_0BA@JAMKLOPJ@EV_GLOBAL_SOUND?$AA@ 400293ec     bg_misc.obj
 0002:000003fc       ??_C@_0BB@LJGGMAII@EV_GENERAL_SOUND?$AA@ 400293fc     bg_misc.obj
 0002:00000410       ??_C@_0O@JHBKAOKG@EV_MUTE_SOUND?$AA@ 40029410     bg_misc.obj
 0002:00000420       ??_C@_0BC@LCOMFDPL@EV_PLAY_EFFECT_ID?$AA@ 40029420     bg_misc.obj
 0002:00000434       ??_C@_0P@PLIFONPM@EV_PLAY_EFFECT?$AA@ 40029434     bg_misc.obj
 0002:00000444       ??_C@_0BB@JGOOAGDJ@EV_MISSILE_STICK?$AA@ 40029444     bg_misc.obj
 0002:00000458       ??_C@_0BC@ECIIAFLJ@EV_GRENADE_BOUNCE?$AA@ 40029458     bg_misc.obj
 0002:0000046c       ??_C@_0BH@FNNILPIN@EV_PLAYER_TELEPORT_OUT?$AA@ 4002946c     bg_misc.obj
 0002:00000484       ??_C@_0BG@HBBJKNDP@EV_PLAYER_TELEPORT_IN?$AA@ 40029484     bg_misc.obj
 0002:0000049c       ??_C@_0M@ECGFPIMP@EV_ITEM_POP?$AA@ 4002949c     bg_misc.obj
 0002:000004a8       ??_C@_0BA@GJNCODNG@EV_ITEM_RESPAWN?$AA@ 400294a8     bg_misc.obj
 0002:000004b8       ??_C@_0P@JFHCOBFC@EV_ITEMUSEFAIL?$AA@ 400294b8     bg_misc.obj
 0002:000004c8       ??_C@_0O@HHGOLJPJ@EV_USE_ITEM15?$AA@ 400294c8     bg_misc.obj
 0002:000004d8       ??_C@_0O@GOHFIILI@EV_USE_ITEM14?$AA@ 400294d8     bg_misc.obj
 0002:000004e8       ??_C@_0O@CBDEBOHP@EV_USE_ITEM13?$AA@ 400294e8     bg_misc.obj
 0002:000004f8       ??_C@_0O@DICPCPDO@EV_USE_ITEM12?$AA@ 400294f8     bg_misc.obj
 0002:00000508       ??_C@_0O@BDACHMPN@EV_USE_ITEM11?$AA@ 40029508     bg_misc.obj
 0002:00000518       ??_C@_0O@KBJENLM@EV_USE_ITEM10?$AA@ 40029518     bg_misc.obj
 0002:00000528       ??_C@_0N@PHODCBCK@EV_USE_ITEM9?$AA@ 40029528     bg_misc.obj
 0002:00000538       ??_C@_0N@OOPIBAGL@EV_USE_ITEM8?$AA@ 40029538     bg_misc.obj
 0002:00000548       ??_C@_0N@GJGAAMKE@EV_USE_ITEM7?$AA@ 40029548     bg_misc.obj
 0002:00000558       ??_C@_0N@HAHLDNOF@EV_USE_ITEM6?$AA@ 40029558     bg_misc.obj
 0002:00000568       ??_C@_0N@FLFGGOCG@EV_USE_ITEM5?$AA@ 40029568     bg_misc.obj
 0002:00000578       ??_C@_0N@ECENFPGH@EV_USE_ITEM4?$AA@ 40029578     bg_misc.obj
 0002:00000588       ??_C@_0N@NAMMJKA@EV_USE_ITEM3?$AA@ 40029588     bg_misc.obj
 0002:00000598       ??_C@_0N@BEBHPIOB@EV_USE_ITEM2?$AA@ 40029598     bg_misc.obj
 0002:000005a8       ??_C@_0N@DPDKKLCC@EV_USE_ITEM1?$AA@ 400295a8     bg_misc.obj
 0002:000005b8       ??_C@_0N@CGCBJKGD@EV_USE_ITEM0?$AA@ 400295b8     bg_misc.obj
 0002:000005c8       ??_C@_06LBDBNJG@EV_USE?$AA@ 400295c8     bg_misc.obj
 0002:000005d0       ??_C@_0P@EIHBPBOL@EV_SCREENSHAKE?$AA@ 400295d0     bg_misc.obj
 0002:000005e0       ??_C@_0O@GMONIJJI@EV_TEAM_POWER?$AA@ 400295e0     bg_misc.obj
 0002:000005f0       ??_C@_0P@MDPKBHNH@EV_PREDEFSOUND?$AA@ 400295f0     bg_misc.obj
 0002:00000600       ??_C@_0BH@GCPNKPAL@EV_DISRUPTOR_ZOOMSOUND?$AA@ 40029600     bg_misc.obj
 0002:00000618       ??_C@_0BB@JNGCFFFI@EV_DISRUPTOR_HIT?$AA@ 40029618     bg_misc.obj
 0002:0000062c       ??_C@_0BJ@POMLOPMI@EV_DISRUPTOR_SNIPER_MISS?$AA@ 4002962c     bg_misc.obj
 0002:00000648       ??_C@_0BJ@MDNKGNJN@EV_DISRUPTOR_SNIPER_SHOT?$AA@ 40029648     bg_misc.obj
 0002:00000664       ??_C@_0BH@KDGLLAMO@EV_DISRUPTOR_MAIN_SHOT?$AA@ 40029664     bg_misc.obj
 0002:0000067c       ??_C@_0BF@MBILLJJH@EV_BECOME_JEDIMASTER?$AA@ 4002967c     bg_misc.obj
 0002:00000694       ??_C@_0BD@FFJMPGGA@EV_SABER_UNHOLSTER?$AA@ 40029694     bg_misc.obj
 0002:000006a8       ??_C@_0P@MNCBBKHB@EV_SABER_BLOCK?$AA@ 400296a8     bg_misc.obj
 0002:000006b8       ??_C@_0N@IKFBFHKB@EV_SABER_HIT?$AA@ 400296b8     bg_misc.obj
 0002:000006c8       ??_C@_0BA@FJAFFDLF@EV_SABER_ATTACK?$AA@ 400296c8     bg_misc.obj
 0002:000006d8       ??_C@_0M@LKPOHPHC@EV_ALT_FIRE?$AA@ 400296d8     bg_misc.obj
 0002:000006e4       ??_C@_0P@PFJPAFGH@EV_FIRE_WEAPON?$AA@ 400296e4     bg_misc.obj
 0002:000006f4       ??_C@_0BB@ENKPHJLP@EV_CHANGE_WEAPON?$AA@ 400296f4     bg_misc.obj
 0002:00000708       ??_C@_09NMIICG@EV_NOAMMO?$AA@ 40029708     bg_misc.obj
 0002:00000714       ??_C@_0BG@KFILGAMN@EV_GLOBAL_ITEM_PICKUP?$AA@ 40029714     bg_misc.obj
 0002:0000072c       ??_C@_0P@BGIOEPCB@EV_ITEM_PICKUP?$AA@ 4002972c     bg_misc.obj
 0002:0000073c       ??_C@_0P@NIPCJOBG@EV_WATER_CLEAR?$AA@ 4002973c     bg_misc.obj
 0002:0000074c       ??_C@_0P@MIAIODEJ@EV_WATER_UNDER?$AA@ 4002974c     bg_misc.obj
 0002:0000075c       ??_C@_0P@LHDMOIIG@EV_WATER_LEAVE?$AA@ 4002975c     bg_misc.obj
 0002:0000076c       ??_C@_0P@GCDBKPMP@EV_WATER_TOUCH?$AA@ 4002976c     bg_misc.obj
 0002:0000077c       ??_C@_07OCJFCKNN@EV_ROLL?$AA@ 4002977c     bg_misc.obj
 0002:00000784       ??_C@_07GKBEHGAP@EV_JUMP?$AA@ 40029784     bg_misc.obj
 0002:0000078c       ??_C@_0BA@NCAJLGNF@EV_PRIVATE_DUEL?$AA@ 4002978c     bg_misc.obj
 0002:0000079c       ??_C@_0M@BPNFGBOJ@EV_JUMP_PAD?$AA@ 4002979c     bg_misc.obj
 0002:000007a8       ??_C@_07JHCKGMKM@EV_FALL?$AA@ 400297a8     bg_misc.obj
 0002:000007b0       ??_C@_0L@HOOIOPKF@EV_STEP_16?$AA@ 400297b0     bg_misc.obj
 0002:000007bc       ??_C@_0L@BKIECKKB@EV_STEP_12?$AA@ 400297bc     bg_misc.obj
 0002:000007c8       ??_C@_09EHOLDGNN@EV_STEP_8?$AA@ 400297c8     bg_misc.obj
 0002:000007d4       ??_C@_09OLFOHJNB@EV_STEP_4?$AA@ 400297d4     bg_misc.obj
 0002:000007e0       ??_C@_07FFIIIPLH@EV_SWIM?$AA@ 400297e0     bg_misc.obj
 0002:000007e8       ??_C@_0M@NPJBGELA@EV_FOOTWADE?$AA@ 400297e8     bg_misc.obj
 0002:000007f4       ??_C@_0O@HLJHKIDH@EV_FOOTSPLASH?$AA@ 400297f4     bg_misc.obj
 0002:00000804       ??_C@_0BC@DIJMAMMI@EV_FOOTSTEP_METAL?$AA@ 40029804     bg_misc.obj
 0002:00000818       ??_C@_0M@HLKBOJPO@EV_FOOTSTEP?$AA@ 40029818     bg_misc.obj
 0002:00000824       ??_C@_0O@JHBAELOC@EV_CLIENTJOIN?$AA@ 40029824     bg_misc.obj
 0002:00000834       ??_C@_07JFMDDPHJ@EV_NONE?$AA@ 40029834     bg_misc.obj
 0002:0000083c       ??_C@_0BB@JKNLMJAB@icons?1iconh_borb?$AA@ 4002983c     bg_misc.obj
 0002:00000850       ??_C@_0BO@CMJEFEFK@models?1powerups?1orb?1b_orb?4md3?$AA@ 40029850     bg_misc.obj
 0002:00000870       ??_C@_0O@NHDOFNIN@item_bluecube?$AA@ 40029870     bg_misc.obj
 0002:00000880       ??_C@_0BB@PKDLFOID@icons?1iconh_rorb?$AA@ 40029880     bg_misc.obj
 0002:00000894       ??_C@_0BO@LDKNFLC@models?1powerups?1orb?1r_orb?4md3?$AA@ 40029894     bg_misc.obj
 0002:000008b4       ??_C@_0N@IDOEINCB@item_redcube?$AA@ 400298b4     bg_misc.obj
 0002:000008c4       ??_C@_0BF@OGGGKBMJ@icons?1iconf_neutral1?$AA@ 400298c4     bg_misc.obj
 0002:000008dc       ??_C@_0BI@FAJILPEC@models?1flags?1n_flag?4md3?$AA@ 400298dc     bg_misc.obj
 0002:000008f4       ??_C@_0BF@NFGOPKAE@team_CTF_neutralflag?$AA@ 400298f4     bg_misc.obj
 0002:0000090c       ??_C@_0BC@JDBDOHJA@gfx?1hud?1mpi_bflag?$AA@ 4002990c     bg_misc.obj
 0002:00000920       ??_C@_0BN@NABGHIBA@models?1flags?1b_flag_ysal?4md3?$AA@ 40029920     bg_misc.obj
 0002:00000940       ??_C@_0BI@FKICCNIF@models?1flags?1b_flag?4md3?$AA@ 40029940     bg_misc.obj
 0002:00000958       ??_C@_0BC@NLKCOFAB@team_CTF_blueflag?$AA@ 40029958     bg_misc.obj
 0002:0000096c       ??_C@_0BC@JAMFOFAL@gfx?1hud?1mpi_rflag?$AA@ 4002996c     bg_misc.obj
 0002:00000980       ??_C@_0BN@DGDBEGIO@models?1flags?1r_flag_ysal?4md3?$AA@ 40029980     bg_misc.obj
 0002:000009a0       ??_C@_0BI@PEHEOJEO@models?1flags?1r_flag?4md3?$AA@ 400299a0     bg_misc.obj
 0002:000009b8       ??_C@_0BB@JNMMCIHG@team_CTF_redflag?$AA@ 400299b8     bg_misc.obj
 0002:000009cc       ??_C@_0BE@IIEBFJHN@gfx?1mp?1ammo_rockets?$AA@ 400299cc     bg_misc.obj
 0002:000009e0       ??_C@_0BJ@BCBNBFGD@models?1items?1rockets?4md3?$AA@ 400299e0     bg_misc.obj
 0002:000009fc       ??_C@_0N@CLEPKBOE@ammo_rockets?$AA@ 400299fc     bg_misc.obj
 0002:00000a0c       ??_C@_0BL@IPLJCMOM@gfx?1mp?1ammo_metallic_bolts?$AA@ 40029a0c     bg_misc.obj
 0002:00000a28       ??_C@_0CA@POKDMLNN@models?1items?1metallic_bolts?4md3?$AA@ 40029a28     bg_misc.obj
 0002:00000a48       ??_C@_0BE@OMMGIMPN@ammo_metallic_bolts?$AA@ 40029a48     bg_misc.obj
 0002:00000a5c       ??_C@_0BH@KBMOAFPH@gfx?1mp?1ammo_power_cell?$AA@ 40029a5c     bg_misc.obj
 0002:00000a74       ??_C@_0BM@GDMBBHDI@models?1items?1power_cell?4md3?$AA@ 40029a74     bg_misc.obj
 0002:00000a90       ??_C@_0P@GBMHNHF@ammo_powercell?$AA@ 40029a90     bg_misc.obj
 0002:00000aa0       ??_C@_0BH@MFDMPLPM@gfx?1hud?1i_icon_battery?$AA@ 40029aa0     bg_misc.obj
 0002:00000ab8       ??_C@_0N@JHBODPOG@ammo_blaster?$AA@ 40029ab8     bg_misc.obj
 0002:00000ac8       ??_C@_0BN@BKBHFNLE@models?1items?1energy_cell?4md3?$AA@ 40029ac8     bg_misc.obj
 0002:00000ae8       ??_C@_0BO@EBHMDMMM@sound?1player?1pickupenergy?4wav?$AA@ 40029ae8     bg_misc.obj
 0002:00000b08       ??_C@_0L@GKDELMG@ammo_force?$AA@ 40029b08     bg_misc.obj
 0002:00000b14       ??_C@_0BA@EENDCNMH@weapon_turretwp?$AA@ 40029b14     bg_misc.obj
 0002:00000b24       ??_C@_0BA@PHDHEKAE@weapon_emplaced?$AA@ 40029b24     bg_misc.obj
 0002:00000b34       ??_C@_0BA@DBJEACCG@weapon_det_pack?$AA@ 40029b34     bg_misc.obj
 0002:00000b44       ??_C@_0BB@KBIODFKP@weapon_trip_mine?$AA@ 40029b44     bg_misc.obj
 0002:00000b58       ??_C@_0P@OJLAIIJD@weapon_thermal?$AA@ 40029b58     bg_misc.obj
 0002:00000b68       ??_C@_0BH@EBPPNJFB@gfx?1hud?1w_icon_detpack?$AA@ 40029b68     bg_misc.obj
 0002:00000b80       ??_C@_0CF@NONMEFGL@models?1weapons2?1detpack?1det_pack@ 40029b80     bg_misc.obj
 0002:00000ba8       ??_C@_0CH@KPFPNMHO@models?1weapons2?1detpack?1det_pack@ 40029ba8     bg_misc.obj
 0002:00000bd0       ??_C@_0CK@CDFEGPDE@models?1weapons2?1detpack?1det_pack@ 40029bd0     bg_misc.obj
 0002:00000bfc       ??_C@_0CI@CBJMGLP@models?1weapons2?1detpack?1det_pack@ 40029bfc     bg_misc.obj
 0002:00000c24       ??_C@_0N@CIBIOIEN@ammo_detpack?$AA@ 40029c24     bg_misc.obj
 0002:00000c34       ??_C@_0BI@HEJGEJJK@gfx?1hud?1w_icon_tripmine?$AA@ 40029c34     bg_misc.obj
 0002:00000c4c       ??_C@_0CK@BPCANEAG@models?1weapons2?1laser_trap?1laser@ 40029c4c     bg_misc.obj
 0002:00000c78       ??_C@_0CM@PIAEKLLK@models?1weapons2?1laser_trap?1laser@ 40029c78     bg_misc.obj
 0002:00000ca4       ??_C@_0CN@JOEHJLGB@models?1weapons2?1laser_trap?1laser@ 40029ca4     bg_misc.obj
 0002:00000cd4       ??_C@_0O@GAPOPCOE@ammo_tripmine?$AA@ 40029cd4     bg_misc.obj
 0002:00000ce4       ??_C@_0BH@OIMKPGPF@gfx?1hud?1w_icon_thermal?$AA@ 40029ce4     bg_misc.obj
 0002:00000cfc       ??_C@_0CE@PJGNCPEG@models?1weapons2?1thermal?1thermal?4@ 40029cfc     bg_misc.obj
 0002:00000d20       ??_C@_0CG@CCBCCJGG@models?1weapons2?1thermal?1thermal_@ 40029d20     bg_misc.obj
 0002:00000d48       ??_C@_0CH@BBPIBDBM@models?1weapons2?1thermal?1thermal_@ 40029d48     bg_misc.obj
 0002:00000d70       ??_C@_0N@IBCNMHOJ@ammo_thermal?$AA@ 40029d70     bg_misc.obj
 0002:00000d80       ??_C@_0BI@DDNFEDEJ@gfx?1hud?1w_icon_merrsonn?$AA@ 40029d80     bg_misc.obj
 0002:00000d98       ??_C@_0CI@CPIMDKHH@models?1weapons2?1merr_sonn?1merr_s@ 40029d98     bg_misc.obj
 0002:00000dc0       ??_C@_0CK@IJJCBMNO@models?1weapons2?1merr_sonn?1merr_s@ 40029dc0     bg_misc.obj
 0002:00000dec       ??_C@_0BH@CFPMIEJH@weapon_rocket_launcher?$AA@ 40029dec     bg_misc.obj
 0002:00000e04       ??_C@_0BJ@PJJJCKNF@gfx?1hud?1w_icon_flechette?$AA@ 40029e04     bg_misc.obj
 0002:00000e20       ??_C@_0CK@CNAHGKMH@models?1weapons2?1golan_arms?1golan@ 40029e20     bg_misc.obj
 0002:00000e4c       ??_C@_0CM@GDMOBBJ@models?1weapons2?1golan_arms?1golan@ 40029e4c     bg_misc.obj
 0002:00000e78       ??_C@_0BB@HNIDLLLF@weapon_flechette?$AA@ 40029e78     bg_misc.obj
 0002:00000e8c       ??_C@_0BF@BPEBOIFE@gfx?1hud?1w_icon_demp2?$AA@ 40029e8c     bg_misc.obj
 0002:00000ea4       ??_C@_0CA@PKACJAPI@models?1weapons2?1demp2?1demp2?4md3?$AA@ 40029ea4     bg_misc.obj
 0002:00000ec4       ??_C@_0CC@DIKAHCC@models?1weapons2?1demp2?1demp2_w?4gl@ 40029ec4     bg_misc.obj
 0002:00000ee8       ??_C@_0N@MBLCNHPF@weapon_demp2?$AA@ 40029ee8     bg_misc.obj
 0002:00000ef8       ??_C@_0BI@LOPKELCD@gfx?1hud?1w_icon_repeater?$AA@ 40029ef8     bg_misc.obj
 0002:00000f10       ??_C@_0DC@FAHGABEB@models?1weapons2?1heavy_repeater?1h@ 40029f10     bg_misc.obj
 0002:00000f44       ??_C@_0DE@LBIFBLHF@models?1weapons2?1heavy_repeater?1h@ 40029f44     bg_misc.obj
 0002:00000f78       ??_C@_0BA@BKCKPFDA@weapon_repeater?$AA@ 40029f78     bg_misc.obj
 0002:00000f88       ??_C@_0BJ@CHKJPOAH@gfx?1hud?1w_icon_bowcaster?$AA@ 40029f88     bg_misc.obj
 0002:00000fa4       ??_C@_0CI@MANABGJH@models?1weapons2?1bowcaster?1bowcas@ 40029fa4     bg_misc.obj
 0002:00000fcc       ??_C@_0CK@OFDEGMIN@models?1weapons2?1bowcaster?1bowcas@ 40029fcc     bg_misc.obj
 0002:00000ff8       ??_C@_0BB@KDLDGPGH@weapon_bowcaster?$AA@ 40029ff8     bg_misc.obj
 0002:0000100c       ??_C@_0BJ@MODONBMB@gfx?1hud?1w_icon_disruptor?$AA@ 4002a00c     bg_misc.obj
 0002:00001028       ??_C@_0CI@KNAINLEF@models?1weapons2?1disruptor?1disrup@ 4002a028     bg_misc.obj
 0002:00001050       ??_C@_0CK@LDOPBIMF@models?1weapons2?1disruptor?1disrup@ 4002a050     bg_misc.obj
 0002:0000107c       ??_C@_0BB@EKCEEAKB@weapon_disruptor?$AA@ 4002a07c     bg_misc.obj
 0002:00001090       ??_C@_0BH@POPJAOPK@gfx?1hud?1w_icon_blaster?$AA@ 4002a090     bg_misc.obj
 0002:000010a8       ??_C@_0CG@IJILPHPH@models?1weapons2?1blaster_r?1blaste@ 4002a0a8     bg_misc.obj
 0002:000010d0       ??_C@_0CI@FHMEJMJP@models?1weapons2?1blaster_r?1blaste@ 4002a0d0     bg_misc.obj
 0002:000010f8       ??_C@_0P@PPIDHAJM@weapon_blaster?$AA@ 4002a0f8     bg_misc.obj
 0002:00001108       ??_C@_0BF@DIPJPCFF@gfx?1hud?1w_icon_rifle?$AA@ 4002a108     bg_misc.obj
 0002:00001120       ??_C@_0CO@LMBDAEMJ@models?1weapons2?1briar_pistol?1bri@ 4002a120     bg_misc.obj
 0002:00001150       ??_C@_0DA@DCLFBBNM@models?1weapons2?1briar_pistol?1bri@ 4002a150     bg_misc.obj
 0002:00001180       ??_C@_0BE@NCEGAEHJ@weapon_bryar_pistol?$AA@ 4002a180     bg_misc.obj
 0002:00001194       ??_C@_0BK@DENAAEJI@gfx?1hud?1w_icon_lightsaber?$AA@ 4002a194     bg_misc.obj
 0002:000011b0       ??_C@_0CC@LELHOPDH@models?1weapons2?1saber?1saber_w?4md@ 4002a1b0     bg_misc.obj
 0002:000011d4       ??_C@_0CC@PBCBCODB@models?1weapons2?1saber?1saber_w?4gl@ 4002a1d4     bg_misc.obj
 0002:000011f8       ??_C@_0N@JIBGHNNO@weapon_saber?$AA@ 4002a1f8     bg_misc.obj
 0002:00001208       ??_C@_0BJ@JFPGMAAH@gfx?1hud?1w_icon_stunbaton?$AA@ 4002a208     bg_misc.obj
 0002:00001224       ??_C@_0CF@INEBKGM@models?1weapons2?1stun_baton?1baton@ 4002a224     bg_misc.obj
 0002:0000124c       ??_C@_0CH@BLMKNANE@models?1weapons2?1stun_baton?1baton@ 4002a24c     bg_misc.obj
 0002:00001274       ??_C@_0BC@EJEDEKOE@weapon_stun_baton?$AA@ 4002a274     bg_misc.obj
 0002:00001288       ??_C@_0BE@OEFHDNBF@gfx?1hud?1mpi_ysamari?$AA@ 4002a288     bg_misc.obj
 0002:0000129c       ??_C@_0CE@KCIGBHIN@models?1map_objects?1mp?1ysalimari?4@ 4002a29c     bg_misc.obj
 0002:000012c0       ??_C@_0BL@LEFKKCEP@sound?1player?1ysalimari?4wav?$AA@ 4002a2c0     bg_misc.obj
 0002:000012dc       ??_C@_0P@BMGIHJKN@item_ysalimari?$AA@ 4002a2dc     bg_misc.obj
 0002:000012ec       ??_C@_0BC@DEOLDKOL@gfx?1hud?1mpi_fboon?$AA@ 4002a2ec     bg_misc.obj
 0002:00001300       ??_C@_0CF@JPDLAKMB@models?1map_objects?1mp?1force_boon@ 4002a300     bg_misc.obj
 0002:00001328       ??_C@_0BG@GFIPDGIH@sound?1player?1boon?4wav?$AA@ 4002a328     bg_misc.obj
 0002:00001340       ??_C@_0BA@HALIIJIE@item_force_boon?$AA@ 4002a340     bg_misc.obj
 0002:00001350       ??_C@_0BE@NFHAGLDO@gfx?1hud?1mpi_dklight?$AA@ 4002a350     bg_misc.obj
 0002:00001364       ??_C@_0CL@IJLGBCPL@models?1map_objects?1mp?1dk_enlight@ 4002a364     bg_misc.obj
 0002:00001390       ??_C@_0BK@JFKBFAGB@item_force_enlighten_dark?$AA@ 4002a390     bg_misc.obj
 0002:000013ac       ??_C@_0BD@MPGMMGMB@gfx?1hud?1mpi_jlight?$AA@ 4002a3ac     bg_misc.obj
 0002:000013c0       ??_C@_0CN@DIMKCGKC@models?1map_objects?1mp?1jedi_enlig@ 4002a3c0     bg_misc.obj
 0002:000013f0       ??_C@_0BP@GFNNPIJO@sound?1player?1enlightenment?4wav?$AA@ 4002a3f0     bg_misc.obj
 0002:00001410       ??_C@_0BL@MINBJMDE@item_force_enlighten_light?$AA@ 4002a410     bg_misc.obj
 0002:0000142c       ??_C@_0BJ@JKBMBJCM@gfx?1hud?1i_icon_sentrygun?$AA@ 4002a42c     bg_misc.obj
 0002:00001448       ??_C@_0BH@PFALJFOC@models?1items?1psgun?4glm?$AA@ 4002a448     bg_misc.obj
 0002:00001460       ??_C@_0BA@HKIJMOIG@item_sentry_gun?$AA@ 4002a460     bg_misc.obj
 0002:00001470       ??_C@_0BE@PKBACEEE@gfx?1hud?1i_icon_zoom?$AA@ 4002a470     bg_misc.obj
 0002:00001484       ??_C@_0BM@HNHCIOH@models?1items?1binoculars?4md3?$AA@ 4002a484     bg_misc.obj
 0002:000014a0       ??_C@_0BA@KBLOKIGM@item_binoculars?$AA@ 4002a4a0     bg_misc.obj
 0002:000014b0       ??_C@_0BJ@OMHMNIHD@models?1items?1datapad?4md3?$AA@ 4002a4b0     bg_misc.obj
 0002:000014cc       ??_C@_0N@JIOKLPEP@item_datapad?$AA@ 4002a4cc     bg_misc.obj
 0002:000014dc       ??_C@_0BF@EDJNGJL@gfx?1hud?1i_icon_bacta?$AA@ 4002a4dc     bg_misc.obj
 0002:000014f4       ??_C@_0CA@COCFAODK@models?1map_objects?1mp?1bacta?4md3?$AA@ 4002a4f4     bg_misc.obj
 0002:00001514       ??_C@_0M@NLNOFNHL@item_medpac?$AA@ 4002a514     bg_misc.obj
 0002:00001520       ??_C@_0KM@PHBHELNF@sound?1weapons?1detpack?1stick?4wav?5@ 4002a520     bg_misc.obj
 0002:000015cc       ??_C@_0BK@OODCPGGP@gfx?1hud?1i_icon_shieldwall?$AA@ 4002a5cc     bg_misc.obj
 0002:000015e8       ??_C@_0CB@EAKHAPIK@models?1map_objects?1mp?1shield?4md3@ 4002a5e8     bg_misc.obj
 0002:0000160c       ??_C@_0M@IIGPMPLO@item_shield?$AA@ 4002a60c     bg_misc.obj
 0002:00001618       ??_C@_0BG@KANLKHLH@gfx?1hud?1i_icon_seeker?$AA@ 4002a618     bg_misc.obj
 0002:00001630       ??_C@_0BI@PEKMFNBP@models?1items?1remote?4md3?$AA@ 4002a630     bg_misc.obj
 0002:00001648       ??_C@_0BJ@IBMECGJM@sound?1weapons?1w_pkup?4wav?$AA@ 4002a648     bg_misc.obj
 0002:00001664       ??_C@_0M@CJHMIAK@item_seeker?$AA@ 4002a664     bg_misc.obj
 0002:00001670       ??_C@_0BG@PFBKDHHG@gfx?1hud?1i_icon_medkit?$AA@ 4002a670     bg_misc.obj
 0002:00001688       ??_C@_0CB@PABPOCJH@models?1map_objects?1mp?1medpac?4md3@ 4002a688     bg_misc.obj
 0002:000016ac       ??_C@_0BO@NIGJKPEE@sound?1player?1pickuphealth?4wav?$AA@ 4002a6ac     bg_misc.obj
 0002:000016cc       ??_C@_0BE@MEFMIHAD@item_medpak_instant?$AA@ 4002a6cc     bg_misc.obj
 0002:000016e0       ??_C@_0BE@JKBNBKPH@gfx?1mp?1large_shield?$AA@ 4002a6e0     bg_misc.obj
 0002:000016f4       ??_C@_0BO@JPJCNECL@models?1map_objects?1mp?1psd?4md3?$AA@ 4002a6f4     bg_misc.obj
 0002:00001714       ??_C@_0BI@HGJKGJEB@item_shield_lrg_instant?$AA@ 4002a714     bg_misc.obj
 0002:0000172c       ??_C@_0BE@GPDHMLPP@gfx?1mp?1small_shield?$AA@ 4002a72c     bg_misc.obj
 0002:00001740       ??_C@_0CB@FFNAAGJJ@models?1map_objects?1mp?1psd_sm?4md3@ 4002a740     bg_misc.obj
 0002:00001764       ??_C@_0BO@CHCEMMJK@sound?1player?1pickupshield?4wav?$AA@ 4002a764     bg_misc.obj
 0002:00001784       ??_C@_0BH@DINJFPKN@item_shield_sm_instant?$AA@ 4002a784     bg_misc.obj
 0002:0000179b       ??_C@_00CNPNBAHC@?$AA@     4002a79b     bg_misc.obj
 0002:0000179c       ??_C@_08FEEDNBKC@MASTERY7?$AA@ 4002a79c     bg_misc.obj
 0002:000017a8       ??_C@_08ENFIOAOD@MASTERY6?$AA@ 4002a7a8     bg_misc.obj
 0002:000017b4       ??_C@_08GGHFLDCA@MASTERY5?$AA@ 4002a7b4     bg_misc.obj
 0002:000017c0       ??_C@_08HPGOICGB@MASTERY4?$AA@ 4002a7c0     bg_misc.obj
 0002:000017cc       ??_C@_08DACPBEKG@MASTERY3?$AA@ 4002a7cc     bg_misc.obj
 0002:000017d8       ??_C@_08CJDECFOH@MASTERY2?$AA@ 4002a7d8     bg_misc.obj
 0002:000017e4       ??_C@_08CBJHGCE@MASTERY1?$AA@ 4002a7e4     bg_misc.obj
 0002:000017f0       ??_C@_08BLACEHGF@MASTERY0?$AA@ 4002a7f0     bg_misc.obj
 0002:000017fc       ??_C@_02IKAHHCAI@?$CFi?$AA@ 4002a7fc     bg_misc.obj
 0002:00001800       ??_C@_03COHLNFKP@?$CFi?9?$AA@ 4002a800     bg_misc.obj
 0002:00001804       ??_C@_0BH@HKHNICAI@7?91?9032330000000001333?$AA@ 4002a804     bg_misc.obj
 0002:0000181c       __real@43870000            4002a81c     bg_misc.obj
 0002:00001820       __real@42b40000            4002a820     bg_misc.obj
 0002:00001824       __real@43b40000            4002a824     bg_misc.obj
 0002:00001828       __real@404ca5dc0d03cf25    4002a828     bg_misc.obj
 0002:00001830       __real@00000000            4002a830     bg_misc.obj
 0002:00001834       ??_C@_0BH@MFGKJDLM@HoldableItem?5not?5found?$AA@ 4002a834     bg_misc.obj
 0002:0000184c       ??_C@_0CB@DEACFJO@Couldn?8t?5find?5item?5for?5weapon?5?$CFi@ 4002a84c     bg_misc.obj
 0002:00001870       ??_C@_0BM@NECGLAIF@BG_CanItemBeGrabbed?3?5IT_BAD?$AA@ 4002a870     bg_misc.obj
 0002:0000188c       ??_C@_0CI@MFONMA@BG_CanItemBeGrabbed?3?5index?5out?5o@ 4002a88c     bg_misc.obj
 0002:000018b4       ??_C@_0DM@PPIGHFEL@BG_EvaluateTrajectory?3?5?$FLCLIENTGA@ 4002a8b4     bg_misc.obj
 0002:000018f0       __real@4079000000000000    4002a8f0     bg_misc.obj
 0002:000018f8       __real@40c90fdb            4002a8f8     bg_misc.obj
 0002:00001900       __real@3f50624dd2f1a9fc    4002a900     bg_misc.obj
 0002:00001908       ??_C@_0CP@MCFPOIMF@BG_EvaluateTrajectoryDelta?3?5unkn@ 4002a908     bg_misc.obj
 0002:00001938       __real@44480000            4002a938     bg_misc.obj
 0002:00001940       __real@3fe0000000000000    4002a940     bg_misc.obj
 0002:00001948       ??_C@_0CJ@BDGLLNGN@BG_Alloc?3?5buffer?5exceeded?5tail?5?$CI@ 4002a948     bg_misc.obj
 0002:00001974       ??_C@_0DC@MINDOIGG@BG_AllocUnaligned?3?5buffer?5exceed@ 4002a974     bg_misc.obj
 0002:000019a8       ??_C@_0CN@JLGNNLBK@BG_TempAlloc?3?5buffer?5exceeded?5he@ 4002a9a8     bg_misc.obj
 0002:000019d8       ??_C@_0CO@IIHBNEDD@BG_TempFree?3?5tail?5greater?5than?5s@ 4002a9d8     bg_misc.obj
 0002:00001a08       __real@c2100000            4002aa08     bg_misc.obj
 0002:00001a0c       __real@42100000            4002aa0c     bg_misc.obj
 0002:00001a10       __real@c2480000            4002aa10     bg_misc.obj
 0002:00001a14       __real@42300000            4002aa14     bg_misc.obj
 0002:00001a18       __real@37800000            4002aa18     q_math.obj
 0002:00001a1c       __real@437f0000            4002aa1c     q_math.obj
 0002:00001a20       __real@3f800000            4002aa20     q_math.obj
 0002:00001a24       __real@3fc00000            4002aa24     q_math.obj
 0002:00001a28       __real@3f000000            4002aa28     q_math.obj
 0002:00001a2c       __real@c3340000            4002aa2c     q_math.obj
 0002:00001a30       __real@43340000            4002aa30     q_math.obj
 0002:00001a38       __real@3f76800000000000    4002aa38     q_math.obj
 0002:00001a40       __real@4066c16c16c16c17    4002aa40     q_math.obj
 0002:00001a48       __real@4076800000000000    4002aa48     q_math.obj
 0002:00001a50       __real@4066800000000000    4002aa50     q_math.obj
 0002:00001a58       __real@bf800000            4002aa58     q_math.obj
 0002:00001a5c       __real@3c8efa35            4002aa5c     q_math.obj
 0002:00001a60       __real@3ff0000000000000    4002aa60     q_math.obj
 0002:00001a68       __real@38000000            4002aa68     q_math.obj
 0002:00001a6c       __real@4f800000            4002aa6c     q_math.obj
 0002:00001a70       __real@3bb60b61            4002aa70     q_math.obj
 0002:00001a74       __real@40490fdb            4002aa74     q_math.obj
 0002:00001a78       ??_C@_0BI@KPLEBEJF@ERROR?3?5?$CFs?0?5line?5?$CFd?3?5?$CFs?6?$AA@ 4002aa78     q_shared.obj
 0002:00001a90       ??_C@_0BK@DJMKDJBL@WARNING?3?5?$CFs?0?5line?5?$CFd?3?5?$CFs?6?$AA@ 4002aa90     q_shared.obj
 0002:00001aac       ??_C@_0BA@FOCLBKAP@unexpected?5EOF?6?$AA@ 4002aaac     q_shared.obj
 0002:00001abc       ??_C@_0BJ@OLBOPICM@Q_strncpyz?3?5destsize?5?$DM?51?$AA@ 4002aabc     q_shared.obj
 0002:00001ad8       ??_C@_0BF@BJHHBLMD@Q_strncpyz?3?5NULL?5src?$AA@ 4002aad8     q_shared.obj
 0002:00001af0       ??_C@_0BG@EKAPNPCH@Q_strncpyz?3?5NULL?5dest?$AA@ 4002aaf0     q_shared.obj
 0002:00001b08       ??_C@_0BN@EFOOAHFL@Q_strcat?3?5already?5overflowed?$AA@ 4002ab08     q_shared.obj
 0002:00001b28       ??_C@_0CD@GIPJKOOD@Com_sprintf?3?5overflow?5of?5?$CFi?5in?5?$CF@ 4002ab28     q_shared.obj
 0002:00001b4c       ??_C@_0CC@GMEFDOKA@Com_sprintf?3?5overflowed?5bigbuffe@ 4002ab4c     q_shared.obj
 0002:00001b70       ??_C@_0CG@FLHABLN@Info_ValueForKey?3?5oversize?5infos@ 4002ab70     q_shared.obj
 0002:00001b98       ??_C@_0CE@HMPLGKDK@Info_RemoveKey?3?5oversize?5infostr@ 4002ab98     q_shared.obj
 0002:00001bbc       ??_C@_0CI@CPIEPBLO@Info_RemoveKey_Big?3?5oversize?5inf@ 4002abbc     q_shared.obj
 0002:00001be4       ??_C@_0CD@JIDDAEOO@Can?8t?5use?5keys?5or?5values?5with?5a?5@ 4002abe4     q_shared.obj
 0002:00001c08       ??_C@_0CL@JCFAGLFD@Can?8t?5use?5keys?5or?5values?5with?5a?5@ 4002ac08     q_shared.obj
 0002:00001c34       ??_C@_0CD@MGFMEBLE@Can?8t?5use?5keys?5or?5values?5with?5a?5@ 4002ac34     q_shared.obj
 0002:00001c58       ??_C@_0BN@CAOBGKLE@Info?5string?5length?5exceeded?6?$AA@ 4002ac58     q_shared.obj
 0002:00001c78       ??_C@_06NELKLDPM@?2?$CFs?2?$CFs?$AA@ 4002ac78     q_shared.obj
 0002:00001c80       ??_C@_0CJ@CEEBDGNA@Info_SetValueForKey?3?5oversize?5in@ 4002ac80     q_shared.obj
 0002:00001cac       ??_C@_0CB@EMDOOGBI@BIG?5Info?5string?5length?5exceeded?6@ 4002acac     q_shared.obj
 0002:00001cd0       ??_C@_04HDOCAJNK@?$CFs?$CFs?$AA@ 4002acd0     q_shared.obj
 0002:00001cd8       ??_C@_02DKCKIIND@?$CFs?$AA@ 4002acd8     q_shared.obj
 0002:00001cdc       ??_C@_0BF@BFEJCABG@MatchToken?3?5?$CFs?5?$CB?$DN?5?$CFs?$AA@ 4002acdc     q_shared.obj
 0002:00001cf4       ??_C@_01PKGAHCOL@?$CJ?$AA@ 4002acf4     q_shared.obj
 0002:00001cf8       ??_C@_01ODHLEDKK@?$CI?$AA@ 4002acf8     q_shared.obj
 0002:00001cfc       ??_C@_03LFLJCHJK@d1?6?$AA@ 4002acfc     ui_atoms.obj
 0002:00001d00       ??_C@_0BC@CDFKGPLF@ui_scoreCaptures2?$AA@ 4002ad00     ui_atoms.obj
 0002:00001d14       ??_C@_0O@HCNFDDJ@ui_scoreTime2?$AA@ 4002ad14     ui_atoms.obj
 0002:00001d24       ??_C@_0BG@GJEMFEOF@ui_scoreShutoutBonus2?$AA@ 4002ad24     ui_atoms.obj
 0002:00001d3c       ??_C@_0BE@CJNDOHKG@ui_scoreSkillBonus2?$AA@ 4002ad3c     ui_atoms.obj
 0002:00001d50       ??_C@_0BD@NOLDEPJB@ui_scoreTimeBonus2?$AA@ 4002ad50     ui_atoms.obj
 0002:00001d64       ??_C@_0O@FCBENJNC@ui_scoreBase2?$AA@ 4002ad64     ui_atoms.obj
 0002:00001d74       ??_C@_0O@IGBIFADI@ui_scoreTeam2?$AA@ 4002ad74     ui_atoms.obj
 0002:00001d84       ??_C@_0BB@PPJKIJPL@ui_scorePerfect2?$AA@ 4002ad84     ui_atoms.obj
 0002:00001d98       ??_C@_0P@ILDOILB@ui_scoreScore2?$AA@ 4002ad98     ui_atoms.obj
 0002:00001da8       ??_C@_0BD@DCEJOFCC@ui_scoreGauntlets2?$AA@ 4002ada8     ui_atoms.obj
 0002:00001dbc       ??_C@_0BB@IOPFEFIF@ui_scoreAssists2?$AA@ 4002adbc     ui_atoms.obj
 0002:00001dd0       ??_C@_0BB@PEPLEPNI@ui_scoreDefends2?$AA@ 4002add0     ui_atoms.obj
 0002:00001de4       ??_C@_0BE@MAMGCNCA@ui_scoreExcellents2?$AA@ 4002ade4     ui_atoms.obj
 0002:00001df8       ??_C@_0BF@EEGABJJM@ui_scoreImpressives2?$AA@ 4002adf8     ui_atoms.obj
 0002:00001e10       ??_C@_0BC@EPKDKNJC@ui_scoreAccuracy2?$AA@ 4002ae10     ui_atoms.obj
 0002:00001e24       ??_C@_0BB@ELNPFLHH@ui_scoreCaptures?$AA@ 4002ae24     ui_atoms.obj
 0002:00001e38       ??_C@_0N@IIEAHBIE@ui_scoreTime?$AA@ 4002ae38     ui_atoms.obj
 0002:00001e48       ??_C@_09INMNFPPH@?$CF02i?3?$CF02i?$AA@ 4002ae48     ui_atoms.obj
 0002:00001e54       ??_C@_0BF@ICEBEKBD@ui_scoreShutoutBonus?$AA@ 4002ae54     ui_atoms.obj
 0002:00001e6c       ??_C@_0BD@MCPJGPPJ@ui_scoreSkillBonus?$AA@ 4002ae6c     ui_atoms.obj
 0002:00001e80       ??_C@_0BC@MAAGAFGN@ui_scoreTimeBonus?$AA@ 4002ae80     ui_atoms.obj
 0002:00001e94       ??_C@_0N@LEOMLFDD@ui_scoreBase?$AA@ 4002ae94     ui_atoms.obj
 0002:00001ea4       ??_C@_0N@DFFLNFA@ui_scoreTeam?$AA@ 4002aea4     ui_atoms.obj
 0002:00001eb4       ??_C@_08HANDPKCB@?$CFi?5to?5?$CFi?$AA@ 4002aeb4     ui_atoms.obj
 0002:00001ec0       ??_C@_0BA@FNDENKFJ@ui_scorePerfect?$AA@ 4002aec0     ui_atoms.obj
 0002:00001ed0       ??_C@_0O@BGACMNMN@ui_scoreScore?$AA@ 4002aed0     ui_atoms.obj
 0002:00001ee0       ??_C@_0BC@FJFOJAKM@ui_scoreGauntlets?$AA@ 4002aee0     ui_atoms.obj
 0002:00001ef4       ??_C@_0BA@IDHNCNBN@ui_scoreAssists?$AA@ 4002aef4     ui_atoms.obj
 0002:00001f04       ??_C@_0BA@OHCNNIJG@ui_scoreDefends?$AA@ 4002af04     ui_atoms.obj
 0002:00001f14       ??_C@_0BD@LEJGNMPP@ui_scoreExcellents?$AA@ 4002af14     ui_atoms.obj
 0002:00001f28       ??_C@_0BE@KMODLOOM@ui_scoreImpressives?$AA@ 4002af28     ui_atoms.obj
 0002:00001f3c       ??_C@_0BB@LEIIJBCD@ui_scoreAccuracy?$AA@ 4002af3c     ui_atoms.obj
 0002:00001f50       ??_C@_04KAKHEEPD@?$CFi?$CF?$CF?$AA@ 4002af50     ui_atoms.obj
 0002:00001f58       ??_C@_0BC@CFMHHAMH@demos?1?$CFs_?$CFd?4dm_?$CFd?$AA@ 4002af58     ui_atoms.obj
 0002:00001f6c       ??_C@_08FCFPNNHF@protocol?$AA@ 4002af6c     ui_atoms.obj
 0002:00001f78       ??_C@_0BB@MNGNFDI@games?1?$CFs_?$CFi?4game?$AA@ 4002af78     ui_atoms.obj
 0002:00001f8c       ??_C@_08PDFKJPJM@games?1?$CFs?$AA@ 4002af8c     ui_atoms.obj
 0002:00001f98       ??_C@_05HMNMDDGD@games?$AA@ 4002af98     ui_atoms.obj
 0002:00001fa0       ??_C@_04MJNAPEEI@game?$AA@ 4002afa0     ui_atoms.obj
 0002:00001fa8       ??_C@_09LDNKBKJF@model?5?$CFs?6?$AA@ 4002afa8     ui_atoms.obj
 0002:00001fb4       ??_C@_0P@IEOFAMLI@g_friendlyFire?$AA@ 4002afb4     ui_atoms.obj
 0002:00001fc4       ??_C@_0BA@PHMBDCHA@ui_friendlyFire?$AA@ 4002afc4     ui_atoms.obj
 0002:00001fd4       ??_C@_07CAKOHKGL@sv_pure?$AA@ 4002afd4     ui_atoms.obj
 0002:00001fdc       ??_C@_07HHFHJPML@ui_pure?$AA@ 4002afdc     ui_atoms.obj
 0002:00001fe4       ??_C@_08LPHDKCKM@g_Warmup?$AA@ 4002afe4     ui_atoms.obj
 0002:00001ff0       ??_C@_09GCFCELDK@ui_Warmup?$AA@ 4002aff0     ui_atoms.obj
 0002:00001ffc       ??_C@_0L@LPENDGCI@g_doWarmup?$AA@ 4002affc     ui_atoms.obj
 0002:00002008       ??_C@_0M@EBIAJMEJ@ui_doWarmup?$AA@ 4002b008     ui_atoms.obj
 0002:00002014       ??_C@_0N@FOINMAON@cg_drawTimer?$AA@ 4002b014     ui_atoms.obj
 0002:00002024       ??_C@_0N@KDFOGKPE@ui_drawTimer?$AA@ 4002b024     ui_atoms.obj
 0002:00002034       ??_C@_0P@CFJBJECC@duel_fraglimit?$AA@ 4002b034     ui_atoms.obj
 0002:00002044       ??_C@_0BB@OHGHBGMG@ui_saveDuelLimit?$AA@ 4002b044     ui_atoms.obj
 0002:00002058       ??_C@_09GCIEGDDN@fraglimit?$AA@ 4002b058     ui_atoms.obj
 0002:00002064       ??_C@_0BB@BLOPBDC@ui_saveFragLimit?$AA@ 4002b064     ui_atoms.obj
 0002:00002078       ??_C@_0N@FCAHJCDA@capturelimit?$AA@ 4002b078     ui_atoms.obj
 0002:00002088       ??_C@_0BE@FJHNGDNB@ui_saveCaptureLimit?$AA@ 4002b088     ui_atoms.obj
 0002:0000209c       ??_C@_09OGEBNCBM@g_spSkill?$AA@ 4002b09c     ui_atoms.obj
 0002:000020a8       __real@3a83126f            4002b0a8     ui_atoms.obj
 0002:000020ac       ??_C@_0BC@FKLDKIMG@ui_matchStartTime?$AA@ 4002b0ac     ui_atoms.obj
 0002:000020c0       ??_C@_0L@GFINLBEC@g_gametype?$AA@ 4002b0c0     ui_atoms.obj
 0002:000020cc       ??_C@_07KMNEBLH@mapname?$AA@ 4002b0cc     ui_atoms.obj
 0002:000020d4       ??_C@_08HOPFIAK@ui_cdkey?$AA@ 4002b0d4     ui_atoms.obj
 0002:000020e0       ??_C@_0O@DJEGGJPO@ui_teamOrders?$AA@ 4002b0e0     ui_atoms.obj
 0002:000020f0       ??_C@_08OEBEDBJL@ui_cache?$AA@ 4002b0f0     ui_atoms.obj
 0002:000020fc       ??_C@_08FNKAODFI@postgame?$AA@ 4002b0fc     ui_atoms.obj
 0002:00002108       ??_C@_0M@BLBAMFDN@remapShader?$AA@ 4002b108     ui_atoms.obj
 0002:00002114       ??_C@_09DNECJBKD@developer?$AA@ 4002b114     ui_atoms.obj
 0002:00002120       ??_C@_0M@OCOELHNF@ui_openmenu?$AA@ 4002b120     ui_atoms.obj
 0002:0000212c       ??_C@_07OKJIHONL@ui_load?$AA@ 4002b12c     ui_atoms.obj
 0002:00002134       ??_C@_09NFKMFHHN@ui_report?$AA@ 4002b134     ui_atoms.obj
 0002:00002140       ??_C@_07IANFCHLD@ui_test?$AA@ 4002b140     ui_atoms.obj
 0002:00002148       ??_C@_0BG@LGBCBLLK@menu?1art?1saber_purple?$AA@ 4002b148     ui_force.obj
 0002:00002160       ??_C@_0BE@MGJKKEPD@menu?1art?1saber_blue?$AA@ 4002b160     ui_force.obj
 0002:00002174       ??_C@_0BF@IJAOE@menu?1art?1saber_green?$AA@ 4002b174     ui_force.obj
 0002:0000218c       ??_C@_0BG@JPPBFDLM@menu?1art?1saber_yellow?$AA@ 4002b18c     ui_force.obj
 0002:000021a4       ??_C@_0BG@KBFCOFDK@menu?1art?1saber_orange?$AA@ 4002b1a4     ui_force.obj
 0002:000021bc       ??_C@_0BD@KHLEJLON@menu?1art?1saber_red?$AA@ 4002b1bc     ui_force.obj
 0002:000021d0       ??_C@_0L@BHNOMLBP@forcestar8?$AA@ 4002b1d0     ui_force.obj
 0002:000021dc       ??_C@_0N@HOHACNJP@forcecircle8?$AA@ 4002b1dc     ui_force.obj
 0002:000021ec       ??_C@_0L@JAEGNHNA@forcestar7?$AA@ 4002b1ec     ui_force.obj
 0002:000021f8       ??_C@_0N@PJOIDBFA@forcecircle7?$AA@ 4002b1f8     ui_force.obj
 0002:00002208       ??_C@_0L@IJFNOGJB@forcestar6?$AA@ 4002b208     ui_force.obj
 0002:00002214       ??_C@_0N@OAPDAABB@forcecircle6?$AA@ 4002b214     ui_force.obj
 0002:00002224       ??_C@_0L@KCHALFFC@forcestar5?$AA@ 4002b224     ui_force.obj
 0002:00002230       ??_C@_0N@MLNOFDNC@forcecircle5?$AA@ 4002b230     ui_force.obj
 0002:00002240       ??_C@_0L@LLGLIEBD@forcestar4?$AA@ 4002b240     ui_force.obj
 0002:0000224c       ??_C@_0N@NCMFGCJD@forcecircle4?$AA@ 4002b24c     ui_force.obj
 0002:0000225c       ??_C@_0L@PECKBCNE@forcestar3?$AA@ 4002b25c     ui_force.obj
 0002:00002268       ??_C@_0N@JNIEPEFE@forcecircle3?$AA@ 4002b268     ui_force.obj
 0002:00002278       ??_C@_0L@ONDBCDJF@forcestar2?$AA@ 4002b278     ui_force.obj
 0002:00002284       ??_C@_0N@IEJPMFBF@forcecircle2?$AA@ 4002b284     ui_force.obj
 0002:00002294       ??_C@_0L@MGBMHAFG@forcestar1?$AA@ 4002b294     ui_force.obj
 0002:000022a0       ??_C@_0N@KPLCJGNG@forcecircle1?$AA@ 4002b2a0     ui_force.obj
 0002:000022b0       ??_C@_0L@NPAHEBBH@forcestar0?$AA@ 4002b2b0     ui_force.obj
 0002:000022bc       __real@40c00000            4002b2bc     ui_force.obj
 0002:000022c0       ??_C@_0O@KOFFGFKE@forcechanged?6?$AA@ 4002b2c0     ui_force.obj
 0002:000022d0       ??_C@_0BD@EDIIFELG@forcechanged?5?$CC?$CFs?$CC?6?$AA@ 4002b2d0     ui_force.obj
 0002:000022e4       ??_C@_0M@IOJHBENM@forcepowers?$AA@ 4002b2e4     ui_force.obj
 0002:000022f0       ??_C@_0CL@NBJPICGM@?$CFi?9?$CFi?9?$CFi?$CFi?$CFi?$CFi?$CFi?$CFi?$CFi?$CFi?$CFi?$CFi?$CFi?$CFi?$CFi@ 4002b2f0     ui_force.obj
 0002:0000231c       ??_C@_0CO@EONCPKBJ@You?5did?5not?5provide?5a?5name?5for?5t@ 4002b31c     ui_force.obj
 0002:0000234c       ??_C@_0BJ@DHONGHAN@Template?5saved?5as?5?$CC?$CFs?$CC?4?6?$AA@ 4002b34c     ui_force.obj
 0002:00002368       ??_C@_06BJHMHGNB@?$CFi?9?$CFi?9?$AA@ 4002b368     ui_force.obj
 0002:00002370       ??_C@_0DM@BFNMJPFC@There?5was?5an?5error?5writing?5the?5t@ 4002b370     ui_force.obj
 0002:000023ac       ??_C@_0BF@EMDAAAIC@forcecfg?1dark?1?$CFs?4fcf?$AA@ 4002b3ac     ui_force.obj
 0002:000023c4       ??_C@_0BG@JAIAENKC@forcecfg?1light?1?$CFs?4fcf?$AA@ 4002b3c4     ui_force.obj
 0002:000023dc       ??_C@_0L@ILFFGINB@ui_SaveFCF?$AA@ 4002b3dc     ui_force.obj
 0002:000023e8       ??_C@_07MJJMKCLG@nosaber?$AA@ 4002b3e8     ui_force.obj
 0002:000023f0       ??_C@_0M@GNPPPOC@effectfield?$AA@ 4002b3f0     ui_force.obj
 0002:000023fc       ??_C@_0M@DDBKIDMA@effectentry?$AA@ 4002b3fc     ui_force.obj
 0002:00002408       ??_C@_0BB@FNLMOMKO@setfp_saberthrow?$AA@ 4002b408     ui_force.obj
 0002:0000241c       ??_C@_0BC@CMIFKGJ@setfp_saberdefend?$AA@ 4002b41c     ui_force.obj
 0002:00002430       ??_C@_0BD@JLILJGFF@ingame_playerforce?$AA@ 4002b430     ui_force.obj
 0002:00002444       ??_C@_09CPHDILCP@ui_myteam?$AA@ 4002b444     ui_force.obj
 0002:00002450       ??_C@_0BC@PJKMCDAC@g_forceBasedTeams?$AA@ 4002b450     ui_force.obj
 0002:00002464       ??_C@_0P@CHCANPBO@g_maxForceRank?$AA@ 4002b464     ui_force.obj
 0002:00002474       ??_C@_0BE@IKMJLADL@Max?5infos?5exceeded?6?$AA@ 4002b474     ui_gameinfo.obj
 0002:00002488       ??_C@_0BI@BMEIBPEH@Missing?5?$HL?5in?5info?5file?6?$AA@ 4002b488     ui_gameinfo.obj
 0002:000024a0       ??_C@_02DPKJAMEF@?$CFd?$AA@ 4002b4a0     ui_gameinfo.obj
 0002:000024a4       ??_C@_0BN@HAJDHEGK@Unexpected?5end?5of?5info?5file?6?$AA@ 4002b4a4     ui_gameinfo.obj
 0002:000024c4       ??_C@_06CBHGEMFM@?$DMNULL?$DO?$AA@ 4002b4c4     ui_gameinfo.obj
 0002:000024cc       ??_C@_01CELHOKLL@?$HN?$AA@ 4002b4cc     ui_gameinfo.obj
 0002:000024d0       ??_C@_01HCONENDN@?$HL?$AA@ 4002b4d0     ui_gameinfo.obj
 0002:000024d4       ??_C@_0CO@OKDDPLPD@?$FO1file?5too?5large?3?5?$CFs?5is?5?$CFi?0?5max?5@ 4002b4d4     ui_gameinfo.obj
 0002:00002504       ??_C@_0BG@BJEIGKLP@?$FO1file?5not?5found?3?5?$CFs?6?$AA@ 4002b504     ui_gameinfo.obj
 0002:0000251c       ??_C@_03FKCNHKDN@cty?$AA@  4002b51c     ui_gameinfo.obj
 0002:00002520       ??_C@_03JHHHHEKD@ctf?$AA@  4002b520     ui_gameinfo.obj
 0002:00002524       ??_C@_04DFELIFNI@saga?$AA@ 4002b524     ui_gameinfo.obj
 0002:0000252c       ??_C@_04IONKKEKB@duel?$AA@ 4002b52c     ui_gameinfo.obj
 0002:00002534       ??_C@_0L@PPBFGKBC@jedimaster?$AA@ 4002b534     ui_gameinfo.obj
 0002:00002540       ??_C@_08OFGDEOFK@holocron?$AA@ 4002b540     ui_gameinfo.obj
 0002:0000254c       ??_C@_03PAEKGFEI@ffa?$AA@  4002b54c     ui_gameinfo.obj
 0002:00002550       ??_C@_04GPMDFGEJ@type?$AA@ 4002b550     ui_gameinfo.obj
 0002:00002558       ??_C@_0O@OBEFLHGN@levelshots?1?$CFs?$AA@ 4002b558     ui_gameinfo.obj
 0002:00002568       ??_C@_08JJAPLNHH@longname?$AA@ 4002b568     ui_gameinfo.obj
 0002:00002574       ??_C@_03HBNNNHNM@map?$AA@  4002b574     ui_gameinfo.obj
 0002:00002578       ??_C@_0DJ@KGDBIAGM@?$FO3WARNING?3?5not?5anough?5memory?5in?5@ 4002b578     ui_gameinfo.obj
 0002:000025b4       ??_C@_0BC@MIFKOHOA@?$CFi?5arenas?5parsed?6?$AA@ 4002b5b4     ui_gameinfo.obj
 0002:000025c8       ??_C@_08IDJEBFOJ@scripts?1?$AA@ 4002b5c8     ui_gameinfo.obj
 0002:000025d4       ??_C@_07OMEBBDEO@scripts?$AA@ 4002b5d4     ui_gameinfo.obj
 0002:000025dc       ??_C@_06IPPMLGON@?4arena?$AA@ 4002b5dc     ui_gameinfo.obj
 0002:000025e4       ??_C@_0BD@KEINBKFE@scripts?1arenas?4txt?$AA@ 4002b5e4     ui_gameinfo.obj
 0002:000025f8       ??_C@_0N@BFDKEKMB@g_arenasFile?$AA@ 4002b5f8     ui_gameinfo.obj
 0002:00002608       ??_C@_09IAMOOHNI@?$EASTOPHERE?$AA@ 4002b608     ui_gameinfo.obj
 0002:00002614       ??_C@_0BA@KCNHFFOD@?$CFi?5bots?5parsed?6?$AA@ 4002b614     ui_gameinfo.obj
 0002:00002624       ??_C@_04NONLJGOA@?4bot?$AA@ 4002b624     ui_gameinfo.obj
 0002:0000262c       ??_C@_0BC@BOHIEOJI@botfiles?1bots?4txt?$AA@ 4002b62c     ui_gameinfo.obj
 0002:00002640       ??_C@_0L@IDJNDIMJ@g_botsFile?$AA@ 4002b640     ui_gameinfo.obj
 0002:0000264c       ??_C@_0BK@DFMGEDHJ@?$FO1Invalid?5bot?5number?3?5?$CFi?6?$AA@ 4002b64c     ui_gameinfo.obj
 0002:00002668       ??_C@_04MEMAJGDJ@name?$AA@ 4002b668     ui_gameinfo.obj
 0002:00002670       ??_C@_04FJIOCDAK@Kyle?$AA@ 4002b670     ui_gameinfo.obj
 0002:00002678       ??_C@_07CNNBJDHA@english?$AA@ 4002b678     ui_main.obj
 0002:00002680       ??_C@_0L@DEHDMAHF@s_language?$AA@ 4002b680     ui_main.obj
 0002:0000268c       ??_C@_04CBNKEHLG@7000?$AA@ 4002b68c     ui_main.obj
 0002:00002694       ??_C@_0BH@CNJFJKJI@ui_serverStatusTimeOut?$AA@ 4002b694     ui_main.obj
 0002:000026ac       ??_C@_08HAMOJLDA@g_warmup?$AA@ 4002b6ac     ui_main.obj
 0002:000026b8       ??_C@_0BA@OHINOCDN@ui_recordSPDemo?$AA@ 4002b6b8     ui_main.obj
 0002:000026c8       ??_C@_0L@POHNIOFC@ui_q3model?$AA@ 4002b6c8     ui_main.obj
 0002:000026d4       ??_C@_0O@GPABEMKP@ui_findPlayer?$AA@ 4002b6d4     ui_main.obj
 0002:000026e4       ??_C@_03KHGJEAFP@0?44?$AA@ 4002b6e4     ui_main.obj
 0002:000026e8       ??_C@_0L@LPOJJAMJ@ui_bigFont?$AA@ 4002b6e8     ui_main.obj
 0002:000026f4       ??_C@_04FNMPJLCB@0?425?$AA@ 4002b6f4     ui_main.obj
 0002:000026fc       ??_C@_0N@CLDCAIAI@ui_smallFont?$AA@ 4002b6fc     ui_main.obj
 0002:0000270c       ??_C@_0BA@FGIINJDJ@ui_captureLimit?$AA@ 4002b70c     ui_main.obj
 0002:0000271c       ??_C@_0N@HALAPIBD@ui_fragLimit?$AA@ 4002b71c     ui_main.obj
 0002:0000272c       ??_C@_05IPNNCKNB@00?300?$AA@ 4002b72c     ui_main.obj
 0002:00002734       ??_C@_06EFEAFBKM@0?5to?50?$AA@ 4002b734     ui_main.obj
 0002:0000273c       ??_C@_0BG@JDIGCOKJ@ui_singlePlayerActive?$AA@ 4002b73c     ui_main.obj
 0002:00002754       ??_C@_0BH@KBDKNJIJ@ui_lastServerRefresh_3?$AA@ 4002b754     ui_main.obj
 0002:0000276c       ??_C@_0BH@LICBOIMI@ui_lastServerRefresh_2?$AA@ 4002b76c     ui_main.obj
 0002:00002784       ??_C@_0BH@JDAMLLAL@ui_lastServerRefresh_1?$AA@ 4002b784     ui_main.obj
 0002:0000279c       ??_C@_0BH@IKBHIKEK@ui_lastServerRefresh_0?$AA@ 4002b79c     ui_main.obj
 0002:000027b4       ??_C@_0BG@ICIOFDPB@cg_selectedPlayerName?$AA@ 4002b7b4     ui_main.obj
 0002:000027cc       ??_C@_0BC@HCNILCAE@cg_selectedPlayer?$AA@ 4002b7cc     ui_main.obj
 0002:000027e0       ??_C@_0BD@NCLFMBGL@ui_currentOpponent?$AA@ 4002b7e0     ui_main.obj
 0002:000027f4       ??_C@_0M@BFKLKEBI@ui_mapIndex?$AA@ 4002b7f4     ui_main.obj
 0002:00002800       ??_C@_0BB@GFAHJNNM@ui_currentNetMap?$AA@ 4002b800     ui_main.obj
 0002:00002814       ??_C@_0O@IGABJOOG@ui_currentMap?$AA@ 4002b814     ui_main.obj
 0002:00002824       ??_C@_0P@OGEPOBCA@ui_currentTier?$AA@ 4002b824     ui_main.obj
 0002:00002834       ??_C@_0BC@LIKJLLDM@ui?1jk2mpmenus?4txt?$AA@ 4002b834     ui_main.obj
 0002:00002848       ??_C@_0P@JHKJFGCC@ui_menuFilesMP?$AA@ 4002b848     ui_main.obj
 0002:00002858       ??_C@_0N@LBKNMFEF@ui_netSource?$AA@ 4002b858     ui_main.obj
 0002:00002868       ??_C@_0N@EOPNJANO@ui_blueteam8?$AA@ 4002b868     ui_main.obj
 0002:00002878       ??_C@_0N@MJGFIMBB@ui_blueteam7?$AA@ 4002b878     ui_main.obj
 0002:00002888       ??_C@_0N@NAHOLNFA@ui_blueteam6?$AA@ 4002b888     ui_main.obj
 0002:00002898       ??_C@_0N@PLFDOOJD@ui_blueteam5?$AA@ 4002b898     ui_main.obj
 0002:000028a8       ??_C@_0N@OCEINPNC@ui_blueteam4?$AA@ 4002b8a8     ui_main.obj
 0002:000028b8       ??_C@_0N@KNAJEJBF@ui_blueteam3?$AA@ 4002b8b8     ui_main.obj
 0002:000028c8       ??_C@_0N@LEBCHIFE@ui_blueteam2?$AA@ 4002b8c8     ui_main.obj
 0002:000028d8       ??_C@_0N@JPDPCLJH@ui_blueteam1?$AA@ 4002b8d8     ui_main.obj
 0002:000028e8       ??_C@_0M@HHIJFEHC@ui_redteam8?$AA@ 4002b8e8     ui_main.obj
 0002:000028f4       ??_C@_0M@PABBEILN@ui_redteam7?$AA@ 4002b8f4     ui_main.obj
 0002:00002900       ??_C@_0M@OJAKHJPM@ui_redteam6?$AA@ 4002b900     ui_main.obj
 0002:0000290c       ??_C@_0M@MCCHCKDP@ui_redteam5?$AA@ 4002b90c     ui_main.obj
 0002:00002918       ??_C@_0M@NLDMBLHO@ui_redteam4?$AA@ 4002b918     ui_main.obj
 0002:00002924       ??_C@_0M@JEHNINLJ@ui_redteam3?$AA@ 4002b924     ui_main.obj
 0002:00002930       ??_C@_0M@INGGLMPI@ui_redteam2?$AA@ 4002b930     ui_main.obj
 0002:0000293c       ??_C@_0M@KGELOPDL@ui_redteam1?$AA@ 4002b93c     ui_main.obj
 0002:00002948       ??_C@_01EKENIIDA@3?$AA@    4002b948     ui_main.obj
 0002:0000294c       ??_C@_0BF@HAOCHBD@ui_actualNetGametype?$AA@ 4002b94c     ui_main.obj
 0002:00002964       ??_C@_0P@EMDAIJBA@ui_netGametype?$AA@ 4002b964     ui_main.obj
 0002:00002974       ??_C@_0BA@DLIBAHLB@ui_joinGametype?$AA@ 4002b974     ui_main.obj
 0002:00002984       ??_C@_0M@JLEABLCD@ui_gametype?$AA@ 4002b984     ui_main.obj
 0002:00002990       ??_C@_0N@MHIHNKN@ui_dedicated?$AA@ 4002b990     ui_main.obj
 0002:000029a0       ??_C@_0M@NBBBDCHM@ui_blueteam?$AA@ 4002b9a0     ui_main.obj
 0002:000029ac       ??_C@_0L@KGGGFMJP@ui_redteam?$AA@ 4002b9ac     ui_main.obj
 0002:000029b8       ??_C@_0BF@LBOIACLJ@ui_forcePowerDisable?$AA@ 4002b9b8     ui_main.obj
 0002:000029d0       ??_C@_0N@KGLGFCPL@ui_freeSaber?$AA@ 4002b9d0     ui_main.obj
 0002:000029e0       ??_C@_0O@LNLHFCCF@ui_rankChange?$AA@ 4002b9e0     ui_main.obj
 0002:000029f0       ??_C@_09CBAPOGED@Rebellion?$AA@ 4002b9f0     ui_main.obj
 0002:000029fc       ??_C@_0BA@FLODEJIK@ui_opponentName?$AA@ 4002b9fc     ui_main.obj
 0002:00002a0c       ??_C@_06DAMJBNEB@Empire?$AA@ 4002ba0c     ui_main.obj
 0002:00002a14       ??_C@_0M@MLHGGMAA@ui_teamName?$AA@ 4002ba14     ui_main.obj
 0002:00002a20       ??_C@_0P@GEBMJNJK@ui_initialized?$AA@ 4002ba20     ui_main.obj
 0002:00002a30       ??_C@_08JCOFJCCH@ui_debug?$AA@ 4002ba30     ui_main.obj
 0002:00002a3c       ??_C@_0BA@LAMCFMKH@ui_cdkeychecked?$AA@ 4002ba3c     ui_main.obj
 0002:00002a4c       ??_C@_08NCAOBLLI@server16?$AA@ 4002ba4c     ui_main.obj
 0002:00002a58       ??_C@_08PJCDEIHL@server15?$AA@ 4002ba58     ui_main.obj
 0002:00002a64       ??_C@_08OADIHJDK@server14?$AA@ 4002ba64     ui_main.obj
 0002:00002a70       ??_C@_08KPHJOPPN@server13?$AA@ 4002ba70     ui_main.obj
 0002:00002a7c       ??_C@_08LGGCNOLM@server12?$AA@ 4002ba7c     ui_main.obj
 0002:00002a88       ??_C@_08JNEPINHP@server11?$AA@ 4002ba88     ui_main.obj
 0002:00002a94       ??_C@_08IEFELMDO@server10?$AA@ 4002ba94     ui_main.obj
 0002:00002aa0       ??_C@_07EPNFKLH@server9?$AA@ 4002baa0     ui_main.obj
 0002:00002aa8       ??_C@_07BNOGGLPG@server8?$AA@ 4002baa8     ui_main.obj
 0002:00002ab0       ??_C@_07JKHOHHDJ@server7?$AA@ 4002bab0     ui_main.obj
 0002:00002ab8       ??_C@_07IDGFEGHI@server6?$AA@ 4002bab8     ui_main.obj
 0002:00002ac0       ??_C@_07KIEIBFLL@server5?$AA@ 4002bac0     ui_main.obj
 0002:00002ac8       ??_C@_07LBFDCEPK@server4?$AA@ 4002bac8     ui_main.obj
 0002:00002ad0       ??_C@_07POBCLCDN@server3?$AA@ 4002bad0     ui_main.obj
 0002:00002ad8       ??_C@_07OHAJIDHM@server2?$AA@ 4002bad8     ui_main.obj
 0002:00002ae0       ??_C@_07MMCENALP@server1?$AA@ 4002bae0     ui_main.obj
 0002:00002ae8       ??_C@_08OCDFECFG@cg_marks?$AA@ 4002bae8     ui_main.obj
 0002:00002af4       ??_C@_0BG@PFLNOEEN@cg_drawCrosshairNames?$AA@ 4002baf4     ui_main.obj
 0002:00002b0c       ??_C@_0BB@KBADOJHA@cg_drawCrosshair?$AA@ 4002bb0c     ui_main.obj
 0002:00002b20       ??_C@_0BE@NJOHIGEF@ui_browserShowEmpty?$AA@ 4002bb20     ui_main.obj
 0002:00002b34       ??_C@_0BD@FNCPJHJM@ui_browserShowFull?$AA@ 4002bb34     ui_main.obj
 0002:00002b48       ??_C@_01FAMBOPH@4?$AA@     4002bb48     ui_main.obj
 0002:00002b4c       ??_C@_0BC@OHDOHLCL@ui_browserSortKey?$AA@ 4002bb4c     ui_main.obj
 0002:00002b60       ??_C@_0BD@POMFLHHE@ui_browserGameType?$AA@ 4002bb60     ui_main.obj
 0002:00002b74       ??_C@_0BB@KIFEKFLJ@ui_browserMaster?$AA@ 4002bb74     ui_main.obj
 0002:00002b88       ??_C@_0P@NKIEGNLF@ui_spSelection?$AA@ 4002bb88     ui_main.obj
 0002:00002b98       ??_C@_01FDFGLJHB@2?$AA@    4002bb98     ui_main.obj
 0002:00002b9c       ??_C@_0L@IINLIMGG@g_spVideos?$AA@ 4002bb9c     ui_main.obj
 0002:00002ba8       ??_C@_0L@BKAFECHK@g_spAwards?$AA@ 4002bba8     ui_main.obj
 0002:00002bb4       ??_C@_0M@DNECNHEI@g_spScores5?$AA@ 4002bbb4     ui_main.obj
 0002:00002bc0       ??_C@_0M@CEFJOGAJ@g_spScores4?$AA@ 4002bbc0     ui_main.obj
 0002:00002bcc       ??_C@_0M@GLBIHAMO@g_spScores3?$AA@ 4002bbcc     ui_main.obj
 0002:00002bd8       ??_C@_0M@HCADEBIP@g_spScores2?$AA@ 4002bbd8     ui_main.obj
 0002:00002be4       ??_C@_0M@FJCOBCEM@g_spScores1?$AA@ 4002bbe4     ui_main.obj
 0002:00002bf0       ??_C@_0BA@DNMONKHI@ui_ctf_friendly?$AA@ 4002bbf0     ui_main.obj
 0002:00002c00       ??_C@_0BB@INPGKJAK@ui_ctf_timelimit?$AA@ 4002bc00     ui_main.obj
 0002:00002c14       ??_C@_01KJLJFBPL@8?$AA@    4002bc14     ui_main.obj
 0002:00002c18       ??_C@_0BE@FLADFGIH@ui_ctf_capturelimit?$AA@ 4002bc18     ui_main.obj
 0002:00002c2c       ??_C@_01HIHLOKLC@1?$AA@    4002bc2c     ui_main.obj
 0002:00002c30       ??_C@_0BB@LCPLFLFK@ui_team_friendly?$AA@ 4002bc30     ui_main.obj
 0002:00002c44       ??_C@_0BC@FIBJNNGP@ui_team_timelimit?$AA@ 4002bc44     ui_main.obj
 0002:00002c58       ??_C@_0BC@JFOHFEHA@ui_team_fraglimit?$AA@ 4002bc58     ui_main.obj
 0002:00002c6c       ??_C@_02KMALDIDP@16?$AA@   4002bc6c     ui_main.obj
 0002:00002c70       ??_C@_0BG@JJNEEMEL@ui_selectedModelIndex?$AA@ 4002bc70     ui_main.obj
 0002:00002c88       ??_C@_0BF@BIAKOFPO@ui_tourney_timelimit?$AA@ 4002bc88     ui_main.obj
 0002:00002ca0       ??_C@_0BF@NFPEGMOB@ui_tourney_fraglimit?$AA@ 4002bca0     ui_main.obj
 0002:00002cb8       ??_C@_01GBGANLPD@0?$AA@    4002bcb8     ui_main.obj
 0002:00002cbc       ??_C@_0BB@KJJGDNHJ@ui_ffa_timelimit?$AA@ 4002bcbc     ui_main.obj
 0002:00002cd0       ??_C@_0BB@GEGILEGG@ui_ffa_fraglimit?$AA@ 4002bcd0     ui_main.obj
 0002:00002ce4       ??_C@_09KPHKOKCC@timelimit?$AA@ 4002bce4     ui_main.obj
 0002:00002cf0       ??_C@_07CPCPJPKL@version?$AA@ 4002bcf0     ui_main.obj
 0002:00002cf8       ??_C@_03NBOPHIOC@Map?$AA@  4002bcf8     ui_main.obj
 0002:00002cfc       ??_C@_09OINJJDAC@Game?5type?$AA@ 4002bcfc     ui_main.obj
 0002:00002d08       ??_C@_09EDNKFDHC@Game?5name?$AA@ 4002bd08     ui_main.obj
 0002:00002d14       ??_C@_08HCPAIKAO@gamename?$AA@ 4002bd14     ui_main.obj
 0002:00002d20       ??_C@_07EODJIPPN@Address?$AA@ 4002bd20     ui_main.obj
 0002:00002d28       ??_C@_04FABLJDN@Name?$AA@  4002bd28     ui_main.obj
 0002:00002d30       ??_C@_0M@NHCIKFPA@sv_hostname?$AA@ 4002bd30     ui_main.obj
 0002:00002d3c       ??_C@_01BMBHCPLG@5?$AA@    4002bd3c     ui_main.obj
 0002:00002d40       ??_C@_02PKFBJPLJ@10?$AA@   4002bd40     ui_main.obj
 0002:00002d44       ??_C@_02IHCGGLPM@15?$AA@   4002bd44     ui_main.obj
 0002:00002d48       ??_C@_02PIBHCBOA@20?$AA@   4002bd48     ui_main.obj
 0002:00002d4c       ??_C@_02IFGANFKF@25?$AA@   4002bd4c     ui_main.obj
 0002:00002d50       ??_C@_02PJNFELNH@30?$AA@   4002bd50     ui_main.obj
 0002:00002d54       ??_C@_02IEKCLPJC@35?$AA@   4002bd54     ui_main.obj
 0002:00002d58       ??_C@_02PMJKFNFC@40?$AA@   4002bd58     ui_main.obj
 0002:00002d5c       ??_C@_02IBONKJBH@45?$AA@   4002bd5c     ui_main.obj
 0002:00002d60       ??_C@_02PNFIDHGF@50?$AA@   4002bd60     ui_main.obj
 0002:00002d64       ??_C@_02IACPMDCA@55?$AA@   4002bd64     ui_main.obj
 0002:00002d68       ??_C@_02PPBOIJDM@60?$AA@   4002bd68     ui_main.obj
 0002:00002d6c       ??_C@_02ICGJHNHJ@65?$AA@   4002bd6c     ui_main.obj
 0002:00002d70       ??_C@_02PONMODAL@70?$AA@   4002bd70     ui_main.obj
 0002:00002d74       ??_C@_02IDKLBHEO@75?$AA@   4002bd74     ui_main.obj
 0002:00002d78       ??_C@_02PFIAKEDG@80?$AA@   4002bd78     ui_main.obj
 0002:00002d7c       ??_C@_02IIPHFAHD@85?$AA@   4002bd7c     ui_main.obj
 0002:00002d80       ??_C@_02PEECMOAB@90?$AA@   4002bd80     ui_main.obj
 0002:00002d84       ??_C@_02IJDFDKEE@95?$AA@   4002bd84     ui_main.obj
 0002:00002d88       ??_C@_04OHJIHAFH@None?$AA@ 4002bd88     ui_main.obj
 0002:00002db0       ??_C@_03CGHJMOLI@IPX?$AA@  4002bdb0     ui_main.obj
 0002:00002db4       ??_C@_03OPEAKHDL@UDP?$AA@  4002bdb4     ui_main.obj
 0002:00002db8       ??_C@_03BBKEAIF@?$DP?$DP?$DP?$AA@ 4002bdb8     ui_main.obj
 0002:00002dbc       ??_C@_0P@NHFOMDGM@TEAMTOURNAMENT?$AA@ 4002bdbc     ui_main.obj
 0002:00002dcc       ??_C@_03FHNGLHEB@CTY?$AA@  4002bdcc     ui_main.obj
 0002:00002dd0       ??_C@_03JKIMLJNP@CTF?$AA@  4002bdd0     ui_main.obj
 0002:00002dd4       ??_C@_03HPADHAHE@N?1A?$AA@ 4002bdd4     ui_main.obj
 0002:00002dd8       ??_C@_08OEEEPHAO@TEAM?5FFA?$AA@ 4002bdd8     ui_main.obj
 0002:00002de4       ??_C@_02NEPPOLFA@SP?$AA@   4002bde4     ui_main.obj
 0002:00002de8       ??_C@_04ECOAEGNJ@DUEL?$AA@ 4002bde8     ui_main.obj
 0002:00002df0       ??_C@_0L@EJHINIDC@JEDIMASTER?$AA@ 4002bdf0     ui_main.obj
 0002:00002dfc       ??_C@_08JKMPHAHN@HOLOCRON?$AA@ 4002bdfc     ui_main.obj
 0002:00002e08       ??_C@_03PNLBKIDE@FFA?$AA@  4002be08     ui_main.obj
 0002:00002e0c       ??_C@_06EKKBECKL@SKILL5?$AA@ 4002be0c     ui_main.obj
 0002:00002e14       ??_C@_06FDLKHDOK@SKILL4?$AA@ 4002be14     ui_main.obj
 0002:00002e1c       ??_C@_06BMPLOFCN@SKILL3?$AA@ 4002be1c     ui_main.obj
 0002:00002e24       ??_C@_06FOANEGM@SKILL2?$AA@ 4002be24     ui_main.obj
 0002:00002e2c       ??_C@_06COMNIHKP@SKILL1?$AA@ 4002be2c     ui_main.obj
 0002:00002e34       ??_C@_0O@OLNNDOFE@Jedi?5Knight?52?$AA@ 4002be34     ui_main.obj
 0002:00002e44       ??_C@_03HFJGAJFE@All?$AA@  4002be44     ui_main.obj
 0002:00002e48       ??_C@_04HEDFJGEJ@FREE?$AA@ 4002be48     ui_main.obj
 0002:00002e50       ??_C@_09GNDCBOBP@SPECTATOR?$AA@ 4002be50     ui_main.obj
 0002:00002e5c       ??_C@_04CNFFLDFF@BLUE?$AA@ 4002be5c     ui_main.obj
 0002:00002e64       ??_C@_03FNPLCCOA@RED?$AA@  4002be64     ui_main.obj
 0002:00002e68       ??_C@_0BD@PPPBDMEH@gfx?12d?1crosshair?$CFc?$AA@ 4002be68     ui_main.obj
 0002:00002e7c       ??_C@_0BF@IMFGDGLA@menu?1new?1sliderthumb?$AA@ 4002be7c     ui_main.obj
 0002:00002e94       ??_C@_0BA@IIPDBPAH@menu?1new?1slider?$AA@ 4002be94     ui_main.obj
 0002:00002ea4       ??_C@_0BO@OGCKOCFI@gfx?1menus?1scrollbar_thumb?4tga?$AA@ 4002bea4     ui_main.obj
 0002:00002ec4       ??_C@_0CE@EBDHDKAC@gfx?1menus?1scrollbar_arrow_right?4@ 4002bec4     ui_main.obj
 0002:00002ee8       ??_C@_0CD@HGBCPEJO@gfx?1menus?1scrollbar_arrow_left?4t@ 4002bee8     ui_main.obj
 0002:00002f0c       ??_C@_0CD@CMMKEMFC@gfx?1menus?1scrollbar_arrow_up_a?4t@ 4002bf0c     ui_main.obj
 0002:00002f30       ??_C@_0CE@COBFEBJB@gfx?1menus?1scrollbar_arrow_dwn_a?4@ 4002bf30     ui_main.obj
 0002:00002f54       ??_C@_0BI@FDOMFDJL@gfx?1menus?1scrollbar?4tga?$AA@ 4002bf54     ui_main.obj
 0002:00002f6c       ??_C@_0BC@GAPGDHHF@menu?1art?1fx_white?$AA@ 4002bf6c     ui_main.obj
 0002:00002f80       ??_C@_0BD@NFOJMJOG@menu?1art?1fx_purple?$AA@ 4002bf80     ui_main.obj
 0002:00002f94       ??_C@_0BB@BKOGMDOJ@menu?1art?1fx_blue?$AA@ 4002bf94     ui_main.obj
 0002:00002fa8       ??_C@_0BA@IJJPLEBB@menu?1art?1fx_grn?$AA@ 4002bfa8     ui_main.obj
 0002:00002fb8       ??_C@_0BA@BCAGEDMK@menu?1art?1fx_yel?$AA@ 4002bfb8     ui_main.obj
 0002:00002fc8       ??_C@_0BD@MCKJDHGG@menu?1art?1fx_orange?$AA@ 4002bfc8     ui_main.obj
 0002:00002fdc       ??_C@_0BA@NNOEOMD@menu?1art?1fx_red?$AA@ 4002bfdc     ui_main.obj
 0002:00002fec       ??_C@_0BB@OMABGHIG@menu?1art?1fx_base?$AA@ 4002bfec     ui_main.obj
 0002:00003000       ??_C@_0BL@LDKEDAHM@ui?1assets?1gradientbar2?4tga?$AA@ 4002c000     ui_main.obj
 0002:0000301c       ??_C@_02HAOIJKIC@?$CFc?$AA@ 4002c01c     ui_main.obj
 0002:00003020       ??_C@_05ONEOBAM@?$CFs_?$CFs?$AA@ 4002c020     ui_main.obj
 0002:00003028       ??_C@_0DD@JILOANNP@?$FO1menu?5file?5too?5large?3?5?$CFs?5is?5?$CFi?0@ 4002c028     ui_main.obj
 0002:0000305c       ??_C@_0CK@ECPONHFG@?$FO1menu?5file?5not?5found?3?5?$CFs?0?5using@ 4002c05c     ui_main.obj
 0002:00003088       ??_C@_02JCPHEAGH@?$FO3?$AA@ 4002c088     ui_main.obj
 0002:0000308c       ??_C@_0CH@MFNDJLKG@Bad?51st?5parameter?5for?5keyword?5?8c@ 4002c08c     ui_main.obj
 0002:000030b4       ??_C@_0CM@GLKEIKEL@Bad?51st?5parameter?5for?5keyword?5?8s@ 4002c0b4     ui_main.obj
 0002:000030e0       ??_C@_0M@JPJLLJDB@shadowColor?$AA@ 4002c0e0     ui_main.obj
 0002:000030ec       ??_C@_07PGMDMGII@shadowY?$AA@ 4002c0ec     ui_main.obj
 0002:000030f4       ??_C@_07OPNIPHMJ@shadowX?$AA@ 4002c0f4     ui_main.obj
 0002:000030fc       ??_C@_0L@JDDHILPC@fadeAmount?$AA@ 4002c0fc     ui_main.obj
 0002:00003108       ??_C@_09LGBLEGN@fadeCycle?$AA@ 4002c108     ui_main.obj
 0002:00003114       ??_C@_09DPBPOIDH@fadeClamp?$AA@ 4002c114     ui_main.obj
 0002:00003120       ??_C@_0O@JDBLIAHI@menuBuzzSound?$AA@ 4002c120     ui_main.obj
 0002:00003130       ??_C@_0P@IGAMHAPB@itemFocusSound?$AA@ 4002c130     ui_main.obj
 0002:00003140       ??_C@_0O@CCIDDBMD@menuExitSound?$AA@ 4002c140     ui_main.obj
 0002:00003150       ??_C@_0P@HOFNPEDB@menuEnterSound?$AA@ 4002c150     ui_main.obj
 0002:00003160       ??_C@_0M@KMLBJNNP@gradientbar?$AA@ 4002c160     ui_main.obj
 0002:0000316c       ??_C@_06CHDIMBDP@cursor?$AA@ 4002c16c     ui_main.obj
 0002:00003174       ??_C@_0M@LFBICOOH@stripedFile?$AA@ 4002c174     ui_main.obj
 0002:00003180       ??_C@_07LOCAKBOA@bigFont?$AA@ 4002c180     ui_main.obj
 0002:00003188       ??_C@_09DOKKJGBA@smallFont?$AA@ 4002c188     ui_main.obj
 0002:00003194       ??_C@_04EFPADHIC@font?$AA@ 4002c194     ui_main.obj
 0002:0000319c       ??_C@_07MCIOFCJF@menudef?$AA@ 4002c19c     ui_main.obj
 0002:000031a4       ??_C@_0P@JJKHBDCP@assetGlobalDef?$AA@ 4002c1a4     ui_main.obj
 0002:000031b4       ??_C@_0BG@HKBLBMGK@Parsing?5menu?5file?3?$CFs?6?$AA@ 4002c1b4     ui_main.obj
 0002:000031cc       ??_C@_0CG@GMHEABBC@UI?5menu?5load?5time?5?$DN?5?$CFd?5milli?5sec@ 4002c1cc     ui_main.obj
 0002:000031f4       ??_C@_08GJJFPOLP@loadmenu?$AA@ 4002c1f4     ui_main.obj
 0002:00003200       ??_C@_0EC@MBKMCDAN@?$FO1default?5menu?5file?5not?5found?3?5u@ 4002c200     ui_main.obj
 0002:00003244       ??_C@_0CK@EJKAPAFF@?$FO3menu?5file?5not?5found?3?5?$CFs?0?5using@ 4002c244     ui_main.obj
 0002:00003270       ??_C@_0BD@PNPKEOCB@ui?1jk2mp?1menudef?4h?$AA@ 4002c270     ui_main.obj
 0002:00003284       ??_C@_08HBHLIHAM@handicap?$AA@ 4002c284     ui_main.obj
 0002:00003290       ??_C@_0BF@MGMPAIBH@ui_actualNetGameType?$AA@ 4002c290     ui_main.obj
 0002:000032a8       ??_C@_0P@INPBKGBE@ui_netGameType?$AA@ 4002c2a8     ui_main.obj
 0002:000032b8       ??_C@_0L@EBKCFLON@INGAMETEXT?$AA@ 4002c2b8     ui_main.obj
 0002:000032c4       ??_C@_0M@GHKAFFGG@AUTOSWITCH0?$AA@ 4002c2c4     ui_main.obj
 0002:000032d0       ??_C@_0M@FFJGDHOE@AUTOSWITCH2?$AA@ 4002c2d0     ui_main.obj
 0002:000032dc       ??_C@_0M@EMINAGKF@AUTOSWITCH3?$AA@ 4002c2dc     ui_main.obj
 0002:000032e8       ??_C@_0M@HOLLGECH@AUTOSWITCH1?$AA@ 4002c2e8     ui_main.obj
 0002:000032f4       ??_C@_0O@JKEEFDLF@cg_autoswitch?$AA@ 4002c2f4     ui_main.obj
 0002:00003304       ??_C@_0BA@PKEACILF@ui_joinGameType?$AA@ 4002c304     ui_main.obj
 0002:00003314       ??_C@_07PGAOKCOL@?$CFs_name?$AA@ 4002c314     ui_main.obj
 0002:0000331c       ??_C@_08KHGKHFFO@?$CFs_metal?$AA@ 4002c31c     ui_main.obj
 0002:00003328       ??_C@_06LIMIHEAN@?$CFs?4roq?$AA@ 4002c328     ui_main.obj
 0002:00003330       ??_C@_03OFBIPEA@?$CFi?$AA?$AA@ 4002c330     ui_main.obj
 0002:00003334       ??_C@_04DICIPAIE@Red?$AA?$AA@ 4002c334     ui_main.obj
 0002:0000333c       ??_C@_05ECJCDGBC@Blue?$AA?$AA@ 4002c33c     ui_main.obj
 0002:00003344       ??_C@_08DKHHFFCN@Default?$AA?$AA@ 4002c344     ui_main.obj
 0002:00003350       ??_C@_0BG@NMJDLKMN@MENUS3_FORCEDESC_DARK?$AA@ 4002c350     ui_main.obj
 0002:00003368       ??_C@_0BB@JKOHNFAK@lightpowers_team?$AA@ 4002c368     ui_main.obj
 0002:0000337c       ??_C@_0BA@FFAMFDAO@darkpowers_team?$AA@ 4002c37c     ui_main.obj
 0002:0000338c       ??_C@_0L@BICDFDBI@darkpowers?$AA@ 4002c38c     ui_main.obj
 0002:00003398       ??_C@_0M@HPNGNDDK@lightpowers?$AA@ 4002c398     ui_main.obj
 0002:000033a4       ??_C@_0L@LGILNIKN@forcealloc?$AA@ 4002c3a4     ui_main.obj
 0002:000033b0       ??_C@_0BH@ICHMGFLP@MENUS3_FORCEDESC_LIGHT?$AA@ 4002c3b0     ui_main.obj
 0002:000033c8       ??_C@_0BA@DKHOJHPN@g_weaponDisable?$AA@ 4002c3c8     ui_main.obj
 0002:000033d8       ??_C@_0BE@OBOCPLPN@g_duelWeaponDisable?$AA@ 4002c3d8     ui_main.obj
 0002:000033ec       ??_C@_0M@HDALJKN@g_jediVmerc?$AA@ 4002c3ec     ui_main.obj
 0002:000033f8       ??_C@_0BE@EDCPOKDI@g_forcePowerDisable?$AA@ 4002c3f8     ui_main.obj
 0002:0000340c       ??_C@_0L@HGHFOCB@MENUS0_YES?$AA@ 4002c40c     ui_main.obj
 0002:00003418       ??_C@_09BLHOGFDF@MENUS0_NO?$AA@ 4002c418     ui_main.obj
 0002:00003424       ??_C@_06DJHOIPC@?$CFs?3?5?$CFs?$AA@ 4002c424     ui_main.obj
 0002:0000342c       ??_C@_03PADCEAKC@Red?$AA@  4002c42c     ui_main.obj
 0002:00003430       ??_C@_04CAKOHOCJ@Blue?$AA@ 4002c430     ui_main.obj
 0002:00003438       ??_C@_0L@GHKHHDJL@ui_redTeam?$AA@ 4002c438     ui_main.obj
 0002:00003444       ??_C@_0M@BANABNHI@ui_blueTeam?$AA@ 4002c444     ui_main.obj
 0002:00003450       ??_C@_05CLBJJDHK@HUMAN?$AA@ 4002c450     ui_main.obj
 0002:00003458       ??_C@_06JJFLEDIG@MENUS3?$AA@ 4002c458     ui_main.obj
 0002:00003460       ??_C@_06IOLFCPIM@CLOSED?$AA@ 4002c460     ui_main.obj
 0002:00003468       __real@3fc999999999999a    4002c468     ui_main.obj
 0002:00003470       ??_C@_0O@BLJEIMIH@sv_maxClients?$AA@ 4002c470     ui_main.obj
 0002:00003480       ??_C@_0N@BOLNHJIJ@ui_redteam?$CFi?$AA@ 4002c480     ui_main.obj
 0002:00003490       ??_C@_0O@MBOEOCIO@ui_blueteam?$CFi?$AA@ 4002c490     ui_main.obj
 0002:000034a0       ??_C@_0BE@JCMNICLJ@menu?1art?1unknownmap?$AA@ 4002c4a0     ui_main.obj
 0002:000034b4       ??_C@_0BE@MJMLKIAB@playerforcespectate?$AA@ 4002c4b4     ui_main.obj
 0002:000034c8       ??_C@_0BA@HKGGDOFM@playerforceblue?$AA@ 4002c4c8     ui_main.obj
 0002:000034d8       ??_C@_0P@DNKNCOFM@playerforcered?$AA@ 4002c4d8     ui_main.obj
 0002:000034e8       ??_C@_0BA@KOGLFJKM@playerforcejoin?$AA@ 4002c4e8     ui_main.obj
 0002:000034f8       ??_C@_0M@JFACKFNB@playerapply?$AA@ 4002c4f8     ui_main.obj
 0002:00003504       ??_C@_08OLKDPGBD@yessaber?$AA@ 4002c504     ui_main.obj
 0002:00003510       ??_C@_0BC@BDPIFPLC@sabernoneconfigme?$AA@ 4002c510     ui_main.obj
 0002:00003524       ??_C@_08FGJPHEOB@yesforce?$AA@ 4002c524     ui_main.obj
 0002:00003530       ??_C@_07HEKACAEE@noforce?$AA@ 4002c530     ui_main.obj
 0002:00003538       ??_C@_0M@OBPKCPBG@jedinonjedi?$AA@ 4002c538     ui_main.obj
 0002:00003544       ??_C@_0O@PJIPPKNP@ingame_player?$AA@ 4002c544     ui_main.obj
 0002:00003554       ??_C@_05DNIIFBMG@?$CFs?5?$CFs?$AA@ 4002c554     ui_main.obj
 0002:0000355c       ??_C@_0M@LGICOGBD@MENUS3_GAME?$AA@ 4002c55c     ui_main.obj
 0002:00003568       ??_C@_08BHLPCOBE@Tier?3?5?$CFs?$AA@ 4002c568     ui_main.obj
 0002:00003574       ??_C@_08LFOMOGKF@Everyone?$AA@ 4002c574     ui_main.obj
 0002:00003580       ??_C@_01EFFIKLCJ@n?$AA@    4002c580     ui_main.obj
 0002:00003584       ??_C@_0O@OCOCOONB@sv_maxclients?$AA@ 4002c584     ui_main.obj
 0002:00003594       ??_C@_01PFHFFBPC@t?$AA@    4002c594     ui_main.obj
 0002:00003598       ??_C@_02JKAOMCMK@tl?$AA@   4002c598     ui_main.obj
 0002:0000359c       ??_C@_0BO@IHFHFOEN@INGAMETEXT_SERVER_REFRESHTIME?$AA@ 4002c59c     ui_main.obj
 0002:000035bc       ??_C@_0BI@DIFBAOHB@ui_lastServerRefresh_?$CFi?$AA@ 4002c5bc     ui_main.obj
 0002:000035d4       ??_C@_0CB@DHHGICPK@INGAMETEXT_GETTINGINFOFORSERVERS@ 4002c5d4     ui_main.obj
 0002:000035f8       __real@3fe999999999999a    4002c5f8     ui_main.obj
 0002:00003600       __real@40400000            4002c600     ui_main.obj
 0002:00003604       __real@40000000            4002c604     ui_main.obj
 0002:00003608       ??_C@_0BE@KBBNIJIF@WAITING_FOR_NEW_KEY?$AA@ 4002c608     ui_main.obj
 0002:0000361c       __real@41300000            4002c61c     ui_main.obj
 0002:00003620       __real@42340000            4002c620     ui_main.obj
 0002:00003624       __real@41f00000            4002c624     ui_main.obj
 0002:00003628       ??_C@_0DL@LAIIPCFN@GL_PIXELFORMAT?3?5color?$CI?$CFd?9bits?$CJ?5Z@ 4002c628     ui_main.obj
 0002:00003664       __real@41700000            4002c664     ui_main.obj
 0002:00003668       ??_C@_0BD@FDNFBAAO@GL_VERSION?3?5?$CFs?3?5?$CFs?$AA@ 4002c668     ui_main.obj
 0002:0000367c       ??_C@_0O@LCMFPEGO@GL_VENDOR?3?5?$CFs?$AA@ 4002c67c     ui_main.obj
 0002:0000368c       ??_C@_0O@GNLCIOIJ@JK2MP?3?5v1?403a?$AA@ 4002c68c     ui_main.obj
 0002:0000369c       ??_C@_0O@JEEKIFAP@sv_killserver?$AA@ 4002c69c     ui_main.obj
 0002:000036ac       ??_C@_06IPMAANOD@color1?$AA@ 4002c6ac     ui_main.obj
 0002:000036b4       ??_C@_08GEJGLEOK@$modlist?$AA@ 4002c6b4     ui_main.obj
 0002:000036c0       ??_C@_04PDLFDFDK@?4roq?$AA@ 4002c6c0     ui_main.obj
 0002:000036c8       ??_C@_05BPFJLLEL@video?$AA@ 4002c6c8     ui_main.obj
 0002:000036d0       ??_C@_03GKCCIMFO@roq?$AA@  4002c6d0     ui_main.obj
 0002:000036d4       ??_C@_06KDKPKJKM@?4dm_?$CFd?$AA@ 4002c6d4     ui_main.obj
 0002:000036dc       ??_C@_05CFPGCNL@demos?$AA@ 4002c6dc     ui_main.obj
 0002:000036e4       ??_C@_05BAIDJFLA@dm_?$CFd?$AA@ 4002c6e4     ui_main.obj
 0002:000036ec       ??_C@_08NJICDBID@skirmish?$AA@ 4002c6ec     ui_main.obj
 0002:000036f8       ??_C@_07JIEGLHEC@m_pitch?$AA@ 4002c6f8     ui_main.obj
 0002:00003700       ??_C@_0O@OGIMAHGE@ui_mousePitch?$AA@ 4002c700     ui_main.obj
 0002:00003710       ??_C@_0BJ@PCPDHFJH@GL_LINEAR_MIPMAP_NEAREST?$AA@ 4002c710     ui_main.obj
 0002:0000372c       ??_C@_0BB@GBAJKCAL@ui_r_texturemode?$AA@ 4002c72c     ui_main.obj
 0002:00003740       ??_C@_0BI@EMKCPMIG@GL_LINEAR_MIPMAP_LINEAR?$AA@ 4002c740     ui_main.obj
 0002:00003758       ??_C@_0BB@PJFFEJHH@ui_r_inGameVideo?$AA@ 4002c758     ui_main.obj
 0002:0000376c       ??_C@_0N@IPNMEDKM@ui_r_fastSky?$AA@ 4002c76c     ui_main.obj
 0002:0000377c       ??_C@_0BB@MGIMHMKB@ui_r_texturebits?$AA@ 4002c77c     ui_main.obj
 0002:00003790       ??_C@_09KDEPNMFH@ui_r_mode?$AA@ 4002c790     ui_main.obj
 0002:0000379c       ??_C@_0M@LFGCJFJG@ui_r_picmip?$AA@ 4002c79c     ui_main.obj
 0002:000037a8       ??_C@_0BA@FECIFLLB@ui_r_fullScreen?$AA@ 4002c7a8     ui_main.obj
 0002:000037b8       ??_C@_0O@DBONOGAA@ui_r_glCustom?$AA@ 4002c7b8     ui_main.obj
 0002:000037c8       ??_C@_0BC@ONOLCHFM@ui_r_subdivisions?$AA@ 4002c7c8     ui_main.obj
 0002:000037dc       ??_C@_0N@NHLOABKB@ui_r_lodbias?$AA@ 4002c7dc     ui_main.obj
 0002:000037ec       ??_C@_0P@FOKPMCPI@ui_r_depthbits?$AA@ 4002c7ec     ui_main.obj
 0002:000037fc       ??_C@_0P@MFNNJOLC@ui_r_colorbits?$AA@ 4002c7fc     ui_main.obj
 0002:0000380c       ??_C@_0L@MNKNEHAB@ui_GetName?$AA@ 4002c80c     ui_main.obj
 0002:00003818       __real@457a0000            4002c818     ui_main.obj
 0002:0000381c       ??_C@_0N@HCACMDEB@cl_packetdup?$AA@ 4002c81c     ui_main.obj
 0002:0000382c       ??_C@_0O@FAEBFPEP@cl_maxpackets?$AA@ 4002c82c     ui_main.obj
 0002:0000383c       __real@459c4000            4002c83c     ui_main.obj
 0002:00003840       ??_C@_04HCCHHEEF@rate?$AA@ 4002c840     ui_main.obj
 0002:00003848       ??_C@_0L@HKMNPIPK@ui_setRate?$AA@ 4002c848     ui_main.obj
 0002:00003854       ??_C@_07KBEHLNKJ@ui_Name?$AA@ 4002c854     ui_main.obj
 0002:0000385c       ??_C@_0L@DFFMHINA@ui_SetName?$AA@ 4002c85c     ui_main.obj
 0002:00003868       ??_C@_0N@FJNKPAFP@snd_restart?6?$AA@ 4002c868     ui_main.obj
 0002:00003878       ??_C@_05GPLACMP@s_khz?$AA@ 4002c878     ui_main.obj
 0002:00003880       ??_C@_0BB@CNBELBNI@ui_rules_backout?$AA@ 4002c880     ui_main.obj
 0002:00003894       ??_C@_0N@NNENLBAN@RulesBackout?$AA@ 4002c894     ui_main.obj
 0002:000038a4       ??_C@_0O@ICGEAHKA@ui_r_modified?$AA@ 4002c8a4     ui_main.obj
 0002:000038b4       ??_C@_0L@IPGLFCFH@VideoSetup?$AA@ 4002c8b4     ui_main.obj
 0002:000038c0       ??_C@_0N@PGDAKNHB@vid_restart?$DL?$AA@ 4002c8c0     ui_main.obj
 0002:000038d0       ??_C@_0L@MAOLAFLC@cg_shadows?$AA@ 4002c8d0     ui_main.obj
 0002:000038dc       ??_C@_0O@NDJCAFHK@ui_cg_shadows?$AA@ 4002c8dc     ui_main.obj
 0002:000038ec       ??_C@_0BC@HJALDEG@r_allowExtensions?$AA@ 4002c8ec     ui_main.obj
 0002:00003900       ??_C@_0BF@EOAMBIGF@ui_r_allowExtensions?$AA@ 4002c900     ui_main.obj
 0002:00003918       ??_C@_0O@EPDAEHAE@r_inGameVideo?$AA@ 4002c918     ui_main.obj
 0002:00003928       ??_C@_09JKEENNLE@r_fastSky?$AA@ 4002c928     ui_main.obj
 0002:00003934       ??_C@_0P@CEFBGCNE@r_subdivisions?$AA@ 4002c934     ui_main.obj
 0002:00003944       ??_C@_0M@MLADPBHK@r_depthbits?$AA@ 4002c944     ui_main.obj
 0002:00003950       ??_C@_0BI@OCJAALOK@r_ext_compress_textures?$AA@ 4002c950     ui_main.obj
 0002:00003968       ??_C@_0BL@OMICDKKG@ui_r_ext_compress_textures?$AA@ 4002c968     ui_main.obj
 0002:00003984       ??_C@_0BB@OJJFINJB@r_detailtextures?$AA@ 4002c984     ui_main.obj
 0002:00003998       ??_C@_0BE@BMHJODHH@ui_r_detailtextures?$AA@ 4002c998     ui_main.obj
 0002:000039ac       ??_C@_0O@NHGMKMHI@r_texturemode?$AA@ 4002c9ac     ui_main.obj
 0002:000039bc       ??_C@_0O@HAOJHCNC@r_texturebits?$AA@ 4002c9bc     ui_main.obj
 0002:000039cc       ??_C@_08PHNBMEML@r_picmip?$AA@ 4002c9cc     ui_main.obj
 0002:000039d8       ??_C@_09MCCGJPLJ@r_lodbias?$AA@ 4002c9d8     ui_main.obj
 0002:000039e4       ??_C@_0M@FAHBKNDA@r_colorbits?$AA@ 4002c9e4     ui_main.obj
 0002:000039f0       ??_C@_0N@JILGCMBC@r_fullscreen?$AA@ 4002c9f0     ui_main.obj
 0002:00003a00       ??_C@_0BA@JLJFGCCN@ui_r_fullscreen?$AA@ 4002ca00     ui_main.obj
 0002:00003a10       ??_C@_06LBAPPDBG@r_mode?$AA@ 4002ca10     ui_main.obj
 0002:00003a18       ??_C@_0DD@IFBJFFKB@models?1players?1characters?1?$CFs?1?$CFs?1@ 4002ca18     ui_main.obj
 0002:00003a4c       ??_C@_0CI@LGKPFMHH@models?1players?1?$CFs?1?$CFs?1lower_defau@ 4002ca4c     ui_main.obj
 0002:00003a74       ??_C@_04PEPHHPEI@?1red?$AA@ 4002ca74     ui_main.obj
 0002:00003a7c       ??_C@_05GAHFLAHA@?1blue?$AA@ 4002ca7c     ui_main.obj
 0002:00003a84       ??_C@_08OFBBAHIC@?1default?$AA@ 4002ca84     ui_main.obj
 0002:00003a90       ??_C@_08NJPDEKHO@gametype?$AA@ 4002ca90     ui_main.obj
 0002:00003a9c       ??_C@_07HKJFGNHJ@clients?$AA@ 4002ca9c     ui_main.obj
 0002:00003aa4       ??_C@_0BC@FACCEAMF@Welcome?5to?5JK2MP?$CB?$AA@ 4002caa4     ui_main.obj
 0002:00003ab8       ??_C@_0O@GJFLJONJ@cl_motdString?$AA@ 4002cab8     ui_main.obj
 0002:00003ac8       ??_C@_04OONEELOO@ping?$AA@ 4002cac8     ui_main.obj
 0002:00003ad0       ??_C@_05DBKDOICH@score?$AA@ 4002cad0     ui_main.obj
 0002:00003ad8       ??_C@_03IHCLBPIC@num?$AA@  4002cad8     ui_main.obj
 0002:00003adc       __real@41200000            4002cadc     ui_main.obj
 0002:00003ae0       __real@41100000            4002cae0     ui_main.obj
 0002:00003ae4       __real@41000000            4002cae4     ui_main.obj
 0002:00003ae8       __real@40e00000            4002cae8     ui_main.obj
 0002:00003aec       __real@41600000            4002caec     ui_main.obj
 0002:00003af0       __real@41500000            4002caf0     ui_main.obj
 0002:00003af4       ??_C@_03KHICJKCI@?4?4?4?$AA@ 4002caf4     ui_main.obj
 0002:00003af8       ??_C@_07NBCGADJA@Unknown?$AA@ 4002caf8     ui_main.obj
 0002:00003b00       ??_C@_08PINKDKH@Inactive?$AA@ 4002cb00     ui_main.obj
 0002:00003b0c       ??_C@_07IFMLPBAP@?$CFs?5?$CI?$CFs?$CJ?$AA@ 4002cb0c     ui_main.obj
 0002:00003b14       ??_C@_06MLCMCMG@?$CIA?$CJ?5?$CFs?$AA@ 4002cb14     ui_main.obj
 0002:00003b1c       ??_C@_0BC@DFDLMDDH@sv_allowAnonymous?$AA@ 4002cb1c     ui_main.obj
 0002:00003b30       ??_C@_07HAOKNHOC@?$CFs?5?$FL?$CFs?$FN?$AA@ 4002cb30     ui_main.obj
 0002:00003b38       ??_C@_08EHKIGBEA@hostname?$AA@ 4002cb38     ui_main.obj
 0002:00003b44       ??_C@_07EAJPOACB@nettype?$AA@ 4002cb44     ui_main.obj
 0002:00003b4c       ??_C@_0BD@FAGPOKAI@gfx?1menus?1truejedi?$AA@ 4002cb4c     ui_main.obj
 0002:00003b60       ??_C@_08JIDOFFMP@truejedi?$AA@ 4002cb60     ui_main.obj
 0002:00003b6c       ??_C@_0BE@DNNKMCEA@gfx?1menus?1saberonly?$AA@ 4002cb6c     ui_main.obj
 0002:00003b80       ??_C@_08CGDHFBIG@wdisable?$AA@ 4002cb80     ui_main.obj
 0002:00003b8c       ??_C@_0BI@PKLLBMCM@gfx?1menus?1forcerestrict?$AA@ 4002cb8c     ui_main.obj
 0002:00003ba4       ??_C@_0BC@PCEOGHHG@gfx?1menus?1noforce?$AA@ 4002cba4     ui_main.obj
 0002:00003bb8       ??_C@_08JNIMAHLE@fdisable?$AA@ 4002cbb8     ui_main.obj
 0002:00003bc4       ??_C@_0BD@LPALACOE@gfx?1menus?1needpass?$AA@ 4002cbc4     ui_main.obj
 0002:00003bd8       ??_C@_08HHFKLNCD@needpass?$AA@ 4002cbd8     ui_main.obj
 0002:00003be4       ??_C@_04HLBMEOMD@addr?$AA@ 4002cbe4     ui_main.obj
 0002:00003bec       __real@40800000            4002cbec     ui_main.obj
 0002:00003bf0       __real@41800000            4002cbf0     ui_main.obj
 0002:00003bf4       __real@41400000            4002cbf4     ui_main.obj
 0002:00003bf8       ??_C@_05KDHLENLH@icon_?$AA@ 4002cbf8     ui_main.obj
 0002:00003c00       ??_C@_0BC@EALEMOON@models?1players?1?$CFs?$AA@ 4002cc00     ui_main.obj
 0002:00003c14       ??_C@_05NCCFOPHA@model?$AA@ 4002cc14     ui_main.obj
 0002:00003c1c       ??_C@_0L@KEDOKIKJ@team_model?$AA@ 4002cc1c     ui_main.obj
 0002:00003c28       ??_C@_0CI@IFAKKCDN@Too?5many?5game?5types?0?5last?5one?5re@ 4002cc28     ui_main.obj
 0002:00003c50       ??_C@_0CM@LGCBCNPC@Too?5many?5net?5game?5types?0?5last?5on@ 4002cc50     ui_main.obj
 0002:00003c7c       ??_C@_0CD@INHJOHKK@Too?5many?5maps?0?5last?5one?5replaced@ 4002cc7c     ui_main.obj
 0002:00003ca0       ??_C@_0BE@CAPBAJFM@levelshots?1?$CFs_small?$AA@ 4002cca0     ui_main.obj
 0002:00003cb4       ??_C@_04ILAGGJBN@maps?$AA@ 4002ccb4     ui_main.obj
 0002:00003cbc       ??_C@_0O@EBHHCFIL@joingametypes?$AA@ 4002ccbc     ui_main.obj
 0002:00003ccc       ??_C@_09LDHGIFEE@gametypes?$AA@ 4002cccc     ui_main.obj
 0002:00003cd8       ??_C@_09DIABHAFB@cl_paused?$AA@ 4002ccd8     ui_main.obj
 0002:00003ce4       ??_C@_0O@LAIEPDMG@forcecfg?1dark?$AA@ 4002cce4     ui_main.obj
 0002:00003cf4       ??_C@_0P@IAEGIPNM@forcecfg?1light?$AA@ 4002ccf4     ui_main.obj
 0002:00003d04       ??_C@_03LJMADBGE@fcf?$AA@  4002cd04     ui_main.obj
 0002:00003d08       ??_C@_06IFGIOHDE@Custom?$AA@ 4002cd08     ui_main.obj
 0002:00003d10       ??_C@_0BN@MPIBFGBD@models?1players?1?$CFs?1icon?$CFs?4jpg?$AA@ 4002cd10     ui_main.obj
 0002:00003d30       ??_C@_04NHPAFEHJ@skin?$AA@ 4002cd30     ui_main.obj
 0002:00003d38       ??_C@_02DJGKEECL@?4?4?$AA@ 4002cd38     ui_main.obj
 0002:00003d3c       ??_C@_01LFCBOECM@?4?$AA@   4002cd3c     ui_main.obj
 0002:00003d40       ??_C@_0P@KAKFFEJE@models?1players?$AA@ 4002cd40     ui_main.obj
 0002:00003d50       ??_C@_01KMDKNFGN@?1?$AA@   4002cd50     ui_main.obj
 0002:00003d54       ??_C@_06LOEOLLDH@ingame?$AA@ 4002cd54     ui_main.obj
 0002:00003d5c       ??_C@_09LIOFIACL@endofgame?$AA@ 4002cd5c     ui_main.obj
 0002:00003d68       ??_C@_04KADBPNCB@team?$AA@ 4002cd68     ui_main.obj
 0002:00003d70       ??_C@_0BH@HNHFPMPD@backgroundtask_popmenu?$AA@ 4002cd70     ui_main.obj
 0002:00003d88       ??_C@_0BF@DHCFNLPP@com_ignoreothertasks?$AA@ 4002cd88     ui_main.obj
 0002:00003da0       ??_C@_0P@JDCEIMNB@com_othertasks?$AA@ 4002cda0     ui_main.obj
 0002:00003db0       ??_C@_0O@PEPHHCN@error_popmenu?$AA@ 4002cdb0     ui_main.obj
 0002:00003dc0       ??_C@_0BB@GDGLAKGE@com_errorMessage?$AA@ 4002cdc0     ui_main.obj
 0002:00003dd4       ??_C@_04GHJNJNPO@main?$AA@ 4002cdd4     ui_main.obj
 0002:00003ddc       ??_C@_08FFCBIDLK@?$CFd?5bytes?$AA@ 4002cddc     ui_main.obj
 0002:00003de8       ??_C@_05GLFMPLMM@?$CFd?5KB?$AA@ 4002cde8     ui_main.obj
 0002:00003df0       ??_C@_08HFAPJAAB@?4?$CF02d?5MB?$AA@ 4002cdf0     ui_main.obj
 0002:00003dfc       ??_C@_08HIJIBFNH@?4?$CF02d?5GB?$AA@ 4002cdfc     ui_main.obj
 0002:00003e08       ??_C@_07DPFFKEEK@?$CF2d?5sec?$AA@ 4002ce08     ui_main.obj
 0002:00003e10       ??_C@_0BA@EJDPLOKB@?$CF2d?5min?5?$CF2d?5sec?$AA@ 4002ce10     ui_main.obj
 0002:00003e20       ??_C@_0O@ICFIHIJP@?$CFd?5hr?5?$CF2d?5min?$AA@ 4002ce20     ui_main.obj
 0002:00003e30       ??_C@_0EC@BCCBKFGB@?$CFd?5servers?5not?5listed?5due?5to?5pac@ 4002ce30     ui_main.obj
 0002:00003e74       ??_C@_0L@KMOIMFOM@cl_maxPing?$AA@ 4002ce74     ui_main.obj
 0002:00003e80       ??_C@_0CP@JCONBAAO@?$CFd?5servers?5listed?5in?5browser?5wit@ 4002ce80     ui_main.obj
 0002:00003eb0       ??_C@_03JIHJHPIE@Jan?$AA@  4002ceb0     ui_main.obj
 0002:00003eb4       ??_C@_06PFPCCALD@MONTHS?$AA@ 4002ceb4     ui_main.obj
 0002:00003ebc       ??_C@_02HHFHKOHM@?$DP?$DP?$AA@ 4002cebc     ui_main.obj
 0002:00003ec0       ??_C@_0M@POGPACHD@NET_SOURCES?$AA@ 4002cec0     ui_main.obj
 0002:00003ecc       ??_C@_0P@OPFJLCMG@cg_thirdPerson?$AA@ 4002cecc     ui_main.obj
 0002:00003edc       ??_C@_0P@GDCMABHL@cg_cameraOrbit?$AA@ 4002cedc     ui_main.obj
 0002:00003eec       ??_C@_0BG@MHHGNCOD@ui?1jk2mp?1gameinfo?4txt?$AA@ 4002ceec     ui_main.obj
 0002:00003f04       ??_C@_0BD@BLPOOELL@ui?1jk2mpingame?4txt?$AA@ 4002cf04     ui_main.obj
 0002:00003f18       ??_C@_0O@ODJBFCEM@MENUS3_SOURCE?$AA@ 4002cf18     ui_main.obj
 0002:00003f28       ??_C@_06DELKPIEN@?$CFi?4?5?$CFs?$AA@ 4002cf28     ui_main.obj
 0002:00003f30       ??_C@_05OHCDHBAC@Human?$AA@ 4002cf30     ui_main.obj
 0002:00003f38       ??_C@_03IPHJCBHH@YES?$AA@  4002cf38     ui_main.obj
 0002:00003f3c       ??_C@_06LCHGBAEF@MENUS0?$AA@ 4002cf3c     ui_main.obj
 0002:00003f44       ??_C@_02NFLNFON@NO?$AA@    4002cf44     ui_main.obj
 0002:00003f48       ??_C@_0P@PMJMCPLH@FORCEDESC_DARK?$AA@ 4002cf48     ui_main.obj
 0002:00003f58       ??_C@_0BA@DCIMPCAI@FORCEDESC_LIGHT?$AA@ 4002cf58     ui_main.obj
 0002:00003f68       ??_C@_07MCAEODGB@Default?$AA@ 4002cf68     ui_main.obj
 0002:00003f70       ??_C@_0M@FKIBDECH@ui_gameType?$AA@ 4002cf70     ui_main.obj
 0002:00003f7c       ??_C@_0L@KHOJDC@ui_Q3Model?$AA@ 4002cf7c     ui_main.obj
 0002:00003f88       ??_C@_0BF@NOPONDOP@ui_actualnetGameType?$AA@ 4002cf88     ui_main.obj
 0002:00003fa0       ??_C@_0BC@PLCOEMKP@wait?55?$DL?5team?5Red?6?$AA@ 4002cfa0     ui_main.obj
 0002:00003fb4       ??_C@_0BH@NGLPBCMJ@addbot?5?$CFs?5?$CFf?5?$CFs?5?$CFi?5?$CFs?6?$AA@ 4002cfb4     ui_main.obj
 0002:00003fcc       ??_C@_0BL@FAEKLKLG@wait?5?$DL?5addbot?5?$CFs?5?$CFf?5?0?5?$CFi?5?6?$AA@ 4002cfcc     ui_main.obj
 0002:00003fe8       ??_C@_0BE@CELIAELA@ui_recordSPDemoName?$AA@ 4002cfe8     ui_main.obj
 0002:00003ffc       ??_C@_05LOPJBLNH@?$CFs_?$CFi?$AA@ 4002cffc     ui_main.obj
 0002:00004004       ??_C@_0L@OOBNLHBJ@g_blueTeam?$AA@ 4002d004     ui_main.obj
 0002:00004010       ??_C@_09HOBGGEAD@g_redTeam?$AA@ 4002d010     ui_main.obj
 0002:0000401c       ??_C@_0O@HACBLENO@ui_maxClients?$AA@ 4002d01c     ui_main.obj
 0002:0000402c       ??_C@_0M@KJJNNCLO@ui_scoreMap?$AA@ 4002d02c     ui_main.obj
 0002:00004038       ??_C@_0BG@IEGGLJFO@wait?5?$DL?5wait?5?$DL?5map?5?$CFs?6?$AA@ 4002d038     ui_main.obj
 0002:00004050       ??_C@_01LKDEMHDF@s?$AA@    4002d050     ui_main.obj
 0002:00004054       ??_C@_0BJ@FFDAOGAH@MENUS3_SERVERS_FOUNDWITH?$AA@ 4002d054     ui_main.obj
 0002:00004070       ??_C@_0BB@LOIEJCIF@no?5servers?5found?$AA@ 4002d070     ui_main.obj
 0002:00004084       ??_C@_0BD@CEHDDMNK@searching?5?$CFd?1?$CFd?4?4?4?$AA@ 4002d084     ui_main.obj
 0002:00004098       ??_C@_0BA@ENIDMEN@searching?5?$CFd?4?4?4?$AA@ 4002d098     ui_main.obj
 0002:000040a8       ??_C@_0BK@NLNALACG@cl_serverStatusResendTime?$AA@ 4002d0a8     ui_main.obj
 0002:000040c4       __real@43880000            4002d0c4     ui_main.obj
 0002:000040c8       ??_C@_05GFOLEBJA@?$CFs?1?$CFs?$AA@ 4002d0c8     ui_main.obj
 0002:000040d0       ??_C@_07OEKBAJML@?$CI?$CFs?5?$CFs?$CJ?$AA@ 4002d0d0     ui_main.obj
 0002:000040d8       ??_C@_0L@MBCOHHKN@estimating?$AA@ 4002d0d8     ui_main.obj
 0002:000040e4       __real@43200000            4002d0e4     ui_main.obj
 0002:000040e8       ??_C@_0O@GGKDMBIP@?$CI?$CFs?5?$CFs?5?$CFs?5?$CFs?$CJ?$AA@ 4002d0e8     ui_main.obj
 0002:000040f8       __real@43580000            4002d0f8     ui_main.obj
 0002:000040fc       __real@43080000            4002d0fc     ui_main.obj
 0002:00004100       ??_C@_09KPPELEEE@?$CFs?5?$CI?$CFd?$CF?$CF?$CJ?$AA@ 4002d100     ui_main.obj
 0002:0000410c       __real@43780000            4002d10c     ui_main.obj
 0002:00004110       __real@43400000            4002d110     ui_main.obj
 0002:00004114       __real@42e00000            4002d114     ui_main.obj
 0002:00004118       ??_C@_0BA@CHCCPCBI@cl_downloadTime?$AA@ 4002d118     ui_main.obj
 0002:00004128       ??_C@_0BB@FAHDFBEE@cl_downloadCount?$AA@ 4002d128     ui_main.obj
 0002:0000413c       ??_C@_0BA@IMGLJLPN@cl_downloadSize?$AA@ 4002d13c     ui_main.obj
 0002:0000414c       ??_C@_0P@LJADJEPN@DOWNLOAD_STUFF?$AA@ 4002d14c     ui_main.obj
 0002:0000415c       ??_C@_0BL@HFAIMJNF@MENUS3_AWAITING_CONNECTION?$AA@ 4002d15c     ui_main.obj
 0002:00004178       ??_C@_0BK@LOEKJNAK@MENUS3_AWAITING_CHALLENGE?$AA@ 4002d178     ui_main.obj
 0002:00004194       ??_C@_0BK@DADGNILE@MENUS3_AWAITING_GAMESTATE?$AA@ 4002d194     ui_main.obj
 0002:000041b0       ??_C@_0BA@MIMGFFNE@cl_downloadName?$AA@ 4002d1b0     ui_main.obj
 0002:000041c0       ??_C@_04GJFDDCGE@motd?$AA@ 4002d1c0     ui_main.obj
 0002:000041c8       ??_C@_0BF@HLNFJEFJ@MENUS3_CONNECTING_TO?$AA@ 4002d1c8     ui_main.obj
 0002:000041e0       ??_C@_0BD@PLOKHBGM@MENUS3_STARTING_UP?$AA@ 4002d1e0     ui_main.obj
 0002:000041f4       ??_C@_09IPAEKDAI@localhost?$AA@ 4002d1f4     ui_main.obj
 0002:00004200       __real@43a00000            4002d200     ui_main.obj
 0002:00004204       ??_C@_0BH@IACNKDCG@MENUS3_LOADING_MAPNAME?$AA@ 4002d204     ui_main.obj
 0002:0000421c       ??_C@_07FJPHLACI@Connect?$AA@ 4002d21c     ui_main.obj
 0002:00004224       ??_C@_0BF@OIDAJKAK@globalservers?5?$CFd?5?$CFd?6?$AA@ 4002d224     ui_main.obj
 0002:0000423c       ??_C@_0BF@PBFJCPPP@globalservers?5?$CFd?5?$CFs?6?$AA@ 4002d23c     ui_main.obj
 0002:00004254       ??_C@_0P@EAAPMMHH@debug_protocol?$AA@ 4002d254     ui_main.obj
 0002:00004264       ??_C@_0O@GPLHFEBB@localservers?6?$AA@ 4002d264     ui_main.obj
 0002:00004274       ??_C@_0BD@LBKOHDFN@?$CFs?9?$CFi?0?5?$CFi?5?$EA?5?$CFi?3?$CF2i?$AA@ 4002d274     ui_main.obj
 0002:00004288       ??_C@_0N@IAGLNLB@SET_NEW_RANK?$AA@ 4002d288     ui_main.obj
 0002:00004298       ??_C@_0BG@CKECLFAA@unknown?5UI?5script?5?$CFs?6?$AA@ 4002d298     ui_main.obj
 0002:000042b0       ??_C@_06HDLLMMEJ@update?$AA@ 4002d2b0     ui_main.obj
 0002:000042b8       ??_C@_0BC@KAOKGCMG@updateForceStatus?$AA@ 4002d2b8     ui_main.obj
 0002:000042cc       ??_C@_0O@BJNHPHDC@weaponDisable?$AA@ 4002d2cc     ui_main.obj
 0002:000042dc       ??_C@_0BD@FJFBNPB@forcePowersDisable?$AA@ 4002d2dc     ui_main.obj
 0002:000042f0       ??_C@_08EBELHFHN@glCustom?$AA@ 4002d2f0     ui_main.obj
 0002:000042fc       ??_C@_0N@NDDLJAP@refreshForce?$AA@ 4002d2fc     ui_main.obj
 0002:0000430c       ??_C@_0N@KHMHBFNB@saveTemplate?$AA@ 4002d30c     ui_main.obj
 0002:0000431c       ??_C@_04FMLAMFAK@same?$AA@ 4002d31c     ui_main.obj
 0002:00004324       ??_C@_04CGFJFPFD@none?$AA@ 4002d324     ui_main.obj
 0002:0000432c       ??_C@_08BLKMFMH@setForce?$AA@ 4002d32c     ui_main.obj
 0002:00004338       ??_C@_0M@JLOCKKJD@voiceOrders?$AA@ 4002d338     ui_main.obj
 0002:00004344       ??_C@_0BA@CIKCJHJJ@voiceOrdersTeam?$AA@ 4002d344     ui_main.obj
 0002:00004354       ??_C@_01EEMJAFIK@?6?$AA@   4002d354     ui_main.obj
 0002:00004358       ??_C@_06GKKKPAPA@orders?$AA@ 4002d358     ui_main.obj
 0002:00004360       ??_C@_0BE@GHLACGPA@Favorite?5list?5full?6?$AA@ 4002d360     ui_main.obj
 0002:00004374       ??_C@_0BK@MJOGKENH@Favorite?5already?5in?5list?6?$AA@ 4002d374     ui_main.obj
 0002:00004390       ??_C@_0BD@IEIPHBLJ@ui_favoriteAddress?$AA@ 4002d390     ui_main.obj
 0002:000043a4       ??_C@_0BA@LFABJOCG@ui_favoriteName?$AA@ 4002d3a4     ui_main.obj
 0002:000043b4       ??_C@_0P@OAONNFHL@createFavorite?$AA@ 4002d3b4     ui_main.obj
 0002:000043c4       ??_C@_0P@PMAAHNFK@deleteFavorite?$AA@ 4002d3c4     ui_main.obj
 0002:000043d4       ??_C@_0BK@FHDFKECC@Added?5favorite?5server?5?$CFs?6?$AA@ 4002d3d4     ui_main.obj
 0002:000043f0       ??_C@_0M@EGEBIODJ@addFavorite?$AA@ 4002d3f0     ui_main.obj
 0002:000043fc       ??_C@_0BB@NDKGFBMM@addbot?5?$CFs?5?$CFi?5?$CFs?6?$AA@ 4002d3fc     ui_main.obj
 0002:00004410       __real@40a00000            4002d410     ui_main.obj
 0002:00004414       ??_C@_06IJEAFLEI@addBot?$AA@ 4002d414     ui_main.obj
 0002:0000441c       ??_C@_0BK@IIDJGHM@callteamvote?5leader?5?$CC?$CFs?$CC?6?$AA@ 4002d41c     ui_main.obj
 0002:00004438       ??_C@_0L@PNGBIKK@voteLeader?$AA@ 4002d438     ui_main.obj
 0002:00004444       ??_C@_0BI@HLNKMHP@callvote?5g_gametype?5?$CFi?6?$AA@ 4002d444     ui_main.obj
 0002:0000445c       ??_C@_08OCFGFKGG@voteGame?$AA@ 4002d45c     ui_main.obj
 0002:00004468       ??_C@_0BK@PAGDHLNA@callvote?5clientkick?5?$CC?$CFi?$CC?6?$AA@ 4002d468     ui_main.obj
 0002:00004484       ??_C@_08HGAPJPAM@voteKick?$AA@ 4002d484     ui_main.obj
 0002:00004490       ??_C@_0BB@MMOGBGK@callvote?5map?5?$CFs?6?$AA@ 4002d490     ui_main.obj
 0002:000044a4       ??_C@_07EDCJGLGG@voteMap?$AA@ 4002d4a4     ui_main.obj
 0002:000044ac       ??_C@_0M@CMDMBGBD@closeingame?$AA@ 4002d4ac     ui_main.obj
 0002:000044b8       ??_C@_0O@NIAKDABK@SkirmishStart?$AA@ 4002d4b8     ui_main.obj
 0002:000044c8       ??_C@_0N@ENKJLKKO@nextSkirmish?$AA@ 4002d4c8     ui_main.obj
 0002:000044d8       ??_C@_0L@GJDENEEM@ServerSort?$AA@ 4002d4d8     ui_main.obj
 0002:000044e4       ??_C@_0BB@PAGDEKNE@updatevideosetup?$AA@ 4002d4e4     ui_main.obj
 0002:000044f8       ??_C@_0O@GJOHOGLC@getvideosetup?$AA@ 4002d4f8     ui_main.obj
 0002:00004508       ??_C@_0M@MNJNCGPD@disconnect?6?$AA@ 4002d508     ui_main.obj
 0002:00004514       ??_C@_05KMBJHHBA@Leave?$AA@ 4002d514     ui_main.obj
 0002:0000451c       ??_C@_0M@ELCNGBBL@setup_menu2?$AA@ 4002d51c     ui_main.obj
 0002:00004528       ??_C@_08BJJAFCGA@Controls?$AA@ 4002d528     ui_main.obj
 0002:00004534       ??_C@_04KNNLNNGO@quit?$AA@ 4002d534     ui_main.obj
 0002:0000453c       ??_C@_04GMBKPCGK@Quit?$AA@ 4002d53c     ui_main.obj
 0002:00004544       ??_C@_0BG@HCFHGGBJ@FoundPlayerJoinServer?$AA@ 4002d544     ui_main.obj
 0002:0000455c       ??_C@_0M@LNGHCJI@connect?5?$CFs?6?$AA@ 4002d55c     ui_main.obj
 0002:00004568       ??_C@_0L@GBIFOGGA@JoinServer?$AA@ 4002d568     ui_main.obj
 0002:00004574       ??_C@_0L@PKOEMDLA@FindPlayer?$AA@ 4002d574     ui_main.obj
 0002:00004580       ??_C@_0BI@NGEOLCDJ@FoundPlayerServerStatus?$AA@ 4002d580     ui_main.obj
 0002:00004598       ??_C@_0N@MFALOAHE@ServerStatus?$AA@ 4002d598     ui_main.obj
 0002:000045a8       ??_C@_0N@MIKCKLPA@UpdateFilter?$AA@ 4002d5a8     ui_main.obj
 0002:000045b8       ??_C@_0M@DFCCPELD@StopRefresh?$AA@ 4002d5b8     ui_main.obj
 0002:000045c4       ??_C@_0L@CIKEFACL@joinserver?$AA@ 4002d5c4     ui_main.obj
 0002:000045d0       ??_C@_09NNPOKNDJ@closeJoin?$AA@ 4002d5d0     ui_main.obj
 0002:000045dc       ??_C@_06EONMBMPE@Quake3?$AA@ 4002d5dc     ui_main.obj
 0002:000045e4       ??_C@_0L@NDAIPINK@demo?5?$CC?$CFs?$CC?6?$AA@ 4002d5e4     ui_main.obj
 0002:000045f0       ??_C@_07CJBJDCI@RunDemo?$AA@ 4002d5f0     ui_main.obj
 0002:000045f8       ??_C@_07FMAMAFJE@fs_game?$AA@ 4002d5f8     ui_main.obj
 0002:00004600       ??_C@_06IAFACPBP@RunMod?$AA@ 4002d600     ui_main.obj
 0002:00004608       ??_C@_0BE@GDKNLHFF@cinematic?5?$CFs?4roq?52?6?$AA@ 4002d608     ui_main.obj
 0002:0000461c       ??_C@_09IMKGDMFP@playMovie?$AA@ 4002d61c     ui_main.obj
 0002:00004628       ??_C@_08BONFJBCM@LoadMods?$AA@ 4002d628     ui_main.obj
 0002:00004634       ??_C@_0L@NBLDIGEO@LoadMovies?$AA@ 4002d634     ui_main.obj
 0002:00004640       ??_C@_09DDFPMPLA@LoadDemos?$AA@ 4002d640     ui_main.obj
 0002:0000464c       ??_C@_0M@FADNIBBJ@demo?5?$CFs_?$CFi?6?$AA@ 4002d64c     ui_main.obj
 0002:00004658       ??_C@_09MDJDNIJB@RunSPDemo?$AA@ 4002d658     ui_main.obj
 0002:00004664       ??_C@_0O@IEJIOIFM@RefreshFilter?$AA@ 4002d664     ui_main.obj
 0002:00004674       ??_C@_0P@NGKMMKLC@RefreshServers?$AA@ 4002d674     ui_main.obj
 0002:00004684       ??_C@_0M@ECEPFMDA@resetScores?$AA@ 4002d684     ui_main.obj
 0002:00004690       ??_C@_0N@EDJNMDIG@loadGameInfo?$AA@ 4002d690     ui_main.obj
 0002:000046a0       ??_C@_0L@KEOECIBG@clearError?$AA@ 4002d6a0     ui_main.obj
 0002:000046ac       ??_C@_0N@HHDEHNGC@loadControls?$AA@ 4002d6ac     ui_main.obj
 0002:000046bc       ??_C@_0N@GFHNGHOF@saveControls?$AA@ 4002d6bc     ui_main.obj
 0002:000046cc       ??_C@_0N@LKMLHDLL@createserver?$AA@ 4002d6cc     ui_main.obj
 0002:000046dc       ??_C@_0L@JCFJAPJP@loadArenas?$AA@ 4002d6dc     ui_main.obj
 0002:000046e8       ??_C@_0BA@DOMILBID@com_introPlayed?$AA@ 4002d6e8     ui_main.obj
 0002:000046f8       ??_C@_0N@DAGNKKMD@vid_restart?6?$AA@ 4002d6f8     ui_main.obj
 0002:00004708       ??_C@_0BE@HCEDAJLB@exec?5mpdefault?4cfg?6?$AA@ 4002d708     ui_main.obj
 0002:0000471c       ??_C@_0O@FOFBEHAC@cvar_restart?6?$AA@ 4002d71c     ui_main.obj
 0002:0000472c       ??_C@_0O@JMPPEAEI@resetDefaults?$AA@ 4002d72c     ui_main.obj
 0002:0000473c       ??_C@_0N@DKFPEKGB@updateSPMenu?$AA@ 4002d73c     ui_main.obj
 0002:0000474c       ??_C@_0P@EMLAOALC@addbot?5?$CFs?5?$CFf?5?6?$AA@ 4002d74c     ui_main.obj
 0002:0000475c       ??_C@_0BB@CCPAODBJ@addbot?5?$CFs?5?$CFf?5?$CFs?6?$AA@ 4002d75c     ui_main.obj
 0002:00004770       ??_C@_03GOIFLICK@120?$AA@  4002d770     ui_main.obj
 0002:00004774       ??_C@_09BJOAODLF@dedicated?$AA@ 4002d774     ui_main.obj
 0002:00004780       ??_C@_0M@JNAJLIPJ@StartServer?$AA@ 4002d780     ui_main.obj
 0002:0000478c       ??_C@_0M@ODDHMFFP@ui_hidelang?$AA@ 4002d78c     ui_main.obj
 0002:00004798       ??_C@_05PMAELIEO@white?$AA@ 4002d798     ui_main.obj
 0002:000047a0       ??_C@_0BD@CHEDBJDN@menu?1art?13_cursor2?$AA@ 4002d7a0     ui_main.obj
 0002:000047b4       ??_C@_07ENOMNCPB@menus?$CFd?$AA@ 4002d7b4     ui_main.obj
 0002:000047c0       __real@3ff5555555555555    4002d7c0     ui_main.obj
 0002:000047c8       __real@3f5999999999999a    4002d7c8     ui_main.obj
 0002:000047d0       __real@3f61111111111111    4002d7d0     ui_main.obj
 0002:000047d8       ??_C@_09LMHPKFJB@soundLoop?$AA@ 4002d7d8     ui_shared.obj
 0002:000047e4       ??_C@_05EIEHMANA@popup?$AA@ 4002d7e4     ui_shared.obj
 0002:000047ec       ??_C@_06CJGNFCEB@onOpen?$AA@ 4002d7ec     ui_shared.obj
 0002:000047f4       ??_C@_0BB@FOHPFLED@outOfBoundsClick?$AA@ 4002d7f4     ui_shared.obj
 0002:00004808       ??_C@_05IIPJAONP@onESC?$AA@ 4002d808     ui_shared.obj
 0002:00004810       ??_C@_07LAOJOJAJ@onClose?$AA@ 4002d810     ui_shared.obj
 0002:00004818       ??_C@_07BNAIEIKL@itemDef?$AA@ 4002d818     ui_shared.obj
 0002:00004820       ??_C@_0L@GIACNHMO@fullscreen?$AA@ 4002d820     ui_shared.obj
 0002:0000482c       ??_C@_0L@OKFLOHAM@focuscolor?$AA@ 4002d82c     ui_shared.obj
 0002:00004838       ??_C@_0N@EEPADJLO@disablecolor?$AA@ 4002d838     ui_shared.obj
 0002:00004848       ??_C@_09MEFJHNGH@descScale?$AA@ 4002d848     ui_shared.obj
 0002:00004854       ??_C@_05NEOIHHDL@descY?$AA@ 4002d854     ui_shared.obj
 0002:0000485c       ??_C@_05MNPDEGHK@descX?$AA@ 4002d85c     ui_shared.obj
 0002:00004864       ??_C@_09PAHMHFNJ@desccolor?$AA@ 4002d864     ui_shared.obj
 0002:00004870       ??_C@_0O@COCPBLJA@descAlignment?$AA@ 4002d870     ui_shared.obj
 0002:00004880       ??_C@_0L@NBMNMLHL@borderSize?$AA@ 4002d880     ui_shared.obj
 0002:0000488c       ??_C@_0BE@MBDLAKDH@appearanceIncrement?$AA@ 4002d88c     ui_shared.obj
 0002:000048a0       ??_C@_0L@PPHHMIKE@lineHeight?$AA@ 4002d8a0     ui_shared.obj
 0002:000048ac       ??_C@_0N@NGJINDLF@maxLineChars?$AA@ 4002d8ac     ui_shared.obj
 0002:000048bc       ??_C@_07FJHHECNJ@wrapped?$AA@ 4002d8bc     ui_shared.obj
 0002:000048c4       ??_C@_07DPDAEJMK@visible?$AA@ 4002d8c4     ui_shared.obj
 0002:000048cc       ??_C@_0M@NBEMMMLH@text2aligny?$AA@ 4002d8cc     ui_shared.obj
 0002:000048d8       ??_C@_0M@MIFHPNPG@text2alignx?$AA@ 4002d8d8     ui_shared.obj
 0002:000048e4       ??_C@_05JPFPPFDI@text2?$AA@ 4002d8e4     ui_shared.obj
 0002:000048ec       ??_C@_09FMCFHDEN@textstyle?$AA@ 4002d8ec     ui_shared.obj
 0002:000048f8       ??_C@_09BLEIEHKP@textscale?$AA@ 4002d8f8     ui_shared.obj
 0002:00004904       ??_C@_0L@FCLMCIJC@textaligny?$AA@ 4002d904     ui_shared.obj
 0002:00004910       ??_C@_0L@ELKHBJND@textalignx?$AA@ 4002d910     ui_shared.obj
 0002:0000491c       ??_C@_09PNBDGNCL@textalign?$AA@ 4002d91c     ui_shared.obj
 0002:00004928       ??_C@_04CIMGMMMG@text?$AA@ 4002d928     ui_shared.obj
 0002:00004930       ??_C@_05IAKJCFIM@style?$AA@ 4002d930     ui_shared.obj
 0002:00004938       ??_C@_07BELCMIIP@special?$AA@ 4002d938     ui_shared.obj
 0002:00004940       ??_C@_08LNBEMJIA@showCvar?$AA@ 4002d940     ui_shared.obj
 0002:0000494c       ??_C@_04LHPFHFPH@rect?$AA@ 4002d94c     ui_shared.obj
 0002:00004954       ??_C@_0O@DACAJCLK@ownerdrawFlag?$AA@ 4002d954     ui_shared.obj
 0002:00004964       ??_C@_09HGLBOMNF@ownerdraw?$AA@ 4002d964     ui_shared.obj
 0002:00004970       ??_C@_0N@LGJOCBPD@outlinecolor?$AA@ 4002d970     ui_shared.obj
 0002:00004980       ??_C@_07PFEHHELH@onFocus?$AA@ 4002d980     ui_shared.obj
 0002:00004988       ??_C@_0O@FDEIBLKE@notselectable?$AA@ 4002d988     ui_shared.obj
 0002:00004998       ??_C@_0O@GFPABKKP@mouseExitText?$AA@ 4002d998     ui_shared.obj
 0002:000049a8       ??_C@_09OIHCIOIA@mouseExit?$AA@ 4002d9a8     ui_shared.obj
 0002:000049b4       ??_C@_0P@BCEPHLNB@mouseEnterText?$AA@ 4002d9b4     ui_shared.obj
 0002:000049c4       ??_C@_0L@KAGOMOPN@mouseEnter?$AA@ 4002d9c4     ui_shared.obj
 0002:000049d0       ??_C@_0P@NOKHMHPD@model_rotation?$AA@ 4002d9d0     ui_shared.obj
 0002:000049e0       ??_C@_0N@LHLPLFLG@model_origin?$AA@ 4002d9e0     ui_shared.obj
 0002:000049f0       ??_C@_0L@NMCIJLPA@model_fovy?$AA@ 4002d9f0     ui_shared.obj
 0002:000049fc       ??_C@_0L@MFDDKKLB@model_fovx?$AA@ 4002d9fc     ui_shared.obj
 0002:00004a08       ??_C@_0M@HHMGANAM@model_angle?$AA@ 4002da08     ui_shared.obj
 0002:00004a14       ??_C@_0O@HPCOAMJM@maxPaintChars?$AA@ 4002da14     ui_shared.obj
 0002:00004a24       ??_C@_08IHGPPBOI@maxChars?$AA@ 4002da24     ui_shared.obj
 0002:00004a30       ??_C@_0L@LMAJDKOE@leaveFocus?$AA@ 4002da30     ui_shared.obj
 0002:00004a3c       ??_C@_0BB@EIBMEDHI@horizontalscroll?$AA@ 4002da3c     ui_shared.obj
 0002:00004a50       ??_C@_08BDDCOCNI@hideCvar?$AA@ 4002da50     ui_shared.obj
 0002:00004a5c       ??_C@_05MGJOOGAJ@group?$AA@ 4002da5c     ui_shared.obj
 0002:00004a64       ??_C@_09MONNBKNO@forecolor?$AA@ 4002da64     ui_shared.obj
 0002:00004a70       ??_C@_0L@NOGKCHFE@focusSound?$AA@ 4002da70     ui_shared.obj
 0002:00004a7c       ??_C@_04DNPGJOMD@flag?$AA@ 4002da7c     ui_shared.obj
 0002:00004a84       ??_C@_06GEEPENGB@feeder?$AA@ 4002da84     ui_shared.obj
 0002:00004a8c       ??_C@_0L@LCDHKNEJ@enableCvar?$AA@ 4002da8c     ui_shared.obj
 0002:00004a98       ??_C@_0N@MILKKPGL@elementwidth?$AA@ 4002da98     ui_shared.obj
 0002:00004aa8       ??_C@_0M@HBNIAHKL@elementtype?$AA@ 4002daa8     ui_shared.obj
 0002:00004ab4       ??_C@_0O@MNJDKOBB@elementheight?$AA@ 4002dab4     ui_shared.obj
 0002:00004ac4       ??_C@_0M@IHJKFHF@doubleclick?$AA@ 4002dac4     ui_shared.obj
 0002:00004ad0       ??_C@_0M@FBHLBFCC@disableCvar?$AA@ 4002dad0     ui_shared.obj
 0002:00004adc       ??_C@_0L@GFEIECKE@decoration?$AA@ 4002dadc     ui_shared.obj
 0002:00004ae8       ??_C@_08MCIJOGEA@desctext?$AA@ 4002dae8     ui_shared.obj
 0002:00004af4       ??_C@_08KBIDCBHN@cvarTest?$AA@ 4002daf4     ui_shared.obj
 0002:00004b00       ??_C@_0M@GOKMFACI@cvarStrList?$AA@ 4002db00     ui_shared.obj
 0002:00004b0c       ??_C@_0O@IKNDJMDK@cvarFloatList?$AA@ 4002db0c     ui_shared.obj
 0002:00004b1c       ??_C@_09CGGKHKAP@cvarFloat?$AA@ 4002db1c     ui_shared.obj
 0002:00004b28       ??_C@_04PNAHEAFM@cvar?$AA@ 4002db28     ui_shared.obj
 0002:00004b30       ??_C@_07HIFEPIJN@columns?$AA@ 4002db30     ui_shared.obj
 0002:00004b38       ??_C@_09DHDJHDLH@cinematic?$AA@ 4002db38     ui_shared.obj
 0002:00004b44       ??_C@_0L@BAAMOEHP@bordersize?$AA@ 4002db44     ui_shared.obj
 0002:00004b50       ??_C@_0M@CJNAABJD@bordercolor?$AA@ 4002db50     ui_shared.obj
 0002:00004b5c       ??_C@_06ODFLABIG@border?$AA@ 4002db5c     ui_shared.obj
 0002:00004b64       ??_C@_0L@EGCKCJDC@background?$AA@ 4002db64     ui_shared.obj
 0002:00004b70       ??_C@_09OPNKCLNO@backcolor?$AA@ 4002db70     ui_shared.obj
 0002:00004b7c       ??_C@_0N@HLFJAKEA@asset_shader?$AA@ 4002db7c     ui_shared.obj
 0002:00004b8c       ??_C@_0M@DKAIGAGN@asset_model?$AA@ 4002db8c     ui_shared.obj
 0002:00004b98       ??_C@_0BA@HJNHMKEG@appearance_slot?$AA@ 4002db98     ui_shared.obj
 0002:00004ba8       ??_C@_0M@HHKOOJO@autowrapped?$AA@ 4002dba8     ui_shared.obj
 0002:00004bb4       ??_C@_05CBJPDLOK@align?$AA@ 4002dbb4     ui_shared.obj
 0002:00004bbc       ??_C@_0O@BGFKBLBI@addColorRange?$AA@ 4002dbbc     ui_shared.obj
 0002:00004bcc       ??_C@_06DDLLCOJG@action?$AA@ 4002dbcc     ui_shared.obj
 0002:00004bd8       ??_C@_0BB@IOOMJMJB@cg_thirdperson?5?$CB?$AA@ 4002dbd8     ui_shared.obj
 0002:00004bec       ??_C@_0L@HCOPHPIB@use_sentry?$AA@ 4002dbec     ui_shared.obj
 0002:00004bf8       ??_C@_0BG@OOGFIKBA@use_electrobinoculars?$AA@ 4002dbf8     ui_shared.obj
 0002:00004c10       ??_C@_09GPEOCDOP@use_bacta?$AA@ 4002dc10     ui_shared.obj
 0002:00004c1c       ??_C@_09IOIGHDGJ@use_field?$AA@ 4002dc1c     ui_shared.obj
 0002:00004c28       ??_C@_0L@PHNIGFGH@use_seeker?$AA@ 4002dc28     ui_shared.obj
 0002:00004c34       ??_C@_07FMBGBNAB@invprev?$AA@ 4002dc34     ui_shared.obj
 0002:00004c3c       ??_C@_07GIMAAJGF@invnext?$AA@ 4002dc3c     ui_shared.obj
 0002:00004c44       ??_C@_09EANJKMNE@forceprev?$AA@ 4002dc44     ui_shared.obj
 0002:00004c50       ??_C@_09HEAPLILA@forcenext?$AA@ 4002dc50     ui_shared.obj
 0002:00004c5c       ??_C@_09LMEPJCFC@?$CLuseforce?$AA@ 4002dc5c     ui_shared.obj
 0002:00004c68       ??_C@_0N@PIIHDBOG@force_seeing?$AA@ 4002dc68     ui_shared.obj
 0002:00004c78       ??_C@_0BG@IPJAFHDH@force_forcepowerother?$AA@ 4002dc78     ui_shared.obj
 0002:00004c90       ??_C@_0BA@FAEJBFDN@force_healother?$AA@ 4002dc90     ui_shared.obj
 0002:00004ca0       ??_C@_0N@LHEDBPBG@force_absorb?$AA@ 4002dca0     ui_shared.obj
 0002:00004cb0       ??_C@_0O@MHNHIGKF@force_protect?$AA@ 4002dcb0     ui_shared.obj
 0002:00004cc0       ??_C@_0L@PNAILJHA@force_rage?$AA@ 4002dcc0     ui_shared.obj
 0002:00004ccc       ??_C@_0N@FFCOOBHL@?$CLforce_drain?$AA@ 4002dccc     ui_shared.obj
 0002:00004cdc       ??_C@_0BB@PDNGOECE@?$CLforce_lightning?$AA@ 4002dcdc     ui_shared.obj
 0002:00004cf0       ??_C@_0M@FDHOJKJI@?$CLforce_grip?$AA@ 4002dcf0     ui_shared.obj
 0002:00004cfc       ??_C@_0L@INHFGGPP@force_heal?$AA@ 4002dcfc     ui_shared.obj
 0002:00004d08       ??_C@_0P@PMALMCEF@force_distract?$AA@ 4002dd08     ui_shared.obj
 0002:00004d18       ??_C@_0M@GNLMHCDK@force_speed?$AA@ 4002dd18     ui_shared.obj
 0002:00004d24       ??_C@_0L@IFCEHOHA@force_pull?$AA@ 4002dd24     ui_shared.obj
 0002:00004d30       ??_C@_0M@IBJPDFKD@force_throw?$AA@ 4002dd30     ui_shared.obj
 0002:00004d3c       ??_C@_0M@DBDAMOEM@?$CLforce_jump?$AA@ 4002dd3c     ui_shared.obj
 0002:00004d48       ??_C@_0N@NFNJCLFL@messagemode4?$AA@ 4002dd48     ui_shared.obj
 0002:00004d58       ??_C@_0N@JKJILNJM@messagemode3?$AA@ 4002dd58     ui_shared.obj
 0002:00004d68       ??_C@_0N@IDIDIMNN@messagemode2?$AA@ 4002dd68     ui_shared.obj
 0002:00004d78       ??_C@_0M@JINOELJH@messagemode?$AA@ 4002dd78     ui_shared.obj
 0002:00004d84       ??_C@_0L@JEAJCAAH@scoresDown?$AA@ 4002dd84     ui_shared.obj
 0002:00004d90       ??_C@_08NILIEBDN@scoresUp?$AA@ 4002dd90     ui_shared.obj
 0002:00004d9c       ??_C@_0O@BNPKDDEF@tauntGauntlet?$AA@ 4002dd9c     ui_shared.obj
 0002:00004dac       ??_C@_0BB@DHLHLJJP@tauntDeathInsult?$AA@ 4002ddac     ui_shared.obj
 0002:00004dc0       ??_C@_0L@OFGCNOGN@tauntTaunt?$AA@ 4002ddc0     ui_shared.obj
 0002:00004dcc       ??_C@_0M@FHJJKLIB@tauntPraise?$AA@ 4002ddcc     ui_shared.obj
 0002:00004dd8       ??_C@_0BA@LAKLAIKA@tauntKillInsult?$AA@ 4002ddd8     ui_shared.obj
 0002:00004de8       ??_C@_0M@HEJOPHDA@taskSuicide?$AA@ 4002dde8     ui_shared.obj
 0002:00004df4       ??_C@_0M@NPBCACOK@taskOwnFlag?$AA@ 4002ddf4     ui_shared.obj
 0002:00004e00       ??_C@_0L@JKHNIMGE@taskEscort?$AA@ 4002de00     ui_shared.obj
 0002:00004e0c       ??_C@_0N@DNLIECKN@taskRetrieve?$AA@ 4002de0c     ui_shared.obj
 0002:00004e1c       ??_C@_0L@HALHAPMG@taskFollow?$AA@ 4002de1c     ui_shared.obj
 0002:00004e28       ??_C@_08OELCHPPI@taskCamp?$AA@ 4002de28     ui_shared.obj
 0002:00004e34       ??_C@_0L@HNDPADH@taskPatrol?$AA@ 4002de34     ui_shared.obj
 0002:00004e40       ??_C@_0M@JPJGJJPF@taskDefense?$AA@ 4002de40     ui_shared.obj
 0002:00004e4c       ??_C@_0M@PDBEJPDO@taskOffense?$AA@ 4002de4c     ui_shared.obj
 0002:00004e58       ??_C@_09PEFBKJOE@denyOrder?$AA@ 4002de58     ui_shared.obj
 0002:00004e64       ??_C@_0N@KJLGMAFH@confirmOrder?$AA@ 4002de64     ui_shared.obj
 0002:00004e74       ??_C@_09DIHAGAEB@nextOrder?$AA@ 4002de74     ui_shared.obj
 0002:00004e80       ??_C@_0P@GJIGAACM@nextTeamMember?$AA@ 4002de80     ui_shared.obj
 0002:00004e90       ??_C@_0P@NMPIEJIB@prevTeamMember?$AA@ 4002de90     ui_shared.obj
 0002:00004ea0       ??_C@_08IJHOKAF@weapnext?$AA@ 4002dea0     ui_shared.obj
 0002:00004eac       ??_C@_08DMEBPOGB@weapprev?$AA@ 4002deac     ui_shared.obj
 0002:00004eb8       ??_C@_06MODDFGLL@?$CLtaunt?$AA@ 4002deb8     ui_shared.obj
 0002:00004ec0       ??_C@_0M@HCFMJNJ@engage_duel?$AA@ 4002dec0     ui_shared.obj
 0002:00004ecc       ??_C@_04JNBAAPLC@?$CLuse?$AA@ 4002decc     ui_shared.obj
 0002:00004ed4       ??_C@_0L@GDIPNNOO@?$CLaltattack?$AA@ 4002ded4     ui_shared.obj
 0002:00004ee0       ??_C@_07MAODEHGM@?$CLattack?$AA@ 4002dee0     ui_shared.obj
 0002:00004ee8       ??_C@_09EAGNIMIH@weapon?513?$AA@ 4002dee8     ui_shared.obj
 0002:00004ef4       ??_C@_09FJHGLNMG@weapon?512?$AA@ 4002def4     ui_shared.obj
 0002:00004f00       ??_C@_09HCFLOOAF@weapon?511?$AA@ 4002df00     ui_shared.obj
 0002:00004f0c       ??_C@_0BB@CFPBIBMB@saberAttackCycle?$AA@ 4002df0c     ui_shared.obj
 0002:00004f20       ??_C@_09GLEANPEE@weapon?510?$AA@ 4002df20     ui_shared.obj
 0002:00004f2c       ??_C@_08MFIOAKPE@weapon?59?$AA@ 4002df2c     ui_shared.obj
 0002:00004f38       ??_C@_08NMJFDLLF@weapon?58?$AA@ 4002df38     ui_shared.obj
 0002:00004f44       ??_C@_08FLANCHHK@weapon?57?$AA@ 4002df44     ui_shared.obj
 0002:00004f50       ??_C@_08ECBGBGDL@weapon?56?$AA@ 4002df50     ui_shared.obj
 0002:00004f5c       ??_C@_08GJDLEFPI@weapon?55?$AA@ 4002df5c     ui_shared.obj
 0002:00004f68       ??_C@_08HACAHELJ@weapon?54?$AA@ 4002df68     ui_shared.obj
 0002:00004f74       ??_C@_08DPGBOCHO@weapon?53?$AA@ 4002df74     ui_shared.obj
 0002:00004f80       ??_C@_08CGHKNDDP@weapon?52?$AA@ 4002df80     ui_shared.obj
 0002:00004f8c       ??_C@_08NFHIAPM@weapon?51?$AA@ 4002df8c     ui_shared.obj
 0002:00004f98       ??_C@_0L@FHIBDANG@centerview?$AA@ 4002df98     ui_shared.obj
 0002:00004fa4       ??_C@_06OBEGBCAL@?$CLmlook?$AA@ 4002dfa4     ui_shared.obj
 0002:00004fac       ??_C@_09KCKOGCLI@?$CLlookdown?$AA@ 4002dfac     ui_shared.obj
 0002:00004fb8       ??_C@_07BDFIGFL@?$CLlookup?$AA@ 4002dfb8     ui_shared.obj
 0002:00004fc0       ??_C@_07CHKKNAEO@?$CLstrafe?$AA@ 4002dfc0     ui_shared.obj
 0002:00004fc8       ??_C@_06NGIHBNMB@?$CLright?$AA@ 4002dfc8     ui_shared.obj
 0002:00004fd0       ??_C@_05HEGFDNLE@?$CLleft?$AA@ 4002dfd0     ui_shared.obj
 0002:00004fd8       ??_C@_09HNJJMOJG@?$CLmovedown?$AA@ 4002dfd8     ui_shared.obj
 0002:00004fe4       ??_C@_07CKGNAPCP@?$CLmoveup?$AA@ 4002dfe4     ui_shared.obj
 0002:00004fec       ??_C@_0L@FMBJCMEG@?$CLmoveright?$AA@ 4002dfec     ui_shared.obj
 0002:00004ff8       ??_C@_09IPJNFGKP@?$CLmoveleft?$AA@ 4002dff8     ui_shared.obj
 0002:00005004       ??_C@_05IPKGNIPH@?$CLback?$AA@ 4002e004     ui_shared.obj
 0002:0000500c       ??_C@_08KKEOHAPB@?$CLforward?$AA@ 4002e00c     ui_shared.obj
 0002:00005018       ??_C@_06JIDIHCBO@?$CLspeed?$AA@ 4002e018     ui_shared.obj
 0002:00005020       ??_C@_08GFFBPDLD@?$CLbutton2?$AA@ 4002e020     ui_shared.obj
 0002:0000502c       ??_C@_07PNHLECKB@?$CLscores?$AA@ 4002e02c     ui_shared.obj
 0002:00005034       ??_C@_0M@CIHCAJBI@rundeferred?$AA@ 4002e034     ui_shared.obj
 0002:00005040       ??_C@_05MBNCFBEN@defer?$AA@ 4002e040     ui_shared.obj
 0002:00005048       ??_C@_05KJPHCDKJ@orbit?$AA@ 4002e048     ui_shared.obj
 0002:00005050       ??_C@_0L@NDOCJLDE@playlooped?$AA@ 4002e050     ui_shared.obj
 0002:0000505c       ??_C@_04GBHMDDO@play?$AA@  4002e05c     ui_shared.obj
 0002:00005064       ??_C@_04MGEIEJAD@exec?$AA@ 4002e064     ui_shared.obj
 0002:0000506c       ??_C@_0O@DOIJMEIF@setcvartocvar?$AA@ 4002e06c     ui_shared.obj
 0002:0000507c       ??_C@_07DFOFNCMO@setcvar?$AA@ 4002e07c     ui_shared.obj
 0002:00005084       ??_C@_0L@KGLELNDP@transition?$AA@ 4002e084     ui_shared.obj
 0002:00005090       ??_C@_0O@DDHOJBLA@setplayerhead?$AA@ 4002e090     ui_shared.obj
 0002:000050a0       ??_C@_0P@COHLPKKB@setplayermodel?$AA@ 4002e0a0     ui_shared.obj
 0002:000050b0       ??_C@_08OKIAJKBO@setfocus?$AA@ 4002e0b0     ui_shared.obj
 0002:000050bc       ??_C@_0N@KMLJLNON@setteamcolor?$AA@ 4002e0bc     ui_shared.obj
 0002:000050cc       ??_C@_0M@DCMJNPEK@setitemrect?$AA@ 4002e0cc     ui_shared.obj
 0002:000050d8       ??_C@_0N@EBBIOPHN@setitemcolor?$AA@ 4002e0d8     ui_shared.obj
 0002:000050e8       ??_C@_0O@FOIIKEEB@setbackground?$AA@ 4002e0e8     ui_shared.obj
 0002:000050f8       ??_C@_08FBOLLCAN@setasset?$AA@ 4002e0f8     ui_shared.obj
 0002:00005104       ??_C@_05LBOHBHFK@close?$AA@ 4002e104     ui_shared.obj
 0002:0000510c       ??_C@_04PMOCAHAA@open?$AA@ 4002e10c     ui_shared.obj
 0002:00005114       ??_C@_08OKIEAMBM@setcolor?$AA@ 4002e114     ui_shared.obj
 0002:00005120       ??_C@_04IBOFHAPJ@hide?$AA@ 4002e120     ui_shared.obj
 0002:00005128       ??_C@_04FKMICODN@show?$AA@ 4002e128     ui_shared.obj
 0002:00005130       ??_C@_07BJADIKJG@fadeout?$AA@ 4002e130     ui_shared.obj
 0002:00005138       ??_C@_06JFGPOFJL@fadein?$AA@ 4002e138     ui_shared.obj
 0002:00005140       ??_C@_0BF@GHBOAADB@ITEM_TYPE_TEXTSCROLL?$AA@ 4002e140     ui_shared.obj
 0002:00005158       ??_C@_0P@LFNHJNLI@ITEM_TYPE_BIND?$AA@ 4002e158     ui_shared.obj
 0002:00005168       ??_C@_0BA@GNNLLMC@ITEM_TYPE_MULTI?$AA@ 4002e168     ui_shared.obj
 0002:00005178       ??_C@_0BA@LBOLKKCE@ITEM_TYPE_YESNO?$AA@ 4002e178     ui_shared.obj
 0002:00005188       ??_C@_0BB@HPDKNELK@ITEM_TYPE_SLIDER?$AA@ 4002e188     ui_shared.obj
 0002:0000519c       ??_C@_0BH@GLLADPJF@ITEM_TYPE_NUMERICFIELD?$AA@ 4002e19c     ui_shared.obj
 0002:000051b4       ??_C@_0BE@EAPBKGDL@ITEM_TYPE_OWNERDRAW?$AA@ 4002e1b4     ui_shared.obj
 0002:000051c8       ??_C@_0BA@IJKKCBAM@ITEM_TYPE_MODEL?$AA@ 4002e1c8     ui_shared.obj
 0002:000051d8       ??_C@_0BC@OFIOAFNP@ITEM_TYPE_LISTBOX?$AA@ 4002e1d8     ui_shared.obj
 0002:000051ec       ??_C@_0BA@OAMKEKLA@ITEM_TYPE_COMBO?$AA@ 4002e1ec     ui_shared.obj
 0002:000051fc       ??_C@_0BE@MNNMOPPO@ITEM_TYPE_EDITFIELD?$AA@ 4002e1fc     ui_shared.obj
 0002:00005210       ??_C@_0BD@ILDGMNNN@ITEM_TYPE_CHECKBOX?$AA@ 4002e210     ui_shared.obj
 0002:00005224       ??_C@_0BG@BAAHBGEB@ITEM_TYPE_RADIOBUTTON?$AA@ 4002e224     ui_shared.obj
 0002:0000523c       ??_C@_0BB@LJMDMMLE@ITEM_TYPE_BUTTON?$AA@ 4002e23c     ui_shared.obj
 0002:00005250       ??_C@_0P@ECMIINLB@ITEM_TYPE_TEXT?$AA@ 4002e250     ui_shared.obj
 0002:00005260       ??_C@_0BB@MDDHAHGK@ITEM_ALIGN_RIGHT?$AA@ 4002e260     ui_shared.obj
 0002:00005274       ??_C@_0BC@JJHJJEIH@ITEM_ALIGN_CENTER?$AA@ 4002e274     ui_shared.obj
 0002:00005288       ??_C@_0BA@CFDMPPCB@ITEM_ALIGN_LEFT?$AA@ 4002e288     ui_shared.obj
 0002:00005298       ??_C@_0BH@CDGHPFEH@WINDOW_STYLE_CINEMATIC?$AA@ 4002e298     ui_shared.obj
 0002:000052b0       ??_C@_0BH@KNCNDPMK@WINDOW_STYLE_TEAMCOLOR?$AA@ 4002e2b0     ui_shared.obj
 0002:000052c8       ??_C@_0BE@HECCLBFC@WINDOW_STYLE_SHADER?$AA@ 4002e2c8     ui_shared.obj
 0002:000052dc       ??_C@_0BG@IEFBEMMN@WINDOW_STYLE_GRADIENT?$AA@ 4002e2dc     ui_shared.obj
 0002:000052f4       ??_C@_0BE@KLCEIIBH@WINDOW_STYLE_FILLED?$AA@ 4002e2f4     ui_shared.obj
 0002:00005308       ??_C@_0BD@BJJNFIHK@WINDOW_STYLE_EMPTY?$AA@ 4002e308     ui_shared.obj
 0002:0000531c       ??_C@_0BA@NNDAHIHE@WINDOW_INACTIVE?$AA@ 4002e31c     ui_shared.obj
 0002:0000532c       ??_C@_0CD@LBKPCJLM@UI_Alloc?3?5Failure?4?5Out?5of?5memory@ 4002e32c     ui_shared.obj
 0002:00005350       ??_C@_0DG@OMGKABNP@Memory?5Pool?5is?5?$CF?41f?$CF?$CF?5full?0?5?$CFi?5b@ 4002e350     ui_shared.obj
 0002:00005388       __real@35000000            4002e388     ui_shared.obj
 0002:0000538c       ??_C@_0DG@MABFDHIF@String?5Pool?5is?5?$CF?41f?$CF?$CF?5full?0?5?$CFi?5b@ 4002e38c     ui_shared.obj
 0002:000053c4       __real@42c80000            4002e3c4     ui_shared.obj
 0002:000053c8       __real@362aaaab            4002e3c8     ui_shared.obj
 0002:000053cc       ??_C@_0BC@DKLFONDB@?9?9?9?9?9?9?9?9?9?9?9?9?9?9?9?9?6?$AA@ 4002e3cc     ui_shared.obj
 0002:000053e0       ??_C@_0BJ@GAPDFKFM@Memory?1String?5Pool?5Info?6?$AA@ 4002e3e0     ui_shared.obj
 0002:000053fc       ??_C@_0BM@DJGMFAMK@?$FO3WARNING?3?5?$CFs?0?5line?5?$CFd?3?5?$CFs?6?$AA@ 4002e3fc     ui_shared.obj
 0002:00005418       ??_C@_0BK@OKFEFFGN@?$FO1ERROR?3?5?$CFs?0?5line?5?$CFd?3?5?$CFs?6?$AA@ 4002e418     ui_shared.obj
 0002:00005434       ??_C@_0BN@CKJPOGNB@expected?5float?5but?5found?5?$CFs?6?$AA@ 4002e434     ui_shared.obj
 0002:00005454       ??_C@_0BP@FLADEANJ@expected?5integer?5but?5found?5?$CFs?6?$AA@ 4002e454     ui_shared.obj
 0002:00005474       ??_C@_0CG@IMHJPNFM@?$FO3Unable?5to?5locate?5StripEd?5text?5@ 4002e474     ui_shared.obj
 0002:0000549c       ??_C@_01CLKCMJKC@?5?$AA@   4002e49c     ui_shared.obj
 0002:000054a0       ??_C@_04OEDFLLKD@?$CC?$CFs?$CC?$AA@ 4002e4a0     ui_shared.obj
 0002:000054a8       __real@0000000000000000    4002e4a8     ui_shared.obj
 0002:000054b0       ??_C@_0P@JMIBMNM@team_headmodel?$AA@ 4002e4b0     ui_shared.obj
 0002:000054c0       ??_C@_05LKKGNBCL@?$CFs?5?$DL?5?$AA@ 4002e4c0     ui_shared.obj
 0002:000054c8       __real@4030000000000000    4002e4c8     ui_shared.obj
 0002:000054d0       __real@4000000000000000    4002e4d0     ui_shared.obj
 0002:000054d8       __real@4040000000000000    4002e4d8     ui_shared.obj
 0002:000054e0       __real@4020000000000000    4002e4e0     ui_shared.obj
 0002:000054e8       __real@4031000000000000    4002e4e8     ui_shared.obj
 0002:000054f0       __real@4058000000000000    4002e4f0     ui_shared.obj
 0002:000054f8       __real@41a00000            4002e4f8     ui_shared.obj
 0002:00005500       __real@4018000000000000    4002e500     ui_shared.obj
 0002:00005508       ??_C@_02NJPGOMH@?$CFf?$AA@ 4002e508     ui_shared.obj
 0002:00005510       __real@3f85555555555555    4002e510     ui_shared.obj
 0002:00005518       ??_C@_0BI@MLGEDDNA@slider?5handle?5key?5exit?6?$AA@ 4002e518     ui_shared.obj
 0002:00005530       __real@3c2aaaab            4002e530     ui_shared.obj
 0002:00005534       ??_C@_04KMMDIKEB@?5?$CFs?5?$AA@ 4002e534     ui_shared.obj
 0002:0000553c       ??_C@_0BC@HFNKNJGB@MENUS3_KEYBIND_OR?$AA@ 4002e53c     ui_shared.obj
 0002:00005550       ??_C@_05DJCKAPIL@FIXME?$AA@ 4002e550     ui_shared.obj
 0002:00005558       __real@3d4ccccd            4002e558     ui_shared.obj
 0002:0000555c       __real@44200000            4002e55c     ui_shared.obj
 0002:00005560       __real@3f4ccccd            4002e560     ui_shared.obj
 0002:00005568       __real@400dd9ca81e9131a    4002e568     ui_shared.obj
 0002:00005570       __real@bfe0000000000000    4002e570     ui_shared.obj
 0002:00005578       __real@402e000000000000    4002e578     ui_shared.obj
 0002:00005580       __real@4010000000000000    4002e580     ui_shared.obj
 0002:00005588       ??_C@_0CA@MBEPFCBH@?$FO3Unknown?5item?5style?5value?5?8?$CFs?8?$AA@ 4002e588     ui_shared.obj
 0002:000055a8       ??_C@_0BL@LEGNDHIH@?$FO3Unknown?5item?5style?5value?$AA@ 4002e5a8     ui_shared.obj
 0002:000055c4       ??_C@_0BP@JDCINHG@?$FO3Unknown?5text?5alignment?5value?$AA@ 4002e5c4     ui_shared.obj
 0002:000055e4       ??_C@_0BO@GKGLOPGG@end?5of?5file?5inside?5menu?5item?6?$AA@ 4002e5e4     ui_shared.obj
 0002:00005604       ??_C@_0CE@OIGKMGKE@couldn?8t?5parse?5menu?5item?5keyword@ 4002e604     ui_shared.obj
 0002:00005628       ??_C@_0BN@JHFMAPJL@unknown?5menu?5item?5keyword?5?$CFs?$AA@ 4002e628     ui_shared.obj
 0002:00005648       ??_C@_04GJDJEMBE@?$CFc?$CFc?$AA@ 4002e648     ui_shared.obj
 0002:00005650       __real@4024000000000000    4002e650     ui_shared.obj
 0002:00005658       ??_C@_0BL@EDFDLOD@?$FO3Unknown?5menu?5style?5value?$AA@ 4002e658     ui_shared.obj
 0002:00005674       ??_C@_0BP@CHKMFCMK@?$FO3Unknown?5desc?5alignment?5value?$AA@ 4002e674     ui_shared.obj
 0002:00005694       ??_C@_0BP@HJCDHJDP@couldn?8t?5parse?5menu?5keyword?5?$CFs?$AA@ 4002e694     ui_shared.obj
 0002:000056b4       ??_C@_0BJ@MPIMCBOA@end?5of?5file?5inside?5menu?6?$AA@ 4002e6b4     ui_shared.obj
 0002:000056d0       ??_C@_0BI@PALCAEGK@unknown?5menu?5keyword?5?$CFs?$AA@ 4002e6d0     ui_shared.obj
 0002:000056e8       ??_C@_03NFKEKGGK@all?$AA@  4002e6e8     ui_shared.obj
 0002:000056f0       __real@3faaceea00000000    4002e6f0     ui_shared.obj
 0002:000056f8       ??_C@_0M@CDGBDLAG@x?3?5?$CFd?5?5y?3?$CFd?$AA@ 4002e6f8     ui_shared.obj
 0002:00005704       ??_C@_07KLAFGBNN@fps?3?5?$CFf?$AA@ 4002e704     ui_shared.obj
 0002:0000570c       ??_C@_0M@FHKEBODE@screenshot?6?$AA@ 4002e70c     ui_shared.obj
 0002:00005724       ??_C@_05KLBDPFGC@e?$CL000?$AA@ 4002e724     LIBC:cvt.obj
 0002:00005730       __real@4150017ec0000000    4002e730     LIBC:testfdiv.obj
 0002:00005738       __real@4147ffff80000000    4002e738     LIBC:testfdiv.obj
 0002:00005740       ??_C@_0BK@NHEOCAHP@IsProcessorFeaturePresent?$AA@ 4002e740     LIBC:testfdiv.obj
 0002:0000575c       ??_C@_08CPNIBGIE@KERNEL32?$AA@ 4002e75c     LIBC:testfdiv.obj
 0002:00005768       ___lookuptable             4002e768     LIBC:output.obj
 0002:000057c4       ??_C@_1O@CEDCILHN@?$AA?$CI?$AAn?$AAu?$AAl?$AAl?$AA?$CJ?$AA?$AA@ 4002e7c4     LIBC:output.obj
 0002:000057d4       ??_C@_06OJHGLDPL@?$CInull?$CJ?$AA@ 4002e7d4     LIBC:output.obj
 0002:000057e0       ___newctype                4002e7e0     LIBC:ctype.obj
 0002:00005ae0       __wctype                   4002eae0     LIBC:ctype.obj
 0002:00005ce4       ??_C@_13NOLLCAOD@?$AA?$AA?$AA?$AA@ 4002ece4     LIBC:a_map.obj
 0002:00005d0c       ??_C@_0P@MIGLKIOC@CorExitProcess?$AA@ 4002ed0c     LIBC:crt0dat.obj
 0002:00005d1c       ??_C@_0M@MBOPBNBK@mscoree?4dll?$AA@ 4002ed1c     LIBC:crt0dat.obj
 0002:00005d44       ??_C@_0P@GGKDKEEG@runtime?5error?5?$AA@ 4002ed44     LIBC:crt0msg.obj
 0002:00005d54       ??_C@_02PCIJFNDE@?$AN?6?$AA@ 4002ed54     LIBC:crt0msg.obj
 0002:00005d58       ??_C@_0O@MJNIPGOH@TLOSS?5error?$AN?6?$AA@ 4002ed58     LIBC:crt0msg.obj
 0002:00005d68       ??_C@_0N@BONNPDHF@SING?5error?$AN?6?$AA@ 4002ed68     LIBC:crt0msg.obj
 0002:00005d78       ??_C@_0P@MBDAJNE@DOMAIN?5error?$AN?6?$AA@ 4002ed78     LIBC:crt0msg.obj
 0002:00005d88       ??_C@_0KC@BDDGGBEJ@R6029?$AN?6?9?5This?5application?5cannot@ 4002ed88     LIBC:crt0msg.obj
 0002:00005e2c       ??_C@_0CF@KJDAIALP@R6028?$AN?6?9?5unable?5to?5initialize?5he@ 4002ee2c     LIBC:crt0msg.obj
 0002:00005e54       ??_C@_0DF@GAKBPDFP@R6027?$AN?6?9?5not?5enough?5space?5for?5lo@ 4002ee54     LIBC:crt0msg.obj
 0002:00005e8c       ??_C@_0DF@IBLNNAIG@R6026?$AN?6?9?5not?5enough?5space?5for?5st@ 4002ee8c     LIBC:crt0msg.obj
 0002:00005ec4       ??_C@_0CG@IOHKGFNJ@R6025?$AN?6?9?5pure?5virtual?5function?5c@ 4002eec4     LIBC:crt0msg.obj
 0002:00005eec       ??_C@_0DF@JIJJFJDC@R6024?$AN?6?9?5not?5enough?5space?5for?5_o@ 4002eeec     LIBC:crt0msg.obj
 0002:00005f24       ??_C@_0CJ@EGEJHFME@R6019?$AN?6?9?5unable?5to?5open?5console?5@ 4002ef24     LIBC:crt0msg.obj
 0002:00005f50       ??_C@_0CB@GNHNIELH@R6018?$AN?6?9?5unexpected?5heap?5error?$AN?6@ 4002ef50     LIBC:crt0msg.obj
 0002:00005f74       ??_C@_0CN@FOLDKNG@R6017?$AN?6?9?5unexpected?5multithread?5@ 4002ef74     LIBC:crt0msg.obj
 0002:00005fa4       ??_C@_0CM@FAHFJNHO@R6016?$AN?6?9?5not?5enough?5space?5for?5th@ 4002efa4     LIBC:crt0msg.obj
 0002:00005fd0       ??_C@_0JG@LBKMGKLD@?$AN?6This?5application?5has?5requested@ 4002efd0     LIBC:crt0msg.obj
 0002:00006068       ??_C@_0CM@FLCNIPKK@R6009?$AN?6?9?5not?5enough?5space?5for?5en@ 4002f068     LIBC:crt0msg.obj
 0002:00006094       ??_C@_0CK@KMMJOAPP@R6008?$AN?6?9?5not?5enough?5space?5for?5ar@ 4002f094     LIBC:crt0msg.obj
 0002:000060c0       ??_C@_0CF@HOHMHDEK@R6002?$AN?6?9?5floating?5point?5not?5load@ 4002f0c0     LIBC:crt0msg.obj
 0002:000060e8       ??_C@_0CF@GOGNBNAK@Microsoft?5Visual?5C?$CL?$CL?5Runtime?5Lib@ 4002f0e8     LIBC:crt0msg.obj
 0002:00006110       ??_C@_02PHMGELLB@?6?6?$AA@ 4002f110     LIBC:crt0msg.obj
 0002:00006114       ??_C@_0BK@OFGJDLJJ@Runtime?5Error?$CB?6?6Program?3?5?$AA@ 4002f114     LIBC:crt0msg.obj
 0002:00006130       ??_C@_0BH@DNAGHKFM@?$DMprogram?5name?5unknown?$DO?$AA@ 4002f130     LIBC:crt0msg.obj
 0002:00006174       ??_C@_0BI@DFKBFLJE@GetProcessWindowStation?$AA@ 4002f174     LIBC:crtmbox.obj
 0002:0000618c       ??_C@_0BK@CIDNPOGP@GetUserObjectInformationA?$AA@ 4002f18c     LIBC:crtmbox.obj
 0002:000061a8       ??_C@_0BD@HHGDFDBJ@GetLastActivePopup?$AA@ 4002f1a8     LIBC:crtmbox.obj
 0002:000061bc       ??_C@_0BA@HNOPNCHB@GetActiveWindow?$AA@ 4002f1bc     LIBC:crtmbox.obj
 0002:000061cc       ??_C@_0M@CHKKJDAI@MessageBoxA?$AA@ 4002f1cc     LIBC:crtmbox.obj
 0002:000061d8       ??_C@_0L@GMPLCCII@user32?4dll?$AA@ 4002f1d8     LIBC:crtmbox.obj
 0002:000061e4       ??_C@_06IMKFLFPG@1?$CDQNAN?$AA@ 4002f1e4     LIBC:x10fout.obj
 0002:000061ec       ??_C@_05DNEBIAHO@1?$CDINF?$AA@ 4002f1ec     LIBC:x10fout.obj
 0002:000061f4       ??_C@_05PHHOCPM@1?$CDIND?$AA@ 4002f1f4     LIBC:x10fout.obj
 0002:000061fc       ??_C@_06PGGFOGJG@1?$CDSNAN?$AA@ 4002f1fc     LIBC:x10fout.obj
 0002:00006204       ??_C@_09KLGCKDOD@Program?3?5?$AA@ 4002f204     LIBC:secfail.obj
 0002:00006210       ??_C@_0KA@JEHFIFGP@A?5buffer?5overrun?5has?5been?5detect@ 4002f210     LIBC:secfail.obj
 0002:000062b0       ??_C@_0BJ@MDEKIEOJ@Buffer?5overrun?5detected?$CB?$AA@ 4002f2b0     LIBC:secfail.obj
 0002:000062d0       ??_C@_0LB@BPLHHLFD@A?5security?5error?5of?5unknown?5caus@ 4002f2d0     LIBC:secfail.obj
 0002:00006384       ??_C@_0CD@GMKACBEK@Unknown?5security?5failure?5detecte@ 4002f384     LIBC:secfail.obj
 0002:000063b8       __load_config_used         4002f3b8     LIBC:loadcfg.obj
 0002:00006450       ___safe_se_handler_table   4002f450     <linker-defined>
 0002:00006458       ___rtc_iaa                 4002f458     LIBC:initsect.obj
 0002:0000645c       ___rtc_izz                 4002f45c     LIBC:initsect.obj
 0002:00006460       ___rtc_taa                 4002f460     LIBC:initsect.obj
 0002:00006464       ___rtc_tzz                 4002f464     LIBC:initsect.obj
 0002:00006468       __IMPORT_DESCRIPTOR_KERNEL32 4002f468     kernel32:KERNEL32.dll
 0002:0000647c       __NULL_IMPORT_DESCRIPTOR   4002f47c     kernel32:KERNEL32.dll
 0003:00000000       ___xc_a                    40030000     LIBC:crt0init.obj
 0003:00000008       ___xc_z                    40030008     LIBC:crt0init.obj
 0003:0000000c       ___xi_a                    4003000c     LIBC:crt0init.obj
 0003:0000001c       ___xi_z                    4003001c     LIBC:crt0init.obj
 0003:00000020       ___xp_a                    40030020     LIBC:crt0init.obj
 0003:00000028       ___xp_z                    40030028     LIBC:crt0init.obj
 0003:0000002c       ___xt_a                    4003002c     LIBC:crt0init.obj
 0003:00000030       ___xt_z                    40030030     LIBC:crt0init.obj
 0003:00000040       _forceMasteryLevels        40030040     bg_misc.obj
 0003:00000060       _forceMasteryPoints        40030060     bg_misc.obj
 0003:00000080       _bgForcePowerCost          40030080     bg_misc.obj
 0003:000001a0       _forcePowerSorted          400301a0     bg_misc.obj
 0003:000001e8       _forcePowerDarkLight       400301e8     bg_misc.obj
 0003:00000230       _WeaponReadyAnim           40030230     bg_misc.obj
 0003:00000270       _WeaponAttackAnim          40030270     bg_misc.obj
 0003:000002b0       _bg_itemlist               400302b0     bg_misc.obj
 0003:00000b6c       _bg_numItems               40030b6c     bg_misc.obj
 0003:00000b70       _eventnames                40030b70     bg_misc.obj
 0003:00000d30       _WP_MuzzlePoint            40030d30     bg_weapons.obj
 0003:00000df0       _weaponData                40030df0     bg_weapons.obj
 0003:00001170       _ammoData                  40031170     bg_weapons.obj
 0003:00001198       _axisDefault               40031198     q_math.obj
 0003:000011bc       _colorBlack                400311bc     q_math.obj
 0003:000011cc       _colorRed                  400311cc     q_math.obj
 0003:000011dc       _colorGreen                400311dc     q_math.obj
 0003:000011ec       _colorBlue                 400311ec     q_math.obj
 0003:000011fc       _colorYellow               400311fc     q_math.obj
 0003:0000120c       _colorMagenta              4003120c     q_math.obj
 0003:0000121c       _colorCyan                 4003121c     q_math.obj
 0003:0000122c       _colorWhite                4003122c     q_math.obj
 0003:0000123c       _colorLtGrey               4003123c     q_math.obj
 0003:0000124c       _colorMdGrey               4003124c     q_math.obj
 0003:0000125c       _colorDkGrey               4003125c     q_math.obj
 0003:0000126c       _colorLtBlue               4003126c     q_math.obj
 0003:0000127c       _colorDkBlue               4003127c     q_math.obj
 0003:00001290       _g_color_table             40031290     q_math.obj
 0003:00001310       _bytedirs                  40031310     q_math.obj
 0003:00001ab0       _uiForceSide               40031ab0     ui_force.obj
 0003:00001ab4       _uiJediNonJedi             40031ab4     ui_force.obj
 0003:00001ab8       _uiForceRank               40031ab8     ui_force.obj
 0003:00001abc       _uiMaxRank                 40031abc     ui_force.obj
 0003:00001ac0       _uiMaxPoints               40031ac0     ui_force.obj
 0003:00001ac8       _uiForcePowersRank         40031ac8     ui_force.obj
 0003:00001b10       _uiForcePowerDarkLight     40031b10     ui_force.obj
 0003:00001b58       _gCustPowersRank           40031b58     ui_force.obj
 0003:00001c80       _serverStatusCvars         40031c80     ui_main.obj
 0003:00002430       _itemFlags                 40032430     ui_shared.obj
 0003:00002440       _styles                    40032440     ui_shared.obj
 0003:0000245c       _alignment                 4003245c     ui_shared.obj
 0003:00002470       _types                     40032470     ui_shared.obj
 0003:000024b8       _commandList               400324b8     ui_shared.obj
 0003:00002578       _scriptCommandCount        40032578     ui_shared.obj
 0003:00002dd8       _itemParseKeywords         40032dd8     ui_shared.obj
 0003:00003138       _menuParseKeywords         40033138     ui_shared.obj
 0003:000032e0       __fltused                  400332e0     LIBC:fpinit.obj
 0003:000032e4       __ldused                   400332e4     LIBC:fpinit.obj
 0003:000032e8       __FPinit                   400332e8     LIBC:fpinit.obj
 0003:000032ec       __FPmtinit                 400332ec     LIBC:fpinit.obj
 0003:000032f0       __FPmtterm                 400332f0     LIBC:fpinit.obj
 0003:00003310       __aexit_rtn                40033310     LIBC:dllcrt0.obj
 0003:00003320       __cfltcvt_tab              40033320     LIBC:cmiscdat.obj
 0003:00003338       ___nullstring              40033338     LIBC:output.obj
 0003:0000333c       ___wnullstring             4003333c     LIBC:output.obj
 0003:00003350       __pctype                   40033350     LIBC:ctype.obj
 0003:00003354       __pwctype                  40033354     LIBC:ctype.obj
 0003:00003358       ___mb_cur_max              40033358     LIBC:nlsdata1.obj
 0003:0000335c       ___decimal_point           4003335c     LIBC:nlsdata1.obj
 0003:00003360       ___decimal_point_length    40033360     LIBC:nlsdata1.obj
 0003:00003364       ___lc_clike                40033364     LIBC:nlsdata2.obj
 0003:00003368       ___badioinfo               40033368     LIBC:ioinit.obj
 0003:00003370       __amblksiz                 40033370     LIBC:heapinit.obj
 0003:00003378       __XcptActTab               40033378     LIBC:winxfltr.obj
 0003:000033f0       __First_FPE_Indx           400333f0     LIBC:winxfltr.obj
 0003:000033f4       __Num_FPE                  400333f4     LIBC:winxfltr.obj
 0003:000033f8       __XcptActTabCount          400333f8     LIBC:winxfltr.obj
 0003:000033fc       __fpecode                  400333fc     LIBC:winxfltr.obj
 0003:000035c0       __iob                      400335c0     LIBC:_file.obj
 0003:00003840       ___security_cookie         40033840     LIBC:seccook.obj
 0003:00003850       __NLG_Destination          40033850     LIBC:exsup.obj
 0003:000039c8       __pow10pos                 400339c8     LIBC:constpow.obj
 0003:00003b28       __pow10neg                 40033b28     LIBC:constpow.obj
 0003:001f7ce0       _vec3_origin               40227ce0     q_math.obj
 0003:0020e700       _newUI                     4023e700     ui_atoms.obj
 0003:0020e708       _uiForceUsed               4023e708     ui_force.obj
 0003:0020e70c       _uiForceAvailable          4023e70c     ui_force.obj
 0003:0020e710       _gTouchedForce             4023e710     ui_force.obj
 0003:0020e718       _uiForcePowersDisabled     4023e718     ui_force.obj
 0003:0020e760       _gCustRank                 4023e760     ui_force.obj
 0003:0020e764       _gCustSide                 4023e764     ui_force.obj
 0003:002198d8       _holdSPString              402498d8     ui_main.obj
 0003:00219cd8       _uiSkinColor               40249cd8     ui_main.obj
 0003:00219cdc       _frameCount                40249cdc     ui_main.obj
 0003:0021a0e0       _defaultMenu               4024a0e0     ui_main.obj
 0003:0021a0e8       _gUISelectedMap            4024a0e8     ui_main.obj
 0003:0047e13c       _DC                        404ae13c     ui_shared.obj
 0003:0047e150       _menuCount                 404ae150     ui_shared.obj
 0003:0047e154       _openMenuCount             404ae154     ui_shared.obj
 0003:0047e168       _FPMessageTime             404ae168     ui_shared.obj
 0003:0047e16c       _ui_deferredScriptItem     404ae16c     ui_shared.obj
 0003:0047e174       ___fastflag                404ae174     LIBC:fpinit.obj
 0003:0047e178       __adjust_fdiv              404ae178     LIBC:fpinit.obj
 0003:0047e180       __aenvptr                  404ae180     LIBC:dllcrt0.obj
 0003:0047e184       __wenvptr                  404ae184     LIBC:dllcrt0.obj
 0003:0047e188       ___error_mode              404ae188     LIBC:dllcrt0.obj
 0003:0047e18c       ___app_type                404ae18c     LIBC:dllcrt0.obj
 0003:0047e1bc       ___lc_handle               404ae1bc     LIBC:nlsdata2.obj
 0003:0047e1d4       ___lc_codepage             404ae1d4     LIBC:nlsdata2.obj
 0003:0047e1d8       ___lc_collate_cp           404ae1d8     LIBC:nlsdata2.obj
 0003:0047e1dc       _errno                     404ae1dc     LIBC:crt0dat.obj
 0003:0047e1e0       __doserrno                 404ae1e0     LIBC:crt0dat.obj
 0003:0047e1e4       __umaskval                 404ae1e4     LIBC:crt0dat.obj
 0003:0047e1e8       __osplatform               404ae1e8     LIBC:crt0dat.obj
 0003:0047e1ec       __osver                    404ae1ec     LIBC:crt0dat.obj
 0003:0047e1f0       __winver                   404ae1f0     LIBC:crt0dat.obj
 0003:0047e1f4       __winmajor                 404ae1f4     LIBC:crt0dat.obj
 0003:0047e1f8       __winminor                 404ae1f8     LIBC:crt0dat.obj
 0003:0047e1fc       ___argc                    404ae1fc     LIBC:crt0dat.obj
 0003:0047e200       ___argv                    404ae200     LIBC:crt0dat.obj
 0003:0047e204       ___wargv                   404ae204     LIBC:crt0dat.obj
 0003:0047e208       __environ                  404ae208     LIBC:crt0dat.obj
 0003:0047e20c       ___initenv                 404ae20c     LIBC:crt0dat.obj
 0003:0047e210       __wenviron                 404ae210     LIBC:crt0dat.obj
 0003:0047e214       ___winitenv                404ae214     LIBC:crt0dat.obj
 0003:0047e218       __pgmptr                   404ae218     LIBC:crt0dat.obj
 0003:0047e21c       __wpgmptr                  404ae21c     LIBC:crt0dat.obj
 0003:0047e220       __exitflag                 404ae220     LIBC:crt0dat.obj
 0003:0047e224       __C_Termination_Done       404ae224     LIBC:crt0dat.obj
 0003:0047e228       __C_Exit_Done              404ae228     LIBC:crt0dat.obj
 0003:0047e33c       __pxcptinfoptrs            404ae33c     LIBC:winxfltr.obj
 0003:0047e340       __adbgmsg                  404ae340     LIBC:crt0msg.obj
 0003:0047e378       __cflush                   404ae378     LIBC:_file.obj
 0003:0047e3e0       ?_pnhHeap@@3P6AHI@ZA       404ae3e0     LIBC:handler.obj
 0003:0047e3e4       __newmode                  404ae3e4     LIBC:_newmode.obj
 0003:0047e400       _itemParseKeywordHash      404ae400     <common>
 0003:0047ec00       _Menus                     404aec00     <common>
 0003:00493800       _g_nameBind1               404c3800     <common>
 0003:00493820       _g_nameBind2               404c3820     <common>
 0003:00493840       _menuParseKeywordHash      404c3840     <common>
 0003:00494040       _menuStack                 404c4040     <common>
 0003:00494080       _ui_deferredScript         404c4080     <common>
 0003:00494880       _ui_ctf_capturelimit       404c4880     <common>
 0003:004949a0       _ui_server4                404c49a0     <common>
 0003:00494ac0       _ui_redteam4               404c4ac0     <common>
 0003:00494be0       _ui_blueteam8              404c4be0     <common>
 0003:00494d00       _ui_redteam                404c4d00     <common>
 0003:00494e20       _ui_serverFilterType       404c4e20     <common>
 0003:00494f40       _ui_spAwards               404c4f40     <common>
 0003:00495060       _ui_spSkill                404c5060     <common>
 0003:00495180       _ui_ffa_timelimit          404c5180     <common>
 0003:004952a0       _ui_opponentName           404c52a0     <common>
 0003:004953c0       _ui_blueteam6              404c53c0     <common>
 0003:004954e0       _ui_browserGameType        404c54e0     <common>
 0003:00495600       _ui_selectedPlayerName     404c5600     <common>
 0003:00495720       _ui_server2                404c5720     <common>
 0003:00495840       _ui_initialized            404c5840     <common>
 0003:00495960       _ui_netSource              404c5960     <common>
 0003:00495a80       _ui_lastServerRefresh_3    404c5a80     <common>
 0003:00495ba0       _ui_marks                  404c5ba0     <common>
 0003:00495cc0       _ui_currentOpponent        404c5cc0     <common>
 0003:00495de0       _ui_scoreDefends           404c5de0     <common>
 0003:00495f00       _ui_spScores2              404c5f00     <common>
 0003:00496020       _ui_spVideos               404c6020     <common>
 0003:00496140       _ui_blueteam               404c6140     <common>
 0003:00496260       _ui_spScores3              404c6260     <common>
 0003:00496380       _ui_bigFont                404c6380     <common>
 0003:004964a0       _ui_gameType               404c64a0     <common>
 0003:004965c0       _ui_server7                404c65c0     <common>
 0003:004966e0       _ui_teamName               404c66e0     <common>
 0003:00496800       _ui_blueteam2              404c6800     <common>
 0003:00496920       _ui_blueteam4              404c6920     <common>
 0003:00496a40       _ui_scoreAccuracy          404c6a40     <common>
 0003:00496b60       _ui_selectedPlayer         404c6b60     <common>
 0003:00496c80       _ui_Q3Model                404c6c80     <common>
 0003:00496da0       _ui_server3                404c6da0     <common>
 0003:00496ec0       _ui_debug                  404c6ec0     <common>
 0003:00496fe0       _ui_drawCrosshair          404c6fe0     <common>
 0003:00497100       _ui_currentNetMap          404c7100     <common>
 0003:00497220       _ui_spSelection            404c7220     <common>
 0003:00497340       _ui_server14               404c7340     <common>
 0003:00497460       _ui_server9                404c7460     <common>
 0003:00497580       _ui_mapIndex               404c7580     <common>
 0003:004976a0       _ui_redteam2               404c76a0     <common>
 0003:004977c0       _ui_scoreExcellents        404c77c0     <common>
 0003:004978e0       _ui_arenasFile             404c78e0     <common>
 0003:00497a00       _ui_lastServerRefresh_0    404c7a00     <common>
 0003:00497b20       _ui_redteam5               404c7b20     <common>
 0003:00497c40       _ui_scoreTimeBonus         404c7c40     <common>
 0003:00497d60       _ui_server16               404c7d60     <common>
 0003:00497e80       _ui_blueteam5              404c7e80     <common>
 0003:00497fa0       _ui_scoreBase              404c7fa0     <common>
 0003:004980c0       _ui_server1                404c80c0     <common>
 0003:004981e0       _ui_browserSortKey         404c81e0     <common>
 0003:00498300       _ui_team_timelimit         404c8300     <common>
 0003:00498420       _ui_redteam7               404c8420     <common>
 0003:00498540       _ui_server13               404c8540     <common>
 0003:00498660       _ui_browserMaster          404c8660     <common>
 0003:00498780       _ui_scoreCaptures          404c8780     <common>
 0003:004988a0       _ui_ffa_fraglimit          404c88a0     <common>
 0003:004989c0       _ui_realWarmUp             404c89c0     <common>
 0003:00498ae0       _ui_scoreShutoutBonus      404c8ae0     <common>
 0003:00498c00       _ui_currentMap             404c8c00     <common>
 0003:00498d20       _ui_scoreAssists           404c8d20     <common>
 0003:00498e40       _ui_netGameType            404c8e40     <common>
 0003:00498f60       _ui_blueteam1              404c8f60     <common>
 0003:00499080       _ui_redteam6               404c9080     <common>
 0003:004991a0       _ui_blueteam3              404c91a0     <common>
 0003:004992c0       _ui_rankChange             404c92c0     <common>
 0003:004993e0       _ui_captureLimit           404c93e0     <common>
 0003:00499500       _ui_findPlayer             404c9500     <common>
 0003:00499620       _ui_joinGameType           404c9620     <common>
 0003:00499740       _ui_spScores4              404c9740     <common>
 0003:00499860       _s_language                404c9860     <common>
 0003:00499980       _ui_browserShowEmpty       404c9980     <common>
 0003:00499aa0       _ui_team_friendly          404c9aa0     <common>
 0003:00499bc0       _ui_cdkeychecked           404c9bc0     <common>
 0003:00499ce0       _ui_server15               404c9ce0     <common>
 0003:00499e00       _ui_ctf_friendly           404c9e00     <common>
 0003:00499f20       _ui_blueteam7              404c9f20     <common>
 0003:0049a040       _ui_spScores5              404ca040     <common>
 0003:0049a160       _ui_redteam8               404ca160     <common>
 0003:0049a280       _ui_scoreGauntlets         404ca280     <common>
 0003:0049a3a0       _uiInfo                    404ca3a0     <common>
 0003:004b17a0       _ui_lastServerRefresh_2    404e17a0     <common>
 0003:004b18c0       _ui_recordSPDemo           404e18c0     <common>
 0003:004b19e0       _ui_dedicated              404e19e0     <common>
 0003:004b1b00       _ui_tourney_fraglimit      404e1b00     <common>
 0003:004b1c20       _ui_scoreSkillBonus        404e1c20     <common>
 0003:004b1d40       _ui_smallFont              404e1d40     <common>
 0003:004b1e60       _ui_selectedModelIndex     404e1e60     <common>
 0003:004b1f80       _ui_actualNetGameType      404e1f80     <common>
 0003:004b20a0       _ui_fragLimit              404e20a0     <common>
 0003:004b21c0       _ui_serverStatusTimeOut    404e21c0     <common>
 0003:004b22e0       _ui_server10               404e22e0     <common>
 0003:004b2400       _ui_server11               404e2400     <common>
 0003:004b2520       _ui_currentTier            404e2520     <common>
 0003:004b2640       _ui_redteam1               404e2640     <common>
 0003:004b2750       _startTime                 404e2750     <common>
 0003:004b2760       _ui_browserShowFull        404e2760     <common>
 0003:004b2880       _ui_server8                404e2880     <common>
 0003:004b29a0       _ui_singlePlayerActive     404e29a0     <common>
 0003:004b2ac0       _ui_scoreTeam              404e2ac0     <common>
 0003:004b2be0       _ui_menuFiles              404e2be0     <common>
 0003:004b2d00       _ui_server5                404e2d00     <common>
 0003:004b2e20       _ui_realCaptureLimit       404e2e20     <common>
 0003:004b2f40       _ui_botsFile               404e2f40     <common>
 0003:004b3060       _ui_lastServerRefresh_1    404e3060     <common>
 0003:004b3180       _ui_server12               404e3180     <common>
 0003:004b32a0       _ui_hudFiles               404e32a0     <common>
 0003:004b33c0       _parsedFPMessage           404e33c0     <common>
 0003:004b37c0       _ui_tourney_timelimit      404e37c0     <common>
 0003:004b38e0       _ui_scoreScore             404e38e0     <common>
 0003:004b3a00       _ui_server6                404e3a00     <common>
 0003:004b3b20       _ui_scoreImpressives       404e3b20     <common>
 0003:004b3c40       _ui_spScores1              404e3c40     <common>
 0003:004b3d60       _ui_drawCrosshairNames     404e3d60     <common>
 0003:004b3e80       _ui_team_fraglimit         404e3e80     <common>
 0003:004b3fa0       _ui_scorePerfect           404e3fa0     <common>
 0003:004b40c0       _ui_redteam3               404e40c0     <common>
 0003:004b41e0       _ui_scoreTime              404e41e0     <common>
 0003:004b4300       _ui_ctf_timelimit          404e4300     <common>
 0003:004b4410       _ui_numBots                404e4410     <common>
 0003:004b4420       _ui_forcePowerDisable      404e4420     <common>
 0003:004b4540       _ui_freeSaber              404e4540     <common>
 0003:004b4660       _uiForceStarShaders        404e4660     <common>
 0003:004b46c0       _uiSaberColorShaders       404e46c0     <common>
 0003:004b46d8       _m_entersound              404e46d8     <common>
 0003:004b46dc       ___sbh_initialized         404e46dc     <common>
 0003:004b46e0       ___sbh_pHeaderDefer        404e46e0     <common>
 0003:004b46e4       ___sbh_cntHeaderList       404e46e4     <common>
 0003:004b46e8       ___sbh_pHeaderList         404e46e8     <common>
 0003:004b46ec       ___sbh_threshold           404e46ec     <common>
 0003:004b46f0       ___sbh_pHeaderScan         404e46f0     <common>
 0003:004b46f4       ___sbh_sizeHeaderList      404e46f4     <common>
 0003:004b46f8       ___sbh_indGroupDefer       404e46f8     <common>
 0003:004b46fc       ___piob                    404e46fc     <common>
 0003:004b4700       __bufin                    404e4700     <common>
 0003:004b5700       __nstream                  404e5700     <common>
 0003:004b5704       ___mblcid                  404e5704     <common>
 0003:004b5708       ___ismbcodepage            404e5708     <common>
 0003:004b5720       __mbctype                  404e5720     <common>
 0003:004b5824       ___mbcodepage              404e5824     <common>
 0003:004b5830       ___mbulinfo                404e5830     <common>
 0003:004b5840       __mbcasemap                404e5840     <common>
 0003:004b5940       __crtheap                  404e5940     <common>
 0003:004b5944       ___active_heap             404e5944     <common>
 0003:004b5948       __nhandle                  404e5948     <common>
 0003:004b5960       ___pioinfo                 404e5960     <common>
 0003:004b5a60       ___env_initialized         404e5a60     <common>
 0003:004b5a64       ___onexitend               404e5a64     <common>
 0003:004b5a68       ___onexitbegin             404e5a68     <common>
 0003:004b5a6c       ___mbctype_initialized     404e5a6c     <common>
 0003:004b5a70       __acmdln                   404e5a70     <common>
 0003:004b5a74       __pRawDllMain              404e5a74     <common>

 entry point at        0001:00020db8

 Static symbols

 0001:000018b0       _VectorLength              400028b0 f   q_math.obj
 0001:00001ba0       _CrossProduct              40002ba0 f   q_math.obj
 0001:00004ac0       _UI_Cache_f                40005ac0 f   ui_atoms.obj
 0001:00004b10       _UI_CalcPostGameStats      40005b10 f   ui_atoms.obj
 0001:00006f80       _UI_LoadArenasFromFile     40007f80 f   ui_gameinfo.obj
 0001:000073d0       _UI_LoadBotsFromFile       400083d0 f   ui_gameinfo.obj
 0001:00007c20       _Text_Paint_Limit          40008c20 f   ui_main.obj
 0001:00008630       _UI_DrawHandicap           40009630 f   ui_main.obj
 0001:000086a0       _UI_DrawClanName           400096a0 f   ui_main.obj
 0001:000086d0       _UI_SetCapFragLimits       400096d0 f   ui_main.obj
 0001:00008740       _UI_DrawGameType           40009740 f   ui_main.obj
 0001:00008770       _UI_DrawNetGameType        40009770 f   ui_main.obj
 0001:000087e0       _UI_DrawAutoSwitch         400097e0 f   ui_main.obj
 0001:00008870       _UI_DrawJoinGameType       40009870 f   ui_main.obj
 0001:000088d0       _UI_TeamIndexFromName      400098d0 f   ui_main.obj
 0001:00008920       _UI_DrawClanLogo           40009920 f   ui_main.obj
 0001:000089f0       _UI_DrawClanCinematic      400099f0 f   ui_main.obj
 0001:00008b30       _UI_DrawPreviewCinematic   40009b30 f   ui_main.obj
 0001:00008bd0       _UI_DrawSkill              40009bd0 f   ui_main.obj
 0001:00008c50       _UI_DrawGenericNum         40009c50 f   ui_main.obj
 0001:00008cb0       _UI_DrawForceMastery       40009cb0 f   ui_main.obj
 0001:00008d10       _UI_DrawSkinColor          40009d10 f   ui_main.obj
 0001:00008da0       _UI_DrawForceSide          40009da0 f   ui_main.obj
 0001:00009060       _UI_AllForceDisabled       4000a060 f   ui_main.obj
 0001:00009140       _UI_DrawJediNonJedi        4000a140 f   ui_main.obj
 0001:000091e0       _UI_DrawTeamName           4000a1e0 f   ui_main.obj
 0001:00009260       _UI_DrawTeamMember         4000a260 f   ui_main.obj
 0001:00009390       _UI_DrawEffects            4000a390 f   ui_main.obj
 0001:000093c0       _UI_DrawMapPreview         4000a3c0 f   ui_main.obj
 0001:00009480       _UI_DrawMapTimeToBeat      4000a480 f   ui_main.obj
 0001:00009510       _UI_DrawMapCinematic       4000a510 f   ui_main.obj
 0001:00009610       _UI_SetForceDisabled       4000a610 f   ui_main.obj
 0001:00009970       _UI_DrawNetMapPreview      4000a970 f   ui_main.obj
 0001:000099c0       _UI_DrawNetMapCinematic    4000a9c0 f   ui_main.obj
 0001:00009a80       _UI_DrawNetFilter          4000aa80 f   ui_main.obj
 0001:00009b00       _UI_DrawTier               4000ab00 f   ui_main.obj
 0001:00009b70       _UI_DrawTierMap            4000ab70 f   ui_main.obj
 0001:00009bf0       _UI_EnglishMapName         4000abf0 f   ui_main.obj
 0001:00009c40       _UI_DrawTierMapName        4000ac40 f   ui_main.obj
 0001:00009cc0       _UI_DrawTierGameType       4000acc0 f   ui_main.obj
 0001:00009d40       _UI_AIFromName             4000ad40 f   ui_main.obj
 0001:00009d90       _UI_NextOpponent           4000ad90 f   ui_main.obj
 0001:00009df0       _UI_PriorOpponent          4000adf0 f   ui_main.obj
 0001:00009e50       _UI_DrawPlayerLogo         4000ae50 f   ui_main.obj
 0001:00009f00       _UI_DrawPlayerLogoMetal    4000af00 f   ui_main.obj
 0001:00009fb0       _UI_DrawPlayerLogoName     4000afb0 f   ui_main.obj
 0001:0000a060       _UI_DrawOpponentLogo       4000b060 f   ui_main.obj
 0001:0000a110       _UI_DrawOpponentLogoMetal  4000b110 f   ui_main.obj
 0001:0000a1c0       _UI_DrawOpponentLogoName   4000b1c0 f   ui_main.obj
 0001:0000a270       _UI_DrawAllMapsSelection   4000b270 f   ui_main.obj
 0001:0000a2c0       _UI_DrawOpponentName       4000b2c0 f   ui_main.obj
 0001:0000a2f0       _UI_DrawBotName            4000b2f0 f   ui_main.obj
 0001:0000a340       _UI_DrawBotSkill           4000b340 f   ui_main.obj
 0001:0000a3b0       _UI_DrawRedBlue            4000b3b0 f   ui_main.obj
 0001:0000a3f0       _UI_DrawCrosshair          4000b3f0 f   ui_main.obj
 0001:0000a440       _UI_BuildPlayerList        4000b440 f   ui_main.obj
 0001:0000a6c0       _UI_DrawSelectedPlayer     4000b6c0 f   ui_main.obj
 0001:0000a720       _UI_DrawServerRefreshDate  4000b720 f   ui_main.obj
 0001:0000a860       _UI_DrawServerMOTD         4000b860 f   ui_main.obj
 0001:0000aa90       _UI_DrawKeyBindStatus      4000ba90 f   ui_main.obj
 0001:0000aaf0       _UI_DrawGLInfo             4000baf0 f   ui_main.obj
 0001:0000ae00       _UI_Version                4000be00 f   ui_main.obj
 0001:0000ae50       _UI_OwnerDrawVisible       4000be50 f   ui_main.obj
 0001:0000b0b0       _UI_Handicap_HandleKey     4000c0b0 f   ui_main.obj
 0001:0000b140       _UI_Effects_HandleKey      4000c140 f   ui_main.obj
 0001:0000b1e0       _UI_AutoSwitch_HandleKey   4000c1e0 f   ui_main.obj
 0001:0000b250       _UI_Skill_HandleKey        4000c250 f   ui_main.obj
 0001:0000b2c0       _UI_TeamName_HandleKey     4000c2c0 f   ui_main.obj
 0001:0000b350       _UI_TeamMember_HandleKey   4000c350 f   ui_main.obj
 0001:0000b420       _UI_OpponentName_HandleKey 4000c420 f   ui_main.obj
 0001:0000b460       _UI_BotName_HandleKey      4000c460 f   ui_main.obj
 0001:0000b4c0       _UI_BotSkill_HandleKey     4000c4c0 f   ui_main.obj
 0001:0000b530       _UI_RedBlue_HandleKey      4000c530 f   ui_main.obj
 0001:0000b560       _UI_Crosshair_HandleKey    4000c560 f   ui_main.obj
 0001:0000b5d0       _UI_SelectedPlayer_HandleKey 4000c5d0 f   ui_main.obj
 0001:0000b680       _UI_GetValue               4000c680 f   ui_main.obj
 0001:0000b690       _UI_ServersQsortCompare    4000c690 f   ui_main.obj
 0001:0000b700       _UI_LoadMods               4000c700 f   ui_main.obj
 0001:0000b7c0       _UI_LoadMovies             4000c7c0 f   ui_main.obj
 0001:0000b870       _UI_LoadDemos              4000c870 f   ui_main.obj
 0001:0000b990       _UI_SetNextMap             4000c990 f   ui_main.obj
 0001:0000b9e0       _UI_Update                 4000c9e0 f   ui_main.obj
 0001:0000be80       _UI_DeferMenuScript        4000ce80 f   ui_main.obj
 0001:0000c3b0       _UI_GetTeamColor           4000d3b0 f   ui_main.obj
 0001:0000c3c0       _UI_MapCountByGameType     4000d3c0 f   ui_main.obj
 0001:0000c4e0       _UI_HeadCountByTeam        4000d4e0 f   ui_main.obj
 0001:0000c700       _UI_HeadCountByColor       4000d700 f   ui_main.obj
 0001:0000c760       _UI_InsertServerIntoDisplayList 4000d760 f   ui_main.obj
 0001:0000c7a0       _UI_RemoveServerFromDisplayList 4000d7a0 f   ui_main.obj
 0001:0000c7f0       _UI_BinaryServerInsertion  4000d7f0 f   ui_main.obj
 0001:0000c870       _UI_BuildServerDisplayList 4000d870 f   ui_main.obj
 0001:0000cb70       _UI_SortServerStatusInfo   4000db70 f   ui_main.obj
 0001:0000cc60       _UI_GetServerStatusInfo    4000dc60 f   ui_main.obj
 0001:0000cf70       _stristr                   4000df70 f   ui_main.obj
 0001:0000cfe0       _UI_BuildServerStatus      4000dfe0 f   ui_main.obj
 0001:0000d090       _UI_FeederCount            4000e090 f   ui_main.obj
 0001:0000d1a0       _UI_SelectedMap            4000e1a0 f   ui_main.obj
 0001:0000d1e0       _UI_SelectedHead           4000e1e0 f   ui_main.obj
 0001:0000d220       _UI_SelectedTeamHead       4000e220 f   ui_main.obj
 0001:0000d2a0       _UI_GetIndexFromSelection  4000e2a0 f   ui_main.obj
 0001:0000d2d0       _UI_UpdatePendingPings     4000e2d0 f   ui_main.obj
 0001:0000d300       _UI_FeederItemText         4000e300 f   ui_main.obj
 0001:0000d990       _UI_FeederItemImage        4000e990 f   ui_main.obj
 0001:0000e150       _GameType_Parse            4000f150 f   ui_main.obj
 0001:0000e2b0       _MapList_Parse             4000f2b0 f   ui_main.obj
 0001:0000e4a0       _UI_ParseGameInfo          4000f4a0 f   ui_main.obj
 0001:0000e570       _UI_Pause                  4000f570 f   ui_main.obj
 0001:0000e5c0       _UI_PlayCinematic          4000f5c0 f   ui_main.obj
 0001:0000e600       _UI_StopCinematic          4000f600 f   ui_main.obj
 0001:0000e6c0       _UI_DrawCinematic          4000f6c0 f   ui_main.obj
 0001:0000e700       _UI_RunCinematicFrame      4000f700 f   ui_main.obj
 0001:0000e860       _UI_BuildQ3Model_List      4000f860 f   ui_main.obj
 0001:0000ee80       _UI_ReadableSize           4000fe80 f   ui_main.obj
 0001:0000efc0       _UI_PrintTime              4000ffc0 f   ui_main.obj
 0001:0000f150       _UI_StopServerRefresh      40010150 f   ui_main.obj
 0001:0000f1c0       _UI_DoServerRefresh        400101c0 f   ui_main.obj
 0001:0000f260       _GetCRDelineatedString     40010260 f   ui_main.obj
 0001:0000f2e0       _GetMonthAbbrevString      400102e0 f   ui_main.obj
 0001:0000f300       _GetNetSourceString        40010300 f   ui_main.obj
 0001:0000f420       _UI_DrawNetSource          40010420 f   ui_main.obj
 0001:0000f4b0       _UI_OwnerDrawWidth         400104b0 f   ui_main.obj
 0001:0000f970       _UI_OwnerDraw              40010970 f   ui_main.obj
 0001:00010350       _UI_ClanName_HandleKey     40011350 f   ui_main.obj
 0001:00010400       _UI_GameType_HandleKey     40011400 f   ui_main.obj
 0001:00010550       _UI_NetGameType_HandleKey  40011550 f   ui_main.obj
 0001:00010610       _UI_JoinGameType_HandleKey 40011610 f   ui_main.obj
 0001:00010690       _UI_NetFilter_HandleKey    40011690 f   ui_main.obj
 0001:00010710       _UI_StartSkirmish          40011710 f   ui_main.obj
 0001:00010f70       _UI_BuildFindPlayerList    40011f70 f   ui_main.obj
 0001:000113b0       _UI_DisplayDownloadInfo    400123b0 f   ui_main.obj
 0001:00011f50       _UI_StartServerRefresh     40012f50 f   ui_main.obj
 0001:000123a0       _UI_NetSource_HandleKey    400133a0 f   ui_main.obj
 0001:00012440       _UI_OwnerDrawHandleKey     40013440 f   ui_main.obj
 0001:00012750       _UI_RunMenuScript          40013750 f   ui_main.obj
 0001:000144d0       _hashForString             400154d0 f   ui_shared.obj
 0001:00017490       _Scroll_TextScroll_AutoFunc 40018490 f   ui_shared.obj
 0001:00017500       _Scroll_TextScroll_ThumbFunc 40018500 f   ui_shared.obj
 0001:00017610       _Scroll_ListBox_AutoFunc   40018610 f   ui_shared.obj
 0001:00017680       _Scroll_ListBox_ThumbFunc  40018680 f   ui_shared.obj
 0001:00017830       _Scroll_Slider_ThumbFunc   40018830 f   ui_shared.obj
 0001:00017cf0       _Window_CloseCinematic     40018cf0 f   ui_shared.obj
 0001:00017d20       _Menu_CloseCinematics      40018d20 f   ui_shared.obj
 0001:00017dc0       _Display_CloseCinematics   40018dc0 f   ui_shared.obj
 0001:00017ec0       _Item_CorrectedTextRect    40018ec0 f   ui_shared.obj
 0001:00018e20       _Controls_GetKeyAssignment 40019e20 f   ui_shared.obj
 0001:0001bf20       _Item_TextScroll_BuildLines 4001cf20 f   ui_shared.obj
 0001:0001cb60       _Window_CacheContents      4001db60 f   ui_shared.obj
 0001:0001cb90       _Item_CacheContents        4001db90 f   ui_shared.obj
 0001:0001cbc0       _Menu_CacheContents        4001dbc0 f   ui_shared.obj
 0001:0001ccb0       _Menu_OverActiveItem       4001dcb0 f   ui_shared.obj
 0001:0001cfd0       _Menu_RunCloseScript       4001dfd0 f   ui_shared.obj
 0001:000204c0       _$$$00001                  400214c0 f   LIBC:strchr.obj
 0001:00020650       _swap                      40021650 f   LIBC:qsort.obj
 0001:00020670       _shortsort                 40021670 f   LIBC:qsort.obj
 0001:0002108f       __shift                    4002208f f   LIBC:cvt.obj
 0001:0002119d       __cftoe_g                  4002219d f   LIBC:cvt.obj
 0001:000212a1       __cftof_g                  400222a1 f   LIBC:cvt.obj
 0001:00021550       _write_char                40022550 f   LIBC:output.obj
 0001:00021583       _write_multi_char          40022583 f   LIBC:output.obj
 0001:000215a7       _write_string              400225a7 f   LIBC:output.obj
 0001:000215de       _get_int_arg               400225de f   LIBC:output.obj
 0001:000215e7       _get_int64_arg             400225e7 f   LIBC:output.obj
 0001:000215f3       _get_short_arg             400225f3 f   LIBC:output.obj
 0001:00021fb8       _strncnt                   40022fb8 f   LIBC:a_map.obj
 0001:000223c0       __initterm                 400233c0 f   LIBC:crt0dat.obj
 0001:000223d8       __initterm_e               400233d8 f   LIBC:crt0dat.obj
 0001:00022460       _doexit                    40023460 f   LIBC:crt0dat.obj
 0001:000227f6       _parse_cmdline             400237f6 f   LIBC:stdargv.obj
 0001:00022c9e       _xcptlookup                40023c9e f   LIBC:winxfltr.obj
 0001:00022fd9       $$$00003                   40023fd9 f   LIBC:exsup3.obj
 0001:0002336d       _getSystemCP               4002436d f   LIBC:mbctype.obj
 0001:000233b3       _CPtoLCID                  400243b3 f   LIBC:mbctype.obj
 0001:000233e2       _setSBCS                   400243e2 f   LIBC:mbctype.obj
 0001:0002340b       _setSBUpLow                4002440b f   LIBC:mbctype.obj
 0001:00023f43       __abstract_cw              40024f43 f   LIBC:ieee87.obj
 0001:00023fd5       __hw_cw                    40024fd5 f   LIBC:ieee87.obj
 0001:00024063       __abstract_sw              40025063 f   LIBC:ieee87.obj
 0001:000245ce       _report_failure            400255ce f   LIBC:secchk.obj
 0001:000261e0       $$$00001                   400271e0 f   LIBC:exsup.obj
 0001:00026200       __unwind_handler           40027200 f   LIBC:exsup.obj
 0001:00026200       $$$00003                   40027200 f   LIBC:exsup.obj
 0001:00026222       $$$00005                   40027222 f   LIBC:exsup.obj
 0001:0002628a       $$$00007                   4002728a f   LIBC:exsup.obj
 0001:000262ce       $$$00011                   400272ce f   LIBC:exsup.obj
 0001:00026f06       _flsall                    40027f06 f   LIBC:fflush.obj
