 cgamex86

 Timestamp is 478abaa3 (Sun Jan 13 20:28:03 2008)

 Preferred load address is 30000000

 Start         Length     Name                   Class
 0001:00000000 0004a128H .text                   CODE
 0002:00000000 000000dcH .idata$5                DATA
 0002:000000e0 00010570H .rdata                  DATA
 0002:00010650 00000008H .rdata$sxdata           DATA
 0002:00010658 00000004H .rtc$IAA                DATA
 0002:0001065c 00000004H .rtc$IZZ                DATA
 0002:00010660 00000004H .rtc$TAA                DATA
 0002:00010664 00000004H .rtc$TZZ                DATA
 0002:00010668 00000014H .idata$2                DATA
 0002:0001067c 00000014H .idata$3                DATA
 0002:00010690 000000dcH .idata$4                DATA
 0002:0001076c 000003d8H .idata$6                DATA
 0002:00010b50 00000059H .edata                  DATA
 0003:00000000 00000004H .CRT$XCA                DATA
 0003:00000004 00000004H .CRT$XCAA               DATA
 0003:00000008 00000004H .CRT$XCZ                DATA
 0003:0000000c 00000004H .CRT$XIA                DATA
 0003:00000010 00000010H .CRT$XIC                DATA
 0003:00000020 00000004H .CRT$XIZ                DATA
 0003:00000024 00000004H .CRT$XPA                DATA
 0003:00000028 00000004H .CRT$XPX                DATA
 0003:0000002c 00000004H .CRT$XPZ                DATA
 0003:00000030 00000004H .CRT$XTA                DATA
 0003:00000034 00000004H .CRT$XTZ                DATA
 0003:00000040 00008374H .data                   DATA
 0003:000083c0 00976620H .bss                    DATA

  Address         Publics by Value              Rva+Base     Lib:Object

 0000:00000000       __except_list              00000000     <absolute>
 0000:00000002       ___safe_se_handler_count   00000002     <absolute>
 0001:00000000       _vectoyaw                  30001000 f   bg_misc.obj
 0001:00000080       _BG_HasYsalamiri           30001080 f   bg_misc.obj
 0001:000000c0       _BG_CanUseFPNow            300010c0 f   bg_misc.obj
 0001:00000160       _BG_FindItemForPowerup     30001160 f   bg_misc.obj
 0001:000001a0       _BG_FindItemForHoldable    300011a0 f   bg_misc.obj
 0001:000001f0       _BG_ProperForceIndex       300011f0 f   bg_misc.obj
 0001:00000210       _BG_CycleForce             30001210 f   bg_misc.obj
 0001:00000300       _BG_GetItemIndexByTag      30001300 f   bg_misc.obj
 0001:00000340       _BG_CycleInven             30001340 f   bg_misc.obj
 0001:000003c0       _BG_CanItemBeGrabbed       300013c0 f   bg_misc.obj
 0001:00000670       _BG_EvaluateTrajectory     30001670 f   bg_misc.obj
 0001:000007b0       _BG_EvaluateTrajectoryDelta 300017b0 f   bg_misc.obj
 0001:000008a0       _BG_AddPredictableEventToPlayerstate 300018a0 f   bg_misc.obj
 0001:000008d0       _BG_TouchJumpPad           300018d0 f   bg_misc.obj
 0001:00000940       _BG_PlayerStateToEntityState 30001940 f   bg_misc.obj
 0001:00000cf0       _BG_PlayerTouchesItem      30001cf0 f   bg_misc.obj
 0001:00000d90       _BG_InSpecialJump          30001d90 f   bg_panimate.obj
 0001:00000df0       _BG_InSaberStandAnim       30001df0 f   bg_panimate.obj
 0001:00000e20       _BG_SaberInAttack          30001e20 f   bg_panimate.obj
 0001:00000e50       _BG_SaberInSpecial         30001e50 f   bg_panimate.obj
 0001:00000e70       _BG_SaberInIdle            30001e70 f   bg_panimate.obj
 0001:00000e90       _BG_FlippingAnim           30001e90 f   bg_panimate.obj
 0001:00000ef0       _BG_SpinningSaberAnim      30001ef0 f   bg_panimate.obj
 0001:00001140       _BG_SaberInSpecialAttack   30002140 f   bg_panimate.obj
 0001:00001180       _BG_InRoll                 30002180 f   bg_panimate.obj
 0001:000011b0       _BG_InDeathAnim            300021b0 f   bg_panimate.obj
 0001:00001210       _PM_SaberInParry           30002210 f   bg_panimate.obj
 0001:00001230       _PM_SaberInKnockaway       30002230 f   bg_panimate.obj
 0001:00001250       _PM_SaberInReflect         30002250 f   bg_panimate.obj
 0001:00001270       _PM_SaberInStart           30002270 f   bg_panimate.obj
 0001:00001290       _PM_InSaberAnim            30002290 f   bg_panimate.obj
 0001:000012b0       _PM_InKnockDown            300022b0 f   bg_panimate.obj
 0001:00001310       _PM_PainAnim               30002310 f   bg_panimate.obj
 0001:00001330       _PM_JumpingAnim            30002330 f   bg_panimate.obj
 0001:00001350       _PM_LandingAnim            30002350 f   bg_panimate.obj
 0001:000013a0       _PM_SpinningAnim           300023a0 f   bg_panimate.obj
 0001:000013b0       _PM_InOnGroundAnim         300023b0 f   bg_panimate.obj
 0001:00001460       _PM_InRollComplete         30002460 f   bg_panimate.obj
 0001:00001490       _PM_AnimLength             30002490 f   bg_panimate.obj
 0001:000014c0       _BG_ParseAnimationFile     300024c0 f   bg_panimate.obj
 0001:00001790       _PM_ContinueLegsAnim       30002790 f   bg_panimate.obj
 0001:000017c0       _PM_ForceLegsAnim          300027c0 f   bg_panimate.obj
 0001:00001840       _PM_StartTorsoAnim         30002840 f   bg_panimate.obj
 0001:00001870       _BG_SaberStartTransAnim    30002870 f   bg_panimate.obj
 0001:000018d0       _PM_SetAnimFinal           300028d0 f   bg_panimate.obj
 0001:00001b10       _PM_SetAnim                30002b10 f   bg_panimate.obj
 0001:00001bd0       _PM_GetSaberStance         30002bd0 f   bg_pmove.obj
 0001:00001c20       _PM_AddEvent               30002c20 f   bg_pmove.obj
 0001:00001c40       _PM_AddEventWithParm       30002c40 f   bg_pmove.obj
 0001:00001c60       _PM_AddTouchEnt            30002c60 f   bg_pmove.obj
 0001:00001ca0       _PM_ClipVelocity           30002ca0 f   bg_pmove.obj
 0001:00002000       _PM_ForceJumpingUp         30003000 f   bg_pmove.obj
 0001:00002160       _PM_SetPMViewAngle         30003160 f   bg_pmove.obj
 0001:000021d0       _PM_AdjustAngleForWallRun  300031d0 f   bg_pmove.obj
 0001:000024b0       _PM_SetForceJumpZStart     300034b0 f   bg_pmove.obj
 0001:00005a00       _PM_Use                    30006a00 f   bg_pmove.obj
 0001:00005a60       _PM_RunningAnim            30006a60 f   bg_pmove.obj
 0001:00006070       _PM_BeginWeaponChange      30007070 f   bg_pmove.obj
 0001:00006110       _PM_FinishWeaponChange     30007110 f   bg_pmove.obj
 0001:000077a0       _PM_UpdateViewAngles       300087a0 f   bg_pmove.obj
 0001:00007870       _PM_AdjustAttackStates     30008870 f   bg_pmove.obj
 0001:00007b90       _BG_CmdForRoll             30008b90 f   bg_pmove.obj
 0001:00007bf0       _BG_AdjustClientSpeed      30008bf0 f   bg_pmove.obj
 0001:00007fe0       _PmoveSingle               30008fe0 f   bg_pmove.obj
 0001:00008680       _Pmove                     30009680 f   bg_pmove.obj
 0001:00008730       _PM_irand_timesync         30009730 f   bg_saber.obj
 0001:00008780       _BG_ForcePowerDrain        30009780 f   bg_saber.obj
 0001:00008870       _PM_SaberMoveQuadrantForMovement 30009870 f   bg_saber.obj
 0001:000088d0       _PM_SaberInBounce          300098d0 f   bg_saber.obj
 0001:00008900       _PM_SaberInTransition      30009900 f   bg_saber.obj
 0001:00008920       _PM_SaberAttackChainAngle  30009920 f   bg_saber.obj
 0001:00008960       _PM_SaberKataDone          30009960 f   bg_saber.obj
 0001:00008ac0       _PM_SaberLockBreak         30009ac0 f   bg_saber.obj
 0001:00008dc0       _PM_SaberLocked            30009dc0 f   bg_saber.obj
 0001:00009030       _PM_SaberInBrokenParry     3000a030 f   bg_saber.obj
 0001:00009060       _PM_BrokenParryForParry    3000a060 f   bg_saber.obj
 0001:00009130       _PM_CanBackstab            3000a130 f   bg_saber.obj
 0001:00009250       _PM_SaberFlipOverAttackMove 3000a250 f   bg_saber.obj
 0001:000093f0       _PM_SomeoneInFront         3000a3f0 f   bg_saber.obj
 0001:00009510       _PM_SaberLungeAttackMove   3000a510 f   bg_saber.obj
 0001:000095a0       _PM_SaberJumpAttackMove    3000a5a0 f   bg_saber.obj
 0001:00009670       _PM_GroundDistance         3000a670 f   bg_saber.obj
 0001:00009720       _PM_SaberAttackForMovement 3000a720 f   bg_saber.obj
 0001:00009960       _PM_SetSaberMove           3000a960 f   bg_saber.obj
 0001:00009d00       _PM_SaberAnimTransitionAnim 3000ad00 f   bg_saber.obj
 0001:00009e50       _PM_WeaponLightsaber       3000ae50 f   bg_saber.obj
 0001:0000a800       _PM_SlideMove              3000b800 f   bg_slidemove.obj
 0001:0000aed0       _PM_StepSlideMove          3000bed0 f   bg_slidemove.obj
 0001:0000b460       _CG_TargetCommand_f        3000c460 f   cg_consolecmds.obj
 0001:0000bce0       _CG_ConsoleCommand         3000cce0 f   cg_consolecmds.obj
 0001:0000bd20       _CG_InitConsoleCommands    3000cd20 f   cg_consolecmds.obj
 0001:0000bf60       _CG_Text_Width             3000cf60 f   cg_draw.obj
 0001:0000bfb0       _CG_Text_Height            3000cfb0 f   cg_draw.obj
 0001:0000c000       _CG_Text_Paint             3000d000 f   cg_draw.obj
 0001:0000c750       _CG_Draw3DModel            3000d750 f   cg_draw.obj
 0001:0000c870       _CG_DrawFlagModel          3000d870 f   cg_draw.obj
 0001:0000c9e0       _CG_DrawHUDLeftFrame1      3000d9e0 f   cg_draw.obj
 0001:0000ca20       _CG_DrawHUDLeftFrame2      3000da20 f   cg_draw.obj
 0001:0000ca60       _CG_DrawHealth             3000da60 f   cg_draw.obj
 0001:0000cb80       _CG_DrawArmor              3000db80 f   cg_draw.obj
 0001:0000cdc0       _CG_DrawHUDRightFrame1     3000ddc0 f   cg_draw.obj
 0001:0000ce00       _CG_DrawHUDRightFrame2     3000de00 f   cg_draw.obj
 0001:0000d0e0       _CG_DrawForcePower         3000e0e0 f   cg_draw.obj
 0001:0000d240       _CG_DrawHUD                3000e240 f   cg_draw.obj
 0001:0000d640       _CG_DrawForceSelect        3000e640 f   cg_draw.obj
 0001:0000d9a0       _CG_DrawInvenSelect        3000e9a0 f   cg_draw.obj
 0001:0000dcb0       _CG_DrawTeamBackground     3000ecb0 f   cg_draw.obj
 0001:0000e9e0       _CG_AddLagometerFrameInfo  3000f9e0 f   cg_draw.obj
 0001:0000ea10       _CG_AddLagometerSnapshotInfo 3000fa10 f   cg_draw.obj
 0001:0000ee70       _CG_CenterPrint            3000fe70 f   cg_draw.obj
 0001:0000f020       _CG_WorldCoordToScreenCoordFloat 30010020 f   cg_draw.obj
 0001:0000f120       _CG_WorldCoordToScreenCoord 30010120 f   cg_draw.obj
 0001:0000f170       _CG_SaberClashFlare        30010170 f   cg_draw.obj
 0001:00010180       _CG_DrawFlagStatus         30011180 f   cg_draw.obj
 0001:00011670       _CG_DrawActive             30012670 f   cg_draw.obj
 0001:000117b0       _CG_GetColorForHealth      300127b0 f   cg_drawtools.obj
 0001:00011840       _CG_DrawSides              30012840 f   cg_drawtools.obj
 0001:000118b0       _CG_DrawTopBottom          300128b0 f   cg_drawtools.obj
 0001:00011920       _CG_FillRect               30012920 f   cg_drawtools.obj
 0001:00011960       _CG_DrawPic                30012960 f   cg_drawtools.obj
 0001:00011990       _CG_DrawRotatePic          30012990 f   cg_drawtools.obj
 0001:000119d0       _CG_DrawRotatePic2         300129d0 f   cg_drawtools.obj
 0001:00011a10       _CG_DrawChar               30012a10 f   cg_drawtools.obj
 0001:00011ab0       _CG_DrawStringExt          30012ab0 f   cg_drawtools.obj
 0001:00011c70       _CG_DrawBigString          30012c70 f   cg_drawtools.obj
 0001:00011cc0       _CG_DrawSmallString        30012cc0 f   cg_drawtools.obj
 0001:00011d10       _CG_DrawStrlen             30012d10 f   cg_drawtools.obj
 0001:00011dd0       _CG_TileClear              30012dd0 f   cg_drawtools.obj
 0001:00011e70       _CG_FadeColor              30012e70 f   cg_drawtools.obj
 0001:00011ee0       _CG_ColorForGivenHealth    30012ee0 f   cg_drawtools.obj
 0001:00011f50       _CG_ColorForHealth         30012f50 f   cg_drawtools.obj
 0001:00011fa0       _CG_DrawNumField           30012fa0 f   cg_drawtools.obj
 0001:00012270       _UI_DrawProportionalString 30013270 f   cg_drawtools.obj
 0001:00012310       _UI_DrawScaledProportionalString 30013310 f   cg_drawtools.obj
 0001:000123a0       _CG_DrawRect               300133a0 f   cg_drawtools.obj
 0001:000123f0       _CG_SmokePuff              300133f0 f   cg_effects.obj
 0001:00012570       _CG_TestLine               30013570 f   cg_effects.obj
 0001:00012680       _CG_ThrowChunk             30013680 f   cg_effects.obj
 0001:00012fd0       _CG_InitGlass              30013fd0 f   cg_effects.obj
 0001:00013060       _CG_DoGlass                30014060 f   cg_effects.obj
 0001:00013420       _CG_GlassShatter           30014420 f   cg_effects.obj
 0001:00013480       _CG_CreateDebris           30014480 f   cg_effects.obj
 0001:00013920       _CG_ScorePlum              30014920 f   cg_effects.obj
 0001:00013a50       _CG_PositionEntityOnTag    30014a50 f   cg_ents.obj
 0001:00013b40       _CG_PositionRotatedEntityOnTag 30014b40 f   cg_ents.obj
 0001:00013c30       _CG_SetEntitySoundPosition 30014c30 f   cg_ents.obj
 0001:00013de0       _FX_AddOrientedLine        30014de0 f   cg_ents.obj
 0001:00013f10       _FX_DrawPortableShield     30014f10 f   cg_ents.obj
 0001:000140a0       _CG_Special                300150a0 f   cg_ents.obj
 0001:000140d0       _CG_SetGhoul2Info          300150d0 f   cg_ents.obj
 0001:00014140       _ScaleModelAxis            30015140 f   cg_ents.obj
 0001:00015840       _CG_GreyItem               30016840 f   cg_ents.obj
 0001:00016820       _CG_Beam                   30017820 f   cg_ents.obj
 0001:000169d0       _CG_AdjustPositionForMover 300179d0 f   cg_ents.obj
 0001:00016bd0       _CG_CalcEntityLerpPositions 30017bd0 f   cg_ents.obj
 0001:00016e50       _CG_ManualEntityRender     30017e50 f   cg_ents.obj
 0001:00016e60       _CG_AddPacketEntities      30017e60 f   cg_ents.obj
 0001:00017050       _CG_ROFF_NotetrackCallback 30018050 f   cg_ents.obj
 0001:00017440       _CG_PlaceString            30018440 f   cg_event.obj
 0001:00017c20       _CG_ToggleBinoculars       30018c20 f   cg_event.obj
 0001:00017eb0       _CG_PainEvent              30018eb0 f   cg_event.obj
 0001:00017f30       _CG_ReattachLimb           30018f30 f   cg_event.obj
 0001:00018210       _CG_PrintCTFMessage        30019210 f   cg_event.obj
 0001:000183b0       _CG_GetCTFMessageEvent     300193b0 f   cg_event.obj
 0001:00018440       _DoFall                    30019440 f   cg_event.obj
 0001:000185a0       _CG_InClientBitflags       300195a0 f   cg_event.obj
 0001:00018640       _CG_EntityEvent            30019640 f   cg_event.obj
 0001:0001b1d0       _CG_CheckEvents            3001c1d0 f   cg_event.obj
 0001:0001b250       _CG_LoadingString          3001c250 f   cg_info.obj
 0001:0001b270       _CG_LoadingItem            3001c270 f   cg_info.obj
 0001:0001b2a0       _CG_LoadingClient          3001c2a0 f   cg_info.obj
 0001:0001b300       _CG_LoadBar                3001c300 f   cg_info.obj
 0001:0001b3c0       _CG_DrawInformation        3001c3c0 f   cg_info.obj
 0001:0001bc40       _CG_RunLightStyles         3001cc40 f   cg_light.obj
 0001:0001bcd0       _CG_SetLightstyle          3001ccd0 f   cg_light.obj
 0001:0001bd70       _CG_ClearLightStyles       3001cd70 f   cg_light.obj
 0001:0001bdb0       _CG_InitLocalEntities      3001cdb0 f   cg_localents.obj
 0001:0001be00       _CG_FreeLocalEntity        3001ce00 f   cg_localents.obj
 0001:0001be40       _CG_AllocLocalEntity       3001ce40 f   cg_localents.obj
 0001:0001bec0       _CG_BloodTrail             3001cec0 f   cg_localents.obj
 0001:0001bf90       _CG_FragmentBounceMark     3001cf90 f   cg_localents.obj
 0001:0001c070       _CG_ReflectVelocity        3001d070 f   cg_localents.obj
 0001:0001c190       _CG_AddFragment            3001d190 f   cg_localents.obj
 0001:0001c3d0       _CG_AddFadeRGB             3001d3d0 f   cg_localents.obj
 0001:0001cb30       _CG_AddRefEntity           3001db30 f   cg_localents.obj
 0001:0001cb90       _CG_AddScorePlum           3001db90 f   cg_localents.obj
 0001:0001ce30       _CG_AddOLine               3001de30 f   cg_localents.obj
 0001:0001cf20       _CG_AddLocalEntities       3001df20 f   cg_localents.obj
 0001:0001d2c0       _CG_RegisterCvars          3001e2c0 f   cg_main.obj
 0001:0001d470       _CG_CrosshairPlayer        3001e470 f   cg_main.obj
 0001:0001d4a0       _CG_LastAttacker           3001e4a0 f   cg_main.obj
 0001:0001d4c0       _CG_Printf                 3001e4c0 f   cg_main.obj
 0001:0001d4f0       _CG_Error                  3001e4f0 f   cg_main.obj
 0001:0001d520       _Com_Error                 3001e520 f   cg_main.obj
 0001:0001d560       _Com_Printf                3001e560 f   cg_main.obj
 0001:0001d5a0       _CG_Argv                   3001e5a0 f   cg_main.obj
 0001:0001d690       _CG_GetStripEdString       3001e690 f   cg_main.obj
 0001:0001d6e0       _CG_BuildSpectatorString   3001e6e0 f   cg_main.obj
 0001:0001d760       _CG_ConfigString           3001e760 f   cg_main.obj
 0001:0001d790       _CG_StartMusic             3001e790 f   cg_main.obj
 0001:0001d800       _CG_DeferMenuScript        3001e800 f   cg_newDraw.obj
 0001:0001d890       _CG_SetScoreSelection      3001e890 f   cg_main.obj
 0001:0001dc50       _CG_Text_PaintWithCursor   3001ec50 f   cg_main.obj
 0001:0001ddf0       _CG_LoadHudMenu            3001edf0 f   cg_main.obj
 0001:0001e000       _CG_AssetCache             3001f000 f   cg_main.obj
 0001:0001e110       _CG_Shutdown               3001f110 f   cg_main.obj
 0001:0001e120       _CG_NextForcePower_f       3001f120 f   cg_main.obj
 0001:0001e190       _CG_PrevForcePower_f       3001f190 f   cg_main.obj
 0001:0001e200       _CG_NextInventory_f        3001f200 f   cg_main.obj
 0001:0001e280       _CG_PrevInventory_f        3001f280 f   cg_main.obj
 0001:0001e360       _CG_UpdateCvars            3001f360 f   cg_main.obj
 0001:0001f800       _CG_Init                   30020800 f   cg_main.obj
 0001:0001fe40       _vmMain                    30020e40 f   cg_main.obj
 0001:00020080       _CG_InitMarkPolys          30021080 f   cg_marks.obj
 0001:000200d0       _CG_AllocMark              300210d0 f   cg_marks.obj
 0001:00020190       _CG_AddMarks               30021190 f   cg_marks.obj
 0001:000203b0       _CG_ClearParticles         300213b0 f   cg_marks.obj
 0001:000204b0       _CG_AddParticleToScene     300214b0 f   cg_marks.obj
 0001:00021e60       _CG_AddParticles           30022e60 f   cg_marks.obj
 0001:00022140       _CG_ImpactMark             30023140 f   cg_marks.obj
 0001:00022560       _CG_InitTeamChat           30023560 f   cg_newDraw.obj
 0001:00022590       _CG_CheckOrderPending      30023590 f   cg_newDraw.obj
 0001:00022770       _CG_GetSelectedPlayer      30023770 f   cg_newDraw.obj
 0001:00022790       _CG_SelectNextPlayer       30023790 f   cg_newDraw.obj
 0001:000227c0       _CG_SelectPrevPlayer       300237c0 f   cg_newDraw.obj
 0001:000227f0       _CG_StatusHandle           300237f0 f   cg_newDraw.obj
 0001:00022850       _CG_GetValue               30023850 f   cg_newDraw.obj
 0001:00022980       _CG_OtherTeamHasFlag       30023980 f   cg_newDraw.obj
 0001:000229c0       _CG_YourTeamHasFlag        300239c0 f   cg_newDraw.obj
 0001:00022a00       _CG_OwnerDrawVisible       30023a00 f   cg_newDraw.obj
 0001:00022b30       _CG_GetKillerText          30023b30 f   cg_newDraw.obj
 0001:00022b70       _CG_GetGameStatusText      30023b70 f   cg_newDraw.obj
 0001:00022c60       _CG_GameTypeString         30023c60 f   cg_newDraw.obj
 0001:00022cc0       _CG_OwnerDraw              30023cc0 f   cg_newDraw.obj
 0001:00022cc0       _CG_RunMenuScript          30023cc0 f   cg_newDraw.obj
 0001:00022cd0       _CG_MouseEvent             30023cd0 f   cg_newDraw.obj
 0001:00022dc0       _CG_EventHandling          30023dc0 f   cg_newDraw.obj
 0001:00022df0       _CG_KeyEvent               30023df0 f   cg_newDraw.obj
 0001:00022e90       _CG_ShowResponseHead       30023e90 f   cg_newDraw.obj
 0001:00022ec0       _CG_GetTeamColor           30023ec0 f   cg_newDraw.obj
 0001:00022f20       _CG_CustomSound            30023f20 f   cg_players.obj
 0001:00022fd0       _CG_NeedAnimSequence       30023fd0 f   cg_players.obj
 0001:000230d0       _CG_ParseSurfsFile         300240d0 f   cg_players.obj
 0001:00023e50       _CG_LoadDeferredPlayers    30024e50 f   cg_players.obj
 0001:00023e60       _CG_InRoll                 30024e60 f   cg_players.obj
 0001:00023ea0       _CG_InRollAnim             30024ea0 f   cg_players.obj
 0001:000245c0       _CG_InWalkingAnim          300255c0 f   cg_players.obj
 0001:000247a0       _CG_FootStep               300257a0 f   cg_players.obj
 0001:00025050       _CG_InKnockDown            30026050 f   cg_players.obj
 0001:000250a0       _CG_G2ClientSpineAngles    300260a0 f   cg_players.obj
 0001:000269b0       _CG_ForcePushBlur          300279b0 f   cg_players.obj
 0001:00026b20       _CG_ForceGripEffect        30027b20 f   cg_players.obj
 0001:00026cb0       _CG_PlayerShieldHit        30027cb0 f   cg_players.obj
 0001:00026d50       _CG_DrawPlayerShield       30027d50 f   cg_players.obj
 0001:00026eb0       _CG_PlayerHitFX            30027eb0 f   cg_players.obj
 0001:00026f00       _CG_DoSaber                30027f00 f   cg_players.obj
 0001:000272b0       _CG_CreateSaberMarks       300282b0 f   cg_players.obj
 0001:00027a30       _CG_G2TraceCollide         30028a30 f   cg_players.obj
 0001:00027b60       _CG_G2SaberEffects         30028b60 f   cg_players.obj
 0001:00027c60       _CG_AddSaberBlade          30028c60 f   cg_players.obj
 0001:00028ac0       _CG_IsMindTricked          30029ac0 f   cg_players.obj
 0001:00028b60       _CG_DrawPlayerSphere       30029b60 f   cg_players.obj
 0001:00028cc0       _CG_ThereIsAMaster         30029cc0 f   cg_players.obj
 0001:00028cf0       _CG_FootStepGeneric        30029cf0 f   cg_players.obj
 0001:00029460       _CG_G2AnimEntSpineAngles   3002a460 f   cg_players.obj
 0001:00029c00       _CG_DrawNoForceSphere      3002ac00 f   cg_players.obj
 0001:00029db0       _CG_ForceFPLSPlayerModel   3002adb0 f   cg_players.obj
 0001:0002a090       _CG_ResetPlayerEntity      3002b090 f   cg_players.obj
 0001:0002a2b0       _CG_LoadClientInfo         3002b2b0 f   cg_players.obj
 0001:0002a8c0       _CG_NewClientInfo          3002b8c0 f   cg_players.obj
 0001:0002ae80       _CG_ActualLoadDeferredPlayers 3002be80 f   cg_players.obj
 0001:0002b0c0       _CG_AddRefEntityWithPowerups 3002c0c0 f   cg_players.obj
 0001:0002b160       _CG_G2Animated             3002c160 f   cg_players.obj
 0001:0002b780       _CG_Player                 3002c780 f   cg_players.obj
 0001:0002e650       _CG_Respawn                3002f650 f   cg_playerstate.obj
 0001:0002e680       _CG_CheckPlayerstateEvents 3002f680 f   cg_playerstate.obj
 0001:0002e760       _CG_CheckLocalSounds       3002f760 f   cg_playerstate.obj
 0001:0002e9d0       _CG_DamageFeedback         3002f9d0 f   cg_playerstate.obj
 0001:0002ecb0       _CG_TransitionPlayerState  3002fcb0 f   cg_playerstate.obj
 0001:0002edd0       _CG_BuildSolidList         3002fdd0 f   cg_predict.obj
 0001:0002f090       _CG_Trace                  30030090 f   cg_predict.obj
 0001:0002f140       _CG_PointContents          30030140 f   cg_predict.obj
 0001:0002f570       _CG_EntityStateToPlayerState 30030570 f   cg_predict.obj
 0001:0002f760       _CG_PredictPlayerState     30030760 f   cg_predict.obj
 0001:0002fe80       _CGSagaGetValueGroup       30030e80 f   cg_saga.obj
 0001:0002ff70       _CGSagaGetPairedValue      30030f70 f   cg_saga.obj
 0001:000300e0       _CG_InitSagaMode           300310e0 f   cg_saga.obj
 0001:000301c0       _CG_SagaRoundOver          300311c0 f   cg_saga.obj
 0001:00030350       _CG_SagaObjectiveCompleted 30031350 f   cg_saga.obj
 0001:00030940       _CG_GetTeamCount           30031940 f   cg_scoreboard.obj
 0001:00030990       _CG_DrawOldScoreboard      30031990 f   cg_scoreboard.obj
 0001:000313a0       _CG_ParseServerinfo        300323a0 f   cg_servercmds.obj
 0001:00031670       _CG_SetConfigValues        30032670 f   cg_servercmds.obj
 0001:000317a0       _CG_ShaderStateChanged     300327a0 f   cg_servercmds.obj
 0001:00031dc0       _CG_KillCEntityInstances   30032dc0 f   cg_servercmds.obj
 0001:00031f80       _CG_GetVoiceChat           30032f80 f   cg_servercmds.obj
 0001:00032020       _CG_PlayVoiceChat          30033020 f   cg_servercmds.obj
 0001:00032110       _CG_PlayBufferedVoiceChats 30033110 f   cg_servercmds.obj
 0001:00032180       _CG_AddBufferedVoiceChat   30033180 f   cg_servercmds.obj
 0001:000321f0       _CG_VoiceChatLocal         300331f0 f   cg_servercmds.obj
 0001:000322f0       _CG_VoiceChat              300332f0 f   cg_servercmds.obj
 0001:000323e0       _CG_CheckSVStripEdRef      300333e0 f   cg_servercmds.obj
 0001:00032a30       _CG_ExecuteNewServerCommands 30033a30 f   cg_servercmds.obj
 0001:00032af0       _CG_SetInitialSnapshot     30033af0 f   cg_snapshot.obj
 0001:00032fe0       _CG_ProcessSnapshots       30033fe0 f   cg_snapshot.obj
 0001:00033100       _dllEntry                  30034100 f   cg_syscalls.obj
 0001:00033110       _trap_Print                30034110 f   cg_syscalls.obj
 0001:00033130       _trap_Error                30034130 f   cg_syscalls.obj
 0001:00033150       _trap_Milliseconds         30034150 f   cg_syscalls.obj
 0001:00033160       _trap_Cvar_Register        30034160 f   cg_syscalls.obj
 0001:00033180       _trap_Cvar_Update          30034180 f   cg_syscalls.obj
 0001:000331a0       _trap_Cvar_Set             300341a0 f   cg_syscalls.obj
 0001:000331c0       _trap_Cvar_VariableStringBuffer 300341c0 f   cg_syscalls.obj
 0001:000331e0       _trap_Argc                 300341e0 f   cg_syscalls.obj
 0001:000331f0       _trap_Argv                 300341f0 f   cg_syscalls.obj
 0001:00033210       _trap_Args                 30034210 f   cg_syscalls.obj
 0001:00033230       _trap_FS_FOpenFile         30034230 f   cg_syscalls.obj
 0001:00033250       _trap_FS_Read              30034250 f   cg_syscalls.obj
 0001:00033270       _trap_FS_FCloseFile        30034270 f   cg_syscalls.obj
 0001:00033290       _trap_SendConsoleCommand   30034290 f   cg_syscalls.obj
 0001:000332b0       _trap_AddCommand           300342b0 f   cg_syscalls.obj
 0001:000332d0       _trap_SendClientCommand    300342d0 f   cg_syscalls.obj
 0001:000332f0       _trap_UpdateScreen         300342f0 f   cg_syscalls.obj
 0001:00033300       _trap_CM_LoadMap           30034300 f   cg_syscalls.obj
 0001:00033320       _trap_CM_NumInlineModels   30034320 f   cg_syscalls.obj
 0001:00033330       _trap_CM_InlineModel       30034330 f   cg_syscalls.obj
 0001:00033350       _trap_CM_TempBoxModel      30034350 f   cg_syscalls.obj
 0001:00033370       _trap_CM_PointContents     30034370 f   cg_syscalls.obj
 0001:00033390       _trap_CM_TransformedPointContents 30034390 f   cg_syscalls.obj
 0001:000333b0       _trap_CM_BoxTrace          300343b0 f   cg_syscalls.obj
 0001:000333e0       _trap_CM_TransformedBoxTrace 300343e0 f   cg_syscalls.obj
 0001:00033420       _trap_CM_MarkFragments     30034420 f   cg_syscalls.obj
 0001:00033450       _trap_S_MuteSound          30034450 f   cg_syscalls.obj
 0001:00033470       _trap_S_StartSound         30034470 f   cg_syscalls.obj
 0001:00033490       _trap_S_StartLocalSound    30034490 f   cg_syscalls.obj
 0001:000334b0       _trap_S_ClearLoopingSounds 300344b0 f   cg_syscalls.obj
 0001:000334d0       _trap_S_AddLoopingSound    300344d0 f   cg_syscalls.obj
 0001:000334f0       _trap_S_UpdateEntityPosition 300344f0 f   cg_syscalls.obj
 0001:00033510       _trap_S_AddRealLoopingSound 30034510 f   cg_syscalls.obj
 0001:00033530       _trap_S_StopLoopingSound   30034530 f   cg_syscalls.obj
 0001:00033550       _trap_S_Respatialize       30034550 f   cg_syscalls.obj
 0001:00033570       _trap_S_RegisterSound      30034570 f   cg_syscalls.obj
 0001:00033590       _trap_S_StartBackgroundTrack 30034590 f   cg_syscalls.obj
 0001:000335b0       _trap_R_LoadWorldMap       300345b0 f   cg_syscalls.obj
 0001:000335d0       _trap_R_RegisterModel      300345d0 f   cg_syscalls.obj
 0001:000335f0       _trap_R_RegisterSkin       300345f0 f   cg_syscalls.obj
 0001:00033610       _trap_R_RegisterShader     30034610 f   cg_syscalls.obj
 0001:00033630       _trap_R_RegisterShaderNoMip 30034630 f   cg_syscalls.obj
 0001:00033650       _trap_R_RegisterFont       30034650 f   cg_syscalls.obj
 0001:00033670       _trap_R_Font_StrLenPixels  30034670 f   cg_syscalls.obj
 0001:000336a0       _trap_R_Font_StrLenChars   300346a0 f   cg_syscalls.obj
 0001:000336c0       _trap_R_Font_HeightPixels  300346c0 f   cg_syscalls.obj
 0001:000336e0       _trap_R_Font_DrawString    300346e0 f   cg_syscalls.obj
 0001:00033720       _trap_Language_IsAsian     30034720 f   cg_syscalls.obj
 0001:00033730       _trap_Language_UsesSpaces  30034730 f   cg_syscalls.obj
 0001:00033740       _trap_AnyLanguage_ReadCharFromString 30034740 f   cg_syscalls.obj
 0001:00033760       _trap_R_ClearScene         30034760 f   cg_syscalls.obj
 0001:00033770       _trap_R_AddRefEntityToScene 30034770 f   cg_syscalls.obj
 0001:00033790       _trap_R_AddPolyToScene     30034790 f   cg_syscalls.obj
 0001:000337b0       _trap_R_AddLightToScene    300347b0 f   cg_syscalls.obj
 0001:00033800       _trap_R_RenderScene        30034800 f   cg_syscalls.obj
 0001:00033820       _trap_R_SetColor           30034820 f   cg_syscalls.obj
 0001:00033840       _trap_R_DrawStretchPic     30034840 f   cg_syscalls.obj
 0001:000338c0       _trap_R_ModelBounds        300348c0 f   cg_syscalls.obj
 0001:000338e0       _trap_R_LerpTag            300348e0 f   cg_syscalls.obj
 0001:00033920       _trap_R_DrawRotatePic      30034920 f   cg_syscalls.obj
 0001:000339b0       _trap_R_DrawRotatePic2     300349b0 f   cg_syscalls.obj
 0001:00033a40       _trap_R_RemapShader        30034a40 f   cg_syscalls.obj
 0001:00033a60       _trap_R_SetLightStyle      30034a60 f   cg_syscalls.obj
 0001:00033a80       _trap_R_GetBModelVerts     30034a80 f   cg_syscalls.obj
 0001:00033aa0       _trap_FX_AddLine           30034aa0 f   cg_syscalls.obj
 0001:00033b30       _trap_GetGlconfig          30034b30 f   cg_syscalls.obj
 0001:00033b50       _trap_GetGameState         30034b50 f   cg_syscalls.obj
 0001:00033b70       _trap_GetCurrentSnapshotNumber 30034b70 f   cg_syscalls.obj
 0001:00033b90       _trap_GetSnapshot          30034b90 f   cg_syscalls.obj
 0001:00033bb0       _trap_GetServerCommand     30034bb0 f   cg_syscalls.obj
 0001:00033bd0       _trap_GetCurrentCmdNumber  30034bd0 f   cg_syscalls.obj
 0001:00033be0       _trap_GetUserCmd           30034be0 f   cg_syscalls.obj
 0001:00033c00       _trap_SetUserCmdValue      30034c00 f   cg_syscalls.obj
 0001:00033c30       _trap_SetClientForceAngle  30034c30 f   cg_syscalls.obj
 0001:00033c50       _trap_SetClientTurnExtent  30034c50 f   cg_syscalls.obj
 0001:00033c80       _trap_OpenUIMenu           30034c80 f   cg_syscalls.obj
 0001:00033ca0       _trap_MemoryRemaining      30034ca0 f   cg_syscalls.obj
 0001:00033cb0       _trap_Key_GetCatcher       30034cb0 f   cg_syscalls.obj
 0001:00033cc0       _trap_Key_SetCatcher       30034cc0 f   cg_syscalls.obj
 0001:00033ce0       _trap_PC_ReadToken         30034ce0 f   cg_syscalls.obj
 0001:00033d00       _trap_PC_SourceFileAndLine 30034d00 f   cg_syscalls.obj
 0001:00033d20       _trap_S_StopBackgroundTrack 30034d20 f   cg_syscalls.obj
 0001:00033d30       _trap_SnapVector           30034d30 f   cg_syscalls.obj
 0001:00033d50       _trap_CIN_PlayCinematic    30034d50 f   cg_syscalls.obj
 0001:00033d80       _trap_CIN_StopCinematic    30034d80 f   cg_syscalls.obj
 0001:00033da0       _trap_CIN_RunCinematic     30034da0 f   cg_syscalls.obj
 0001:00033dc0       _trap_CIN_DrawCinematic    30034dc0 f   cg_syscalls.obj
 0001:00033de0       _trap_CIN_SetExtents       30034de0 f   cg_syscalls.obj
 0001:00033e10       _trap_FX_RegisterEffect    30034e10 f   cg_syscalls.obj
 0001:00033e30       _trap_FX_PlayEffect        30034e30 f   cg_syscalls.obj
 0001:00033e50       _trap_FX_PlayEffectID      30034e50 f   cg_syscalls.obj
 0001:00033e70       _trap_FX_PlayEntityEffectID 30034e70 f   cg_syscalls.obj
 0001:00033ea0       _trap_FX_AddScheduledEffects 30034ea0 f   cg_syscalls.obj
 0001:00033eb0       _trap_FX_InitSystem        30034eb0 f   cg_syscalls.obj
 0001:00033ec0       _trap_FX_FreeSystem        30034ec0 f   cg_syscalls.obj
 0001:00033ed0       _trap_FX_AdjustTime        30034ed0 f   cg_syscalls.obj
 0001:00033ef0       _trap_FX_AddPoly           30034ef0 f   cg_syscalls.obj
 0001:00033f10       _trap_FX_AddBezier         30034f10 f   cg_syscalls.obj
 0001:00033f30       _trap_FX_AddPrimitive      30034f30 f   cg_syscalls.obj
 0001:00033f50       _trap_FX_AddSprite         30034f50 f   cg_syscalls.obj
 0001:00033f70       _trap_SP_Print             30034f70 f   cg_syscalls.obj
 0001:00033f90       _trap_SP_GetStringTextString 30034f90 f   cg_syscalls.obj
 0001:00033fb0       _trap_ROFF_Clean           30034fb0 f   cg_syscalls.obj
 0001:00033fc0       _trap_ROFF_UpdateEntities  30034fc0 f   cg_syscalls.obj
 0001:00033fd0       _trap_ROFF_Play            30034fd0 f   cg_syscalls.obj
 0001:00033ff0       _trap_G2_SetGhoul2ModelIndexes 30034ff0 f   cg_syscalls.obj
 0001:00034010       _trap_G2_HaveWeGhoul2Models 30035010 f   cg_syscalls.obj
 0001:00034030       _trap_G2API_GiveMeVectorFromMatrix 30035030 f   cg_syscalls.obj
 0001:00034050       _trap_G2API_GetBoltMatrix  30035050 f   cg_syscalls.obj
 0001:00034090       _trap_G2API_GetBoltMatrix_NoReconstruct 30035090 f   cg_syscalls.obj
 0001:000340d0       _trap_G2API_GetBoltMatrix_NoRecNoRot 300350d0 f   cg_syscalls.obj
 0001:00034110       _trap_G2API_InitGhoul2Model 30035110 f   cg_syscalls.obj
 0001:00034150       _trap_G2API_CollisionDetect 30035150 f   cg_syscalls.obj
 0001:000341b0       _trap_G2API_CleanGhoul2Models 300351b0 f   cg_syscalls.obj
 0001:000341d0       _trap_G2API_SetBoneAngles  300351d0 f   cg_syscalls.obj
 0001:00034220       _trap_G2API_SetBoneAnim    30035220 f   cg_syscalls.obj
 0001:00034270       _trap_G2API_GetGLAName     30035270 f   cg_syscalls.obj
 0001:00034290       _trap_G2API_CopySpecificGhoul2Model 30035290 f   cg_syscalls.obj
 0001:000342c0       _trap_G2API_DuplicateGhoul2Instance 300352c0 f   cg_syscalls.obj
 0001:000342e0       _trap_G2API_HasGhoul2ModelOnIndex 300352e0 f   cg_syscalls.obj
 0001:00034300       _trap_G2API_RemoveGhoul2Model 30035300 f   cg_syscalls.obj
 0001:00034320       _trap_G2API_AddBolt        30035320 f   cg_syscalls.obj
 0001:00034340       _trap_G2API_SetBoltInfo    30035340 f   cg_syscalls.obj
 0001:00034360       _trap_G2API_SetRootSurface 30035360 f   cg_syscalls.obj
 0001:00034380       _trap_G2API_SetSurfaceOnOff 30035380 f   cg_syscalls.obj
 0001:000343a0       _trap_G2API_SetNewOrigin   300353a0 f   cg_syscalls.obj
 0001:000343c0       _trap_CG_RegisterSharedMemory 300353c0 f   cg_syscalls.obj
 0001:000343e0       _CreepToPosition           300353e0 f   cg_turret.obj
 0001:000345a0       _TurretClientRun           300355a0 f   cg_turret.obj
 0001:000349a0       _CG_TestModel_f            300359a0 f   cg_view.obj
 0001:00034ac0       _CG_TestGun_f              30035ac0 f   cg_view.obj
 0001:00034ae0       _CG_TestModelNextFrame_f   30035ae0 f   cg_view.obj
 0001:00034b00       _CG_TestModelPrevFrame_f   30035b00 f   cg_view.obj
 0001:00034b30       _CG_TestModelNextSkin_f    30035b30 f   cg_view.obj
 0001:00034b50       _CG_TestModelPrevSkin_f    30035b50 f   cg_view.obj
 0001:000360a0       _CG_AddBufferedSound       300370a0 f   cg_view.obj
 0001:00036150       _CG_UpdateSoundTrackers    30037150 f   cg_view.obj
 0001:000361e0       _CG_SE_UpdateShake         300371e0 f   cg_view.obj
 0001:00036310       _CG_SE_UpdateMusic         30037310 f   cg_view.obj
 0001:00036450       _CGCam_Shake               30037450 f   cg_view.obj
 0001:00036490       _CGCam_SetMusicMult        30037490 f   cg_view.obj
 0001:000364f0       _CG_DrawActiveFrame        300374f0 f   cg_view.obj
 0001:000368f0       _CG_RegisterWeapon         300378f0 f   cg_weaponinit.obj
 0001:00037740       _CG_RegisterItemVisuals    30038740 f   cg_weapons.obj
 0001:00037b10       _CG_AddPlayerWeapon        30038b10 f   cg_weapons.obj
 0001:00038450       _CG_AddViewWeapon          30039450 f   cg_weapons.obj
 0001:000386f0       _CG_DrawIconBackground     300396f0 f   cg_weapons.obj
 0001:00038ae0       _CG_DrawWeaponSelect       30039ae0 f   cg_weapons.obj
 0001:00038f20       _CG_NextWeapon_f           30039f20 f   cg_weapons.obj
 0001:00038fa0       _CG_PrevWeapon_f           30039fa0 f   cg_weapons.obj
 0001:00039020       _CG_Weapon_f               3003a020 f   cg_weapons.obj
 0001:00039160       _CG_OutOfAmmoChange        3003a160 f   cg_weapons.obj
 0001:00039220       _CG_GetClientWeaponMuzzleBoltPoint 3003a220 f   cg_weapons.obj
 0001:000392c0       _CG_FireWeapon             3003a2c0 f   cg_weapons.obj
 0001:000394e0       _CG_MissileHitWall         3003a4e0 f   cg_weapons.obj
 0001:000396d0       _CG_MissileHitPlayer       3003a6d0 f   cg_weapons.obj
 0001:000398c0       _CG_CalcMuzzlePoint        3003a8c0 f   cg_weapons.obj
 0001:00039bd0       _CG_InitG2Weapons          3003abd0 f   cg_weapons.obj
 0001:00039c60       _CG_ShutDownG2Weapons      3003ac60 f   cg_weapons.obj
 0001:00039c80       _CG_CopyG2WeaponInstance   3003ac80 f   cg_weapons.obj
 0001:00039cd0       _CG_CheckPlayerG2Weapons   3003acd0 f   cg_weapons.obj
 0001:00039e10       _FX_BlasterProjectileThink 3003ae10 f   fx_blaster.obj
 0001:00039e60       _FX_BlasterWeaponHitWall   3003ae60 f   fx_blaster.obj
 0001:00039e80       _FX_BlasterWeaponHitPlayer 3003ae80 f   fx_blaster.obj
 0001:00039eb0       _FX_BowcasterAltProjectileThink 3003aeb0 f   fx_bowcaster.obj
 0001:00039eb0       _FX_BowcasterProjectileThink 3003aeb0 f   fx_bowcaster.obj
 0001:00039f00       _FX_BowcasterHitWall       3003af00 f   fx_bowcaster.obj
 0001:00039f20       _FX_BowcasterHitPlayer     3003af20 f   fx_bowcaster.obj
 0001:00039f40       _FX_BryarProjectileThink   3003af40 f   fx_bryarpistol.obj
 0001:00039f90       _FX_TurretHitPlayer        3003af90 f   fx_bryarpistol.obj
 0001:00039f90       _FX_BryarAltHitPlayer      3003af90 f   fx_bryarpistol.obj
 0001:00039f90       _FX_BryarHitPlayer         3003af90 f   fx_bryarpistol.obj
 0001:00039fc0       _FX_BryarAltProjectileThink 3003afc0 f   fx_bryarpistol.obj
 0001:0003a060       _FX_BryarAltHitWall        3003b060 f   fx_bryarpistol.obj
 0001:0003a0e0       _FX_TurretProjectileThink  3003b0e0 f   fx_bryarpistol.obj
 0001:0003a130       _FX_TurretHitWall          3003b130 f   fx_bryarpistol.obj
 0001:0003a130       _FX_BryarHitWall           3003b130 f   fx_bryarpistol.obj
 0001:0003a150       _FX_DEMP2_ProjectileThink  3003b150 f   fx_demp2.obj
 0001:0003a1a0       _FX_DEMP2_HitWall          3003b1a0 f   fx_demp2.obj
 0001:0003a1c0       _FX_DEMP2_HitPlayer        3003b1c0 f   fx_demp2.obj
 0001:0003a1e0       _FX_DEMP2_AltDetonate      3003b1e0 f   fx_demp2.obj
 0001:0003a270       _FX_DisruptorMainShot      3003b270 f   fx_disruptor.obj
 0001:0003a2c0       _FX_DisruptorAltShot       3003b2c0 f   fx_disruptor.obj
 0001:0003a380       _FX_DisruptorAltMiss       3003b380 f   fx_disruptor.obj
 0001:0003a530       _FX_DisruptorAltHit        3003b530 f   fx_disruptor.obj
 0001:0003a550       _FX_DisruptorHitWall       3003b550 f   fx_disruptor.obj
 0001:0003a570       _FX_DisruptorHitPlayer     3003b570 f   fx_disruptor.obj
 0001:0003a590       _FX_FlechetteProjectileThink 3003b590 f   fx_flechette.obj
 0001:0003a5e0       _FX_FlechetteWeaponHitWall 3003b5e0 f   fx_flechette.obj
 0001:0003a600       _FX_FlechetteWeaponHitPlayer 3003b600 f   fx_flechette.obj
 0001:0003a620       _FX_FlechetteAltProjectileThink 3003b620 f   fx_flechette.obj
 0001:0003a670       _FX_RepeaterProjectileThink 3003b670 f   fx_heavyrepeater.obj
 0001:0003a6c0       _FX_RepeaterHitWall        3003b6c0 f   fx_heavyrepeater.obj
 0001:0003a6e0       _FX_RepeaterHitPlayer      3003b6e0 f   fx_heavyrepeater.obj
 0001:0003a700       _FX_RepeaterAltProjectileThink 3003b700 f   fx_heavyrepeater.obj
 0001:0003a750       _FX_RepeaterAltHitWall     3003b750 f   fx_heavyrepeater.obj
 0001:0003a770       _FX_RepeaterAltHitPlayer   3003b770 f   fx_heavyrepeater.obj
 0001:0003a790       _FX_RocketProjectileThink  3003b790 f   fx_rocketlauncher.obj
 0001:0003a790       _FX_RocketAltProjectileThink 3003b790 f   fx_rocketlauncher.obj
 0001:0003a7e0       _FX_RocketHitWall          3003b7e0 f   fx_rocketlauncher.obj
 0001:0003a800       _FX_RocketHitPlayer        3003b800 f   fx_rocketlauncher.obj
 0001:0003a820       _Q_random                  3003b820 f   q_math.obj
 0001:0003a850       _ByteToDir                 3003b850 f   q_math.obj
 0001:0003a8b0       _vectoangles               3003b8b0 f   q_math.obj
 0001:0003a9c0       _AxisClear                 3003b9c0 f   q_math.obj
 0001:0003a9f0       _AxisCopy                  3003b9f0 f   q_math.obj
 0001:0003aa30       _ProjectPointOnPlane       3003ba30 f   q_math.obj
 0001:0003aab0       _Q_fabs                    3003bab0 f   q_math.obj
 0001:0003aad0       _LerpAngle                 3003bad0 f   q_math.obj
 0001:0003ab20       _AngleSubtract             3003bb20 f   q_math.obj
 0001:0003ab80       _AnglesSubtract            3003bb80 f   q_math.obj
 0001:0003abc0       _AngleMod                  3003bbc0 f   q_math.obj
 0001:0003abf0       _AngleNormalize180         3003bbf0 f   q_math.obj
 0001:0003ac30       _AngleDelta                3003bc30 f   q_math.obj
 0001:0003ac70       _VectorNormalize           3003bc70 f   q_math.obj
 0001:0003acd0       _VectorNormalize2          3003bcd0 f   q_math.obj
 0001:0003ad40       _MatrixMultiply            3003bd40 f   q_math.obj
 0001:0003ae30       _AngleVectors              3003be30 f   q_math.obj
 0001:0003af70       _PerpendicularVector       3003bf70 f   q_math.obj
 0001:0003b060       _powf                      3003c060 f   q_math.obj
 0001:0003b0b0       _RotatePointAroundVector   3003c0b0 f   q_math.obj
 0001:0003b2b0       _RotateAroundDirection     3003c2b0 f   q_math.obj
 0001:0003b340       _AnglesToAxis              3003c340 f   q_math.obj
 0001:0003b390       _GetStringForID            3003c390 f   q_shared.obj
 0001:0003b3d0       _COM_StripExtension        3003c3d0 f   q_shared.obj
 0001:0003b400       _COM_ParseExt              3003c400 f   q_shared.obj
 0001:0003b570       _COM_ParseString           3003c570 f   q_shared.obj
 0001:0003b5a0       _Q_strrchr                 3003c5a0 f   q_shared.obj
 0001:0003b5d0       _Q_strncpyz                3003c5d0 f   q_shared.obj
 0001:0003b630       _Q_stricmpn                3003c630 f   q_shared.obj
 0001:0003b6b0       _Q_stricmp                 3003c6b0 f   q_shared.obj
 0001:0003b6e0       _Q_strcat                  3003c6e0 f   q_shared.obj
 0001:0003b730       _Q_CleanStr                3003c730 f   q_shared.obj
 0001:0003b780       _Com_sprintf               3003c780 f   q_shared.obj
 0001:0003b800       _va                        3003c800 f   q_shared.obj
 0001:0003b840       _Info_ValueForKey          3003c840 f   q_shared.obj
 0001:0003b940       _Q_irand                   3003c940 f   q_shared.obj
 0001:0003b960       _GetIDForString            3003c960 f   q_shared.obj
 0001:0003b9b0       _COM_Parse                 3003c9b0 f   q_shared.obj
 0001:0003b9c0       _UI_Alloc                  3003c9c0 f   ui_shared.obj
 0001:0003ba50       _String_Alloc              3003ca50 f   ui_shared.obj
 0001:0003bb60       _PC_SourceError            3003cb60 f   ui_shared.obj
 0001:0003bbd0       _Float_Parse               3003cbd0 f   ui_shared.obj
 0001:0003bc00       _PC_Float_Parse            3003cc00 f   ui_shared.obj
 0001:0003bca0       _Color_Parse               3003cca0 f   ui_shared.obj
 0001:0003bcf0       _PC_Color_Parse            3003ccf0 f   ui_shared.obj
 0001:0003bd40       _Int_Parse                 3003cd40 f   ui_shared.obj
 0001:0003bd70       _PC_Int_Parse              3003cd70 f   ui_shared.obj
 0001:0003be00       _Rect_Parse                3003ce00 f   ui_shared.obj
 0001:0003be80       _PC_Rect_Parse             3003ce80 f   ui_shared.obj
 0001:0003bee0       _PC_String_Parse           3003cee0 f   ui_shared.obj
 0001:0003bfd0       _PC_Script_Parse           3003cfd0 f   ui_shared.obj
 0001:0003c0f0       _Init_Display              3003d0f0 f   ui_shared.obj
 0001:0003c100       _Rect_ContainsPoint        3003d100 f   ui_shared.obj
 0001:0003c150       _Menu_ItemsMatchingGroup   3003d150 f   ui_shared.obj
 0001:0003c1c0       _Menu_GetMatchingItemByNumber 3003d1c0 f   ui_shared.obj
 0001:0003c240       _Script_SetColor           3003d240 f   ui_shared.obj
 0001:0003c310       _Script_SetAsset           3003d310 f   ui_shared.obj
 0001:0003c340       _Script_SetBackground      3003d340 f   ui_shared.obj
 0001:0003c380       _Menu_FindItemByName       3003d380 f   ui_shared.obj
 0001:0003c3e0       _Script_SetTeamColor       3003d3e0 f   ui_shared.obj
 0001:0003c430       _Script_SetItemColor       3003d430 f   ui_shared.obj
 0001:0003c570       _Script_SetItemRect        3003d570 f   ui_shared.obj
 0001:0003c610       _Menu_ShowItemByName       3003d610 f   ui_shared.obj
 0001:0003c690       _Menu_FadeItemByName       3003d690 f   ui_shared.obj
 0001:0003c6f0       _Menus_FindByName          3003d6f0 f   ui_shared.obj
 0001:0003c740       _Script_Show               3003d740 f   ui_shared.obj
 0001:0003c780       _Script_Hide               3003d780 f   ui_shared.obj
 0001:0003c7c0       _Script_FadeIn             3003d7c0 f   ui_shared.obj
 0001:0003c800       _Script_FadeOut            3003d800 f   ui_shared.obj
 0001:0003c840       _Script_Defer              3003d840 f   ui_shared.obj
 0001:0003c880       _Script_SetPlayerModel     3003d880 f   ui_shared.obj
 0001:0003c8c0       _Script_SetPlayerHead      3003d8c0 f   ui_shared.obj
 0001:0003c900       _Script_SetCvar            3003d900 f   ui_shared.obj
 0001:0003c960       _Script_SetCvarToCvar      3003d960 f   ui_shared.obj
 0001:0003c9e0       _Script_Exec               3003d9e0 f   ui_shared.obj
 0001:0003ca30       _Script_Play               3003da30 f   ui_shared.obj
 0001:0003ca80       _Script_playLooped         3003da80 f   ui_shared.obj
 0001:0003cad0       _Item_RunScript            3003dad0 f   ui_shared.obj
 0001:0003cbc0       _Item_EnableShowViaCvar    3003dbc0 f   ui_shared.obj
 0001:0003ccf0       _Item_TextScroll_ThumbPosition 3003dcf0 f   ui_shared.obj
 0001:0003cd70       _Item_TextScroll_OverLB    3003dd70 f   ui_shared.obj
 0001:0003ced0       _Item_TextScroll_MouseEnter 3003ded0 f   ui_shared.obj
 0001:0003cf00       _Item_TextScroll_HandleKey 3003df00 f   ui_shared.obj
 0001:0003d060       _Item_ListBox_MaxScroll    3003e060 f   ui_shared.obj
 0001:0003d0c0       _Item_ListBox_ThumbPosition 3003e0c0 f   ui_shared.obj
 0001:0003d170       _Item_Slider_ThumbPosition 3003e170 f   ui_shared.obj
 0001:0003d210       _Item_Slider_OverSlider    3003e210 f   ui_shared.obj
 0001:0003d290       _Item_ListBox_OverLB       3003e290 f   ui_shared.obj
 0001:0003d4c0       _Item_ListBox_MouseEnter   3003e4c0 f   ui_shared.obj
 0001:0003d5f0       _Item_MouseEnter           3003e5f0 f   ui_shared.obj
 0001:0003d750       _Item_MouseLeave           3003e750 f   ui_shared.obj
 0001:0003d7a0       _Item_OwnerDraw_HandleKey  3003e7a0 f   ui_shared.obj
 0001:0003d7e0       _Item_ListBox_HandleKey    3003e7e0 f   ui_shared.obj
 0001:0003dc00       _Item_YesNo_HandleKey      3003ec00 f   ui_shared.obj
 0001:0003dd00       _Item_Multi_FindCvarByValue 3003ed00 f   ui_shared.obj
 0001:0003dde0       _Item_Multi_HandleKey      3003ede0 f   ui_shared.obj
 0001:0003e380       _Item_StartCapture         3003f380 f   ui_shared.obj
 0001:0003e600       _Item_Slider_HandleKey     3003f600 f   ui_shared.obj
 0001:0003e760       _Item_Action               3003f760 f   ui_shared.obj
 0001:0003e820       _Menus_Activate            3003f820 f   ui_shared.obj
 0001:0003e9c0       _Controls_GetConfig        3003f9c0 f   ui_shared.obj
 0001:0003ea00       _Controls_SetConfig        3003fa00 f   ui_shared.obj
 0001:0003ea50       _BindingIDFromName         3003fa50 f   ui_shared.obj
 0001:0003ea90       _Item_Bind_HandleKey       3003fa90 f   ui_shared.obj
 0001:0003ed00       _Menu_GetFocused           3003fd00 f   ui_shared.obj
 0001:0003ed40       _Menu_ScrollFeeder         3003fd40 f   ui_shared.obj
 0001:0003edb0       _Menu_SetFeederSelection   3003fdb0 f   ui_shared.obj
 0001:0003ee70       _Item_ValidateTypeData     3003fe70 f   ui_shared.obj
 0001:0003ef60       _KeywordHash_Key           3003ff60 f   ui_shared.obj
 0001:0003efb0       _ItemParse_name            3003ffb0 f   ui_shared.obj
 0001:0003efd0       _ItemParse_focusSound      3003ffd0 f   ui_shared.obj
 0001:0003f010       _ItemParse_descText        30040010 f   ui_shared.obj
 0001:0003f030       _ItemParse_text2           30040030 f   ui_shared.obj
 0001:0003f050       _ItemParse_text2alignx     30040050 f   ui_shared.obj
 0001:0003f070       _ItemParse_text2aligny     30040070 f   ui_shared.obj
 0001:0003f090       _ItemParse_group           30040090 f   ui_shared.obj
 0001:0003f0b0       _ItemParse_asset_model     300400b0 f   ui_shared.obj
 0001:0003f110       _ItemParse_asset_shader    30040110 f   ui_shared.obj
 0001:0003f150       _ItemParse_model_origin    30040150 f   ui_shared.obj
 0001:0003f1b0       _ItemParse_elementwidth    300401b0 f   ui_shared.obj
 0001:0003f1b0       _ItemParse_model_fovx      300401b0 f   ui_shared.obj
 0001:0003f1e0       _ItemParse_model_rotation  300401e0 f   ui_shared.obj
 0001:0003f210       _ItemParse_model_angle     30040210 f   ui_shared.obj
 0001:0003f240       _ItemParse_rect            30040240 f   ui_shared.obj
 0001:0003f260       _ItemParse_flag            30040260 f   ui_shared.obj
 0001:0003f2f0       _ItemParse_style           300402f0 f   ui_shared.obj
 0001:0003f320       _ItemParse_decoration      30040320 f   ui_shared.obj
 0001:0003f330       _ItemParse_notselectable   30040330 f   ui_shared.obj
 0001:0003f370       _ItemParse_wrapped         30040370 f   ui_shared.obj
 0001:0003f390       _ItemParse_autowrapped     30040390 f   ui_shared.obj
 0001:0003f3b0       _ItemParse_horizontalscroll 300403b0 f   ui_shared.obj
 0001:0003f3d0       _ItemParse_type            300403d0 f   ui_shared.obj
 0001:0003f400       _ItemParse_model_fovy      30040400 f   ui_shared.obj
 0001:0003f400       _ItemParse_elementheight   30040400 f   ui_shared.obj
 0001:0003f430       _ItemParse_elementtype     30040430 f   ui_shared.obj
 0001:0003f470       _ItemParse_columns         30040470 f   ui_shared.obj
 0001:0003f550       _ItemParse_border          30040550 f   ui_shared.obj
 0001:0003f550       _MenuParse_border          30040550 f   ui_shared.obj
 0001:0003f570       _MenuParse_borderSize      30040570 f   ui_shared.obj
 0001:0003f570       _ItemParse_bordersize      30040570 f   ui_shared.obj
 0001:0003f590       _ItemParse_ownerdraw       30040590 f   ui_shared.obj
 0001:0003f5c0       _ItemParse_textalign       300405c0 f   ui_shared.obj
 0001:0003f600       _MenuParse_fadeAmount      30040600 f   ui_shared.obj
 0001:0003f600       _ItemParse_textalignx      30040600 f   ui_shared.obj
 0001:0003f620       _ItemParse_textaligny      30040620 f   ui_shared.obj
 0001:0003f640       _ItemParse_textscale       30040640 f   ui_shared.obj
 0001:0003f660       _ItemParse_textstyle       30040660 f   ui_shared.obj
 0001:0003f680       _ItemParse_backcolor       30040680 f   ui_shared.obj
 0001:0003f6d0       _ItemParse_forecolor       300406d0 f   ui_shared.obj
 0001:0003f730       _ItemParse_bordercolor     30040730 f   ui_shared.obj
 0001:0003f780       _ItemParse_cinematic       30040780 f   ui_shared.obj
 0001:0003f780       _MenuParse_cinematic       30040780 f   ui_shared.obj
 0001:0003f7a0       _ItemParse_doubleClick     300407a0 f   ui_shared.obj
 0001:0003f7e0       _ItemParse_onFocus         300407e0 f   ui_shared.obj
 0001:0003f800       _ItemParse_leaveFocus      30040800 f   ui_shared.obj
 0001:0003f820       _ItemParse_mouseEnter      30040820 f   ui_shared.obj
 0001:0003f840       _ItemParse_mouseExit       30040840 f   ui_shared.obj
 0001:0003f860       _ItemParse_mouseEnterText  30040860 f   ui_shared.obj
 0001:0003f880       _ItemParse_mouseExitText   30040880 f   ui_shared.obj
 0001:0003f8a0       _ItemParse_action          300408a0 f   ui_shared.obj
 0001:0003f8c0       _ItemParse_special         300408c0 f   ui_shared.obj
 0001:0003f8c0       _ItemParse_feeder          300408c0 f   ui_shared.obj
 0001:0003f8e0       _ItemParse_cvarTest        300408e0 f   ui_shared.obj
 0001:0003f900       _ItemParse_cvar            30040900 f   ui_shared.obj
 0001:0003f980       _ItemParse_font            30040980 f   ui_shared.obj
 0001:0003f9b0       _ItemParse_maxChars        300409b0 f   ui_shared.obj
 0001:0003fa00       _ItemParse_maxPaintChars   30040a00 f   ui_shared.obj
 0001:0003fa50       _ItemParse_maxLineChars    30040a50 f   ui_shared.obj
 0001:0003faa0       _ItemParse_lineHeight      30040aa0 f   ui_shared.obj
 0001:0003faf0       _ItemParse_cvarFloat       30040af0 f   ui_shared.obj
 0001:0003fb60       _ItemParse_cvarStrList     30040b60 f   ui_shared.obj
 0001:0003fc70       _ItemParse_cvarFloatList   30040c70 f   ui_shared.obj
 0001:0003fd80       _ItemParse_addColorRange   30040d80 f   ui_shared.obj
 0001:0003fe20       _MenuParse_ownerdrawFlag   30040e20 f   ui_shared.obj
 0001:0003fe20       _ItemParse_ownerdrawFlag   30040e20 f   ui_shared.obj
 0001:0003fe50       _ItemParse_enableCvar      30040e50 f   ui_shared.obj
 0001:0003fe80       _ItemParse_disableCvar     30040e80 f   ui_shared.obj
 0001:0003fec0       _ItemParse_showCvar        30040ec0 f   ui_shared.obj
 0001:0003ff00       _ItemParse_hideCvar        30040f00 f   ui_shared.obj
 0001:0003ff40       _ItemParse_Appearance_slot 30040f40 f   ui_shared.obj
 0001:0003ff60       _Item_SetupKeywordHash     30040f60 f   ui_shared.obj
 0001:0003ffb0       _Item_Parse                30040fb0 f   ui_shared.obj
 0001:00040300       _MenuParse_font            30041300 f   ui_shared.obj
 0001:00040360       _MenuParse_name            30041360 f   ui_shared.obj
 0001:000403a0       _MenuParse_fullscreen      300413a0 f   ui_shared.obj
 0001:000403c0       _MenuParse_rect            300413c0 f   ui_shared.obj
 0001:000403e0       _MenuParse_style           300413e0 f   ui_shared.obj
 0001:00040410       _ItemParse_visible         30041410 f   ui_shared.obj
 0001:00040410       _MenuParse_visible         30041410 f   ui_shared.obj
 0001:00040440       _MenuParse_onOpen          30041440 f   ui_shared.obj
 0001:00040460       _MenuParse_onClose         30041460 f   ui_shared.obj
 0001:00040480       _MenuParse_onESC           30041480 f   ui_shared.obj
 0001:000404a0       _MenuParse_backcolor       300414a0 f   ui_shared.obj
 0001:000404f0       _MenuParse_descAlignment   300414f0 f   ui_shared.obj
 0001:00040530       _MenuParse_descX           30041530 f   ui_shared.obj
 0001:00040550       _MenuParse_descY           30041550 f   ui_shared.obj
 0001:00040570       _MenuParse_descScale       30041570 f   ui_shared.obj
 0001:00040590       _MenuParse_descColor       30041590 f   ui_shared.obj
 0001:000405e0       _MenuParse_forecolor       300415e0 f   ui_shared.obj
 0001:00040630       _MenuParse_bordercolor     30041630 f   ui_shared.obj
 0001:00040680       _MenuParse_focuscolor      30041680 f   ui_shared.obj
 0001:000406d0       _MenuParse_disablecolor    300416d0 f   ui_shared.obj
 0001:00040720       _ItemParse_outlinecolor    30041720 f   ui_shared.obj
 0001:00040720       _MenuParse_outlinecolor    30041720 f   ui_shared.obj
 0001:00040740       _MenuParse_background      30041740 f   ui_shared.obj
 0001:00040740       _ItemParse_background      30041740 f   ui_shared.obj
 0001:00040780       _MenuParse_ownerdraw       30041780 f   ui_shared.obj
 0001:000407a0       _MenuParse_popup           300417a0 f   ui_shared.obj
 0001:000407c0       _MenuParse_outOfBounds     300417c0 f   ui_shared.obj
 0001:000407e0       _ItemParse_text            300417e0 f   ui_shared.obj
 0001:000407e0       _MenuParse_soundLoop       300417e0 f   ui_shared.obj
 0001:00040800       _MenuParse_fadeClamp       30041800 f   ui_shared.obj
 0001:00040820       _ItemParse_align           30041820 f   ui_shared.obj
 0001:00040820       _MenuParse_fadeCycle       30041820 f   ui_shared.obj
 0001:00040840       _MenuParse_itemDef         30041840 f   ui_shared.obj
 0001:00040930       _MenuParse_appearanceIncrement 30041930 f   ui_shared.obj
 0001:00040950       _Menu_SetupKeywordHash     30041950 f   ui_shared.obj
 0001:000409a0       _Menu_Reset                300419a0 f   ui_shared.obj
 0001:000409b0       _Display_CaptureItem       300419b0 f   ui_shared.obj
 0001:00040a40       _Display_CursorType        30041a40 f   ui_shared.obj
 0001:00040ba0       _String_Init               30041ba0 f   ui_shared.obj
 0001:00040c00       _Item_SetScreenCoords      30041c00 f   ui_shared.obj
 0001:00040c70       _Menu_UpdatePosition       30041c70 f   ui_shared.obj
 0001:00040cf0       _Menu_ClearFocus           30041cf0 f   ui_shared.obj
 0001:00040da0       _Menus_CloseByName         30041da0 f   ui_shared.obj
 0001:00040e30       _Menus_CloseAll            30041e30 f   ui_shared.obj
 0001:00040ec0       _Script_Close              30041ec0 f   ui_shared.obj
 0001:00040f10       _Menu_TransitionItemByName 30041f10 f   ui_shared.obj
 0001:000410a0       _Script_RunDeferred        300420a0 f   ui_shared.obj
 0001:000410d0       _Script_Transition         300420d0 f   ui_shared.obj
 0001:000411c0       _Menu_OrbitItemByName      300421c0 f   ui_shared.obj
 0001:00041290       _Script_Orbit              30042290 f   ui_shared.obj
 0001:00041370       _Script_SetFocus           30042370 f   ui_shared.obj
 0001:00041410       _Item_SetFocus             30042410 f   ui_shared.obj
 0001:000415a0       _Item_HandleKey            300425a0 f   ui_shared.obj
 0001:000416f0       _Menu_HandleMouseMove      300426f0 f   ui_shared.obj
 0001:00041880       _Display_MouseMove         30042880 f   ui_shared.obj
 0001:00041940       _Menu_SetPrevCursorItem    30042940 f   ui_shared.obj
 0001:00041a20       _Menu_SetNextCursorItem    30042a20 f   ui_shared.obj
 0001:00041b10       _Menus_HandleOOBClick      30042b10 f   ui_shared.obj
 0001:00041c90       _Menus_ActivateByName      30042c90 f   ui_shared.obj
 0001:00041d50       _Menus_OpenByName          30042d50 f   ui_shared.obj
 0001:00041d60       _Script_Open               30042d60 f   ui_shared.obj
 0001:00041d90       _Item_TextField_HandleKey  30042d90 f   ui_shared.obj
 0001:000421c0       _Menu_HandleKey            300431c0 f   ui_shared.obj
 0001:00042680       _Display_HandleKey         30043680 f   ui_shared.obj
 0001:000426b3       _atol                      300436b3 f   LIBC:atox.obj
 0001:0004270b       _atoi                      3004370b f   LIBC:atox.obj
 0001:00042710       __fpclear                  30043710 f   LIBC:fpinit.obj
 0001:00042711       __cfltcvt_init             30043711 f   LIBC:fpinit.obj
 0001:00042749       __fpmath                   30043749 f   LIBC:fpinit.obj
 0001:00042768       __ftol2                    30043768 f   LIBC:ftol2.obj
 0001:000427e0       _floor                     300437e0 f   LIBC:floor_pentium4.obj
 0001:00042820       __floor_pentium4           30043820 f   LIBC:floor_pentium4.obj
 0001:00042910       _ceil                      30043910 f   LIBC:ceil_pentium4.obj
 0001:00042950       __ceil_pentium4            30043950 f   LIBC:ceil_pentium4.obj
 0001:00042a2d       _atof                      30043a2d f   LIBC:atof.obj
 0001:00042a78       _rand                      30043a78 f   LIBC:rand.obj
 0001:00042aa0       _strstr                    30043aa0 f   LIBC:strstr.obj
 0001:00042b26       _vsprintf                  30043b26 f   LIBC:vsprintf.obj
 0001:00042b80       __chkstk                   30043b80 f   LIBC:chkstk.obj
 0001:00042b80       __alloca_probe             30043b80     LIBC:chkstk.obj
 0001:00042bd0       _strchr                    30043bd0 f   LIBC:strchr.obj
 0001:00042bd6       ___from_strstr_to_strchr   30043bd6     LIBC:strchr.obj
 0001:00042c90       _strncpy                   30043c90 f   LIBC:strncpy.obj
 0001:00042db4       _tolower                   30043db4 f   LIBC:tolower.obj
 0001:00042e90       _memmove                   30043e90 f   LIBC:memmove.obj
 0001:000431cd       __CRT_INIT@12              300441cd f   LIBC:dllcrt0.obj
 0001:000432d8       __DllMainCRTStartup@12     300442d8 f   LIBC:dllcrt0.obj
 0001:000433bc       __amsg_exit                300443bc f   LIBC:dllcrt0.obj
 0001:000433ef       __ismbcspace               300443ef f   LIBC:ismbspc.obj
 0001:00043480       __allmul                   30044480 f   LIBC:llmul.obj
 0001:000434b4       __forcdecpt                300444b4 f   LIBC:cvt.obj
 0001:0004350c       __cropzeros                3004450c f   LIBC:cvt.obj
 0001:00043557       __positive                 30044557 f   LIBC:cvt.obj
 0001:00043571       __fassign                  30044571 f   LIBC:cvt.obj
 0001:000435cc       __cftoe                    300445cc f   LIBC:cvt.obj
 0001:000436bd       __cftof                    300446bd f   LIBC:cvt.obj
 0001:0004379a       __cftog                    3004479a f   LIBC:cvt.obj
 0001:00043844       __cfltcvt                  30044844 f   LIBC:cvt.obj
 0001:00043895       __setdefaultprecision      30044895 f   LIBC:fp8.obj
 0001:000438a7       __ms_p5_test_fdiv          300448a7 f   LIBC:testfdiv.obj
 0001:000438e7       __ms_p5_mp_test_fdiv       300448e7 f   LIBC:testfdiv.obj
 0001:00043910       ___libm_error_support      30044910 f   LIBC:libm_error.obj
 0001:00043bd1       ___sse2_available_init     30044bd1 f   LIBC:cpu_disp.obj
 0001:00043c9f       __floor_default            30044c9f f   LIBC:floor.obj
 0001:00043d72       __ceil_default             30044d72 f   LIBC:ceil.obj
 0001:00043e45       __fltin                    30044e45 f   LIBC:cfin.obj
 0001:00043ee0       _strlen                    30044ee0 f   LIBC:strlen.obj
 0001:00043f6b       __isctype                  30044f6b f   LIBC:isctype.obj
 0001:00043fe9       __flsbuf                   30044fe9 f   LIBC:_flsbuf.obj
 0001:0004418d       __output                   3004518d f   LIBC:output.obj
 0001:00044987       ___crtLCMapStringA         30045987 f   LIBC:a_map.obj
 0001:00044d43       ___crtExitProcess          30045d43 f   LIBC:crt0dat.obj
 0001:00044d73       __cinit                    30045d73 f   LIBC:crt0dat.obj
 0001:00044e9e       __exit                     30045e9e f   LIBC:crt0dat.obj
 0001:00044eaf       __cexit                    30045eaf f   LIBC:crt0dat.obj
 0001:00044ebe       __ioinit                   30045ebe f   LIBC:ioinit.obj
 0001:00045069       __ioterm                   30046069 f   LIBC:ioinit.obj
 0001:0004508c       __setenvp                  3004608c f   LIBC:stdenvp.obj
 0001:000452bf       __setargv                  300462bf f   LIBC:stdargv.obj
 0001:00045361       ___heap_select             30046361 f   LIBC:heapinit.obj
 0001:0004537b       __heap_init                3004637b f   LIBC:heapinit.obj
 0001:000453cc       __heap_term                300463cc f   LIBC:heapinit.obj
 0001:0004544b       ___crtGetEnvironmentStringsA 3004644b f   LIBC:a_env.obj
 0001:0004556d       __RTC_Initialize           3004656d f   LIBC:initsect.obj
 0001:000455b1       __RTC_Terminate            300465b1 f   LIBC:initsect.obj
 0001:000455f5       __XcptFilter               300465f5 f   LIBC:winxfltr.obj
 0001:00045766       ___CppXcptFilter           30046766 f   LIBC:winxfltr.obj
 0001:00045781       _DllMain@12                30046781 f   LIBC:dllmain.obj
 0001:000457a4       __SEH_prolog               300467a4 f   LIBC:sehprolg.obj
 0001:000457df       __SEH_epilog               300467df f   LIBC:sehprolg.obj
 0001:000457f8       __except_handler3          300467f8 f   LIBC:exsup3.obj
 0001:000458de       __seh_longjmp_unwind@4     300468de f   LIBC:exsup3.obj
 0001:000458f9       __NMSG_WRITE               300468f9 f   LIBC:crt0msg.obj
 0001:00045a70       __FF_MSGBANNER             30046a70 f   LIBC:crt0msg.obj
 0001:00045aa9       ___crtGetStringTypeA       30046aa9 f   LIBC:a_str.obj
 0001:00045e47       __setmbcp                  30046e47 f   LIBC:mbctype.obj
 0001:0004602d       ___initmbctable            3004702d f   LIBC:mbctype.obj
 0001:0004604b       __ZeroTail                 3004704b f   LIBC:intrncvt.obj
 0001:0004607d       __IncMan                   3004707d f   LIBC:intrncvt.obj
 0001:000460ca       __RoundMan                 300470ca f   LIBC:intrncvt.obj
 0001:0004613c       __CopyMan                  3004713c f   LIBC:intrncvt.obj
 0001:00046157       __IsZeroMan                30047157 f   LIBC:intrncvt.obj
 0001:00046170       __ShrMan                   30047170 f   LIBC:intrncvt.obj
 0001:000461eb       __ld12cvt                  300471eb f   LIBC:intrncvt.obj
 0001:00046343       __ld12tod                  30047343 f   LIBC:intrncvt.obj
 0001:00046359       __ld12tof                  30047359 f   LIBC:intrncvt.obj
 0001:0004636f       __atodbl                   3004736f f   LIBC:intrncvt.obj
 0001:000463ac       __atoflt                   300473ac f   LIBC:intrncvt.obj
 0001:000463f0       _strcpy                    300473f0 f   LIBC:strcat.obj
 0001:00046400       _strcat                    30047400 f   LIBC:strcat.obj
 0001:000464e8       __fptostr                  300474e8 f   LIBC:_fptostr.obj
 0001:0004655f       ___dtold                   3004755f f   LIBC:cfout.obj
 0001:00046619       __fltout                   30047619 f   LIBC:cfout.obj
 0001:00046690       _memset                    30047690 f   LIBC:memset.obj
 0001:000466f0       __fptrap                   300476f0 f   LIBC:crt0fp.obj
 0001:00046819       __control87                30047819 f   LIBC:ieee87.obj
 0001:0004684b       __controlfp                3004784b f   LIBC:ieee87.obj
 0001:00046861       __matherr                  30047861 f   LIBC:matherr.obj
 0001:00046895       @__security_check_cookie@4 30047895 f   LIBC:secchk.obj
 0001:000468b0       _strncmp                   300478b0 f   LIBC:strncmp.obj
 0001:000468e9       __raise_exc                300478e9 f   LIBC:fpexcept.obj
 0001:00046b8e       __handle_exc               30047b8e f   LIBC:fpexcept.obj
 0001:00046db2       __set_errno                30047db2 f   LIBC:fpexcept.obj
 0001:00046dd8       __errcode                  30047dd8 f   LIBC:fpexcept.obj
 0001:00046e05       __umatherr                 30047e05 f   LIBC:fpexcept.obj
 0001:00046ea5       __handle_qnan1             30047ea5 f   LIBC:fpexcept.obj
 0001:00046ef7       __except1                  30047ef7 f   LIBC:fpexcept.obj
 0001:00046faf       __frnd                     30047faf f   LIBC:frnd.obj
 0001:00046fc0       __set_exp                  30047fc0 f   LIBC:util.obj
 0001:00046fea       __sptype                   30047fea f   LIBC:util.obj
 0001:00047045       __decomp                   30048045 f   LIBC:util.obj
 0001:00047101       __statfp                   30048101 f   LIBC:fpctrl.obj
 0001:0004710c       __clrfp                    3004810c f   LIBC:fpctrl.obj
 0001:00047118       __ctrlfp                   30048118 f   LIBC:fpctrl.obj
 0001:0004713c       __set_statfp               3004813c f   LIBC:fpctrl.obj
 0001:00047192       ___strgtold12              30048192 f   LIBC:strgtold.obj
 0001:00047619       __lseek                    30048619 f   LIBC:lseek.obj
 0001:000476a5       __write                    300486a5 f   LIBC:write.obj
 0001:00047895       __getbuf                   30048895 f   LIBC:_getbuf.obj
 0001:000478d9       __isatty                   300488d9 f   LIBC:isatty.obj
 0001:00047900       ___initstdio               30048900 f   LIBC:_file.obj
 0001:000479a6       ___endstdio                300489a6 f   LIBC:_file.obj
 0001:000479ba       _free                      300489ba f   LIBC:free.obj
 0001:000479f2       __heap_alloc               300489f2 f   LIBC:malloc.obj
 0001:00047a38       __nh_malloc                30048a38 f   LIBC:malloc.obj
 0001:00047a64       _malloc                    30048a64 f   LIBC:malloc.obj
 0001:00047a76       _wctomb                    30048a76 f   LIBC:wctomb.obj
 0001:00047ae0       __aulldvrm                 30048ae0 f   LIBC:ulldvrm.obj
 0001:00047b75       ___ansicp                  30048b75 f   LIBC:convrtcp.obj
 0001:00047bb8       ___convertcp               30048bb8 f   LIBC:convrtcp.obj
 0001:00047d81       __resetstkoflw             30048d81 f   LIBC:resetstk.obj
 0001:00047e64       __onexit                   30048e64 f   LIBC:onexit.obj
 0001:00047ee6       _atexit                    30048ee6 f   LIBC:onexit.obj
 0001:00047ef8       ___onexitinit              30048ef8 f   LIBC:onexit.obj
 0001:00047f20       ___sbh_heap_init           30048f20 f   LIBC:sbheap.obj
 0001:00047f68       ___sbh_find_block          30048f68 f   LIBC:sbheap.obj
 0001:00047f93       ___sbh_free_block          30048f93 f   LIBC:sbheap.obj
 0001:000482ab       ___sbh_alloc_new_region    300492ab f   LIBC:sbheap.obj
 0001:00048362       ___sbh_alloc_new_group     30049362 f   LIBC:sbheap.obj
 0001:00048468       ___sbh_resize_block        30049468 f   LIBC:sbheap.obj
 0001:00048747       ___sbh_alloc_block         30049747 f   LIBC:sbheap.obj
 0001:00048a50       _memcpy                    30049a50 f   LIBC:memcpy.obj
 0001:00048d90       __global_unwind2           30049d90 f   LIBC:exsup.obj
 0001:00048dd2       __local_unwind2            30049dd2 f   LIBC:exsup.obj
 0001:00048e2a       __NLG_Return2              30049e2a     LIBC:exsup.obj
 0001:00048e3a       __abnormal_termination     30049e3a f   LIBC:exsup.obj
 0001:00048e5d       __NLG_Notify1              30049e5d f   LIBC:exsup.obj
 0001:00048e66       __NLG_Notify               30049e66 f   LIBC:exsup.obj
 0001:00048e79       __NLG_Dispatch             30049e79     LIBC:exsup.obj
 0001:00048e7e       __ValidateEH3RN            30049e7e f   LIBC:eh3valid.obj
 0001:000490a7       ___crtMessageBoxA          3004a0a7 f   LIBC:crtmbox.obj
 0001:000491a0       _calloc                    3004a1a0 f   LIBC:calloc.obj
 0001:0004921b       ___addl                    3004a21b f   LIBC:mantold.obj
 0001:0004923c       ___add_12                  3004a23c f   LIBC:mantold.obj
 0001:0004929a       ___shl_12                  3004a29a f   LIBC:mantold.obj
 0001:000492c8       ___shr_12                  3004a2c8 f   LIBC:mantold.obj
 0001:000492f5       ___mtold12                 3004a2f5 f   LIBC:mantold.obj
 0001:000493d3       _$I10_OUTPUT               3004a3d3 f   LIBC:x10fout.obj
 0001:00049661       ___security_init_cookie    3004a661 f   LIBC:seccinit.obj
 0001:000496c7       ___security_error_handler  3004a6c7 f   LIBC:secfail.obj
 0001:0004980f       ___ld12mul                 3004a80f f   LIBC:tenpow.obj
 0001:00049a41       ___multtenpow12            3004aa41 f   LIBC:tenpow.obj
 0001:00049ac7       __dosmaperr                3004aac7 f   LIBC:dosmap.obj
 0001:00049b26       __free_osfhnd              3004ab26 f   LIBC:osfinfo.obj
 0001:00049ba0       __get_osfhandle            3004aba0 f   LIBC:osfinfo.obj
 0001:00049bdc       __lseeki64                 3004abdc f   LIBC:lseeki64.obj
 0001:00049c7b       __fcloseall                3004ac7b f   LIBC:closeall.obj
 0001:00049cd3       __flush                    3004acd3 f   LIBC:fflush.obj
 0001:00049d30       _fflush                    3004ad30 f   LIBC:fflush.obj
 0001:00049dd8       __flushall                 3004add8 f   LIBC:fflush.obj
 0001:00049de1       __callnewh                 3004ade1 f   LIBC:handler.obj
 0001:00049dfc       _realloc                   3004adfc f   LIBC:realloc.obj
 0001:00049f5e       __msize                    3004af5e f   LIBC:msize.obj
 0001:00049f96       _fclose                    3004af96 f   LIBC:fclose.obj
 0001:00049fec       __commit                   3004afec f   LIBC:commit.obj
 0001:0004a043       __close                    3004b043 f   LIBC:close.obj
 0001:0004a0f6       __freebuf                  3004b0f6 f   LIBC:_freebuf.obj
 0001:0004a122       _RtlUnwind@16              3004b122 f   kernel32:KERNEL32.dll
 0002:00000000       __imp__GetCommandLineA@0   3004c000     kernel32:KERNEL32.dll
 0002:00000004       __imp__GetVersionExA@4     3004c004     kernel32:KERNEL32.dll
 0002:00000008       __imp__GetProcAddress@8    3004c008     kernel32:KERNEL32.dll
 0002:0000000c       __imp__GetModuleHandleA@4  3004c00c     kernel32:KERNEL32.dll
 0002:00000010       __imp__LCMapStringA@24     3004c010     kernel32:KERNEL32.dll
 0002:00000014       __imp__WideCharToMultiByte@32 3004c014     kernel32:KERNEL32.dll
 0002:00000018       __imp__MultiByteToWideChar@24 3004c018     kernel32:KERNEL32.dll
 0002:0000001c       __imp__GetLastError@0      3004c01c     kernel32:KERNEL32.dll
 0002:00000020       __imp__LCMapStringW@24     3004c020     kernel32:KERNEL32.dll
 0002:00000024       __imp__ExitProcess@4       3004c024     kernel32:KERNEL32.dll
 0002:00000028       __imp__TerminateProcess@8  3004c028     kernel32:KERNEL32.dll
 0002:0000002c       __imp__GetCurrentProcess@0 3004c02c     kernel32:KERNEL32.dll
 0002:00000030       __imp__SetHandleCount@4    3004c030     kernel32:KERNEL32.dll
 0002:00000034       __imp__GetStdHandle@4      3004c034     kernel32:KERNEL32.dll
 0002:00000038       __imp__GetFileType@4       3004c038     kernel32:KERNEL32.dll
 0002:0000003c       __imp__GetStartupInfoA@4   3004c03c     kernel32:KERNEL32.dll
 0002:00000040       __imp__GetModuleFileNameA@12 3004c040     kernel32:KERNEL32.dll
 0002:00000044       __imp__HeapDestroy@4       3004c044     kernel32:KERNEL32.dll
 0002:00000048       __imp__HeapCreate@12       3004c048     kernel32:KERNEL32.dll
 0002:0000004c       __imp__VirtualFree@12      3004c04c     kernel32:KERNEL32.dll
 0002:00000050       __imp__HeapFree@12         3004c050     kernel32:KERNEL32.dll
 0002:00000054       __imp__FreeEnvironmentStringsA@4 3004c054     kernel32:KERNEL32.dll
 0002:00000058       __imp__GetEnvironmentStrings@0 3004c058     kernel32:KERNEL32.dll
 0002:0000005c       __imp__FreeEnvironmentStringsW@4 3004c05c     kernel32:KERNEL32.dll
 0002:00000060       __imp__GetEnvironmentStringsW@0 3004c060     kernel32:KERNEL32.dll
 0002:00000064       __imp__UnhandledExceptionFilter@4 3004c064     kernel32:KERNEL32.dll
 0002:00000068       __imp__DisableThreadLibraryCalls@4 3004c068     kernel32:KERNEL32.dll
 0002:0000006c       __imp__WriteFile@20        3004c06c     kernel32:KERNEL32.dll
 0002:00000070       __imp__GetStringTypeA@20   3004c070     kernel32:KERNEL32.dll
 0002:00000074       __imp__GetStringTypeW@16   3004c074     kernel32:KERNEL32.dll
 0002:00000078       __imp__GetACP@0            3004c078     kernel32:KERNEL32.dll
 0002:0000007c       __imp__GetOEMCP@0          3004c07c     kernel32:KERNEL32.dll
 0002:00000080       __imp__GetCPInfo@8         3004c080     kernel32:KERNEL32.dll
 0002:00000084       __imp__RaiseException@16   3004c084     kernel32:KERNEL32.dll
 0002:00000088       __imp__SetFilePointer@16   3004c088     kernel32:KERNEL32.dll
 0002:0000008c       __imp__HeapAlloc@12        3004c08c     kernel32:KERNEL32.dll
 0002:00000090       __imp__GetLocaleInfoA@16   3004c090     kernel32:KERNEL32.dll
 0002:00000094       __imp__VirtualProtect@16   3004c094     kernel32:KERNEL32.dll
 0002:00000098       __imp__VirtualAlloc@16     3004c098     kernel32:KERNEL32.dll
 0002:0000009c       __imp__GetSystemInfo@4     3004c09c     kernel32:KERNEL32.dll
 0002:000000a0       __imp__VirtualQuery@12     3004c0a0     kernel32:KERNEL32.dll
 0002:000000a4       __imp__HeapReAlloc@16      3004c0a4     kernel32:KERNEL32.dll
 0002:000000a8       __imp__RtlUnwind@16        3004c0a8     kernel32:KERNEL32.dll
 0002:000000ac       __imp__InterlockedExchange@8 3004c0ac     kernel32:KERNEL32.dll
 0002:000000b0       __imp__LoadLibraryA@4      3004c0b0     kernel32:KERNEL32.dll
 0002:000000b4       __imp__QueryPerformanceCounter@4 3004c0b4     kernel32:KERNEL32.dll
 0002:000000b8       __imp__GetTickCount@0      3004c0b8     kernel32:KERNEL32.dll
 0002:000000bc       __imp__GetCurrentThreadId@0 3004c0bc     kernel32:KERNEL32.dll
 0002:000000c0       __imp__GetCurrentProcessId@0 3004c0c0     kernel32:KERNEL32.dll
 0002:000000c4       __imp__GetSystemTimeAsFileTime@4 3004c0c4     kernel32:KERNEL32.dll
 0002:000000c8       __imp__SetStdHandle@8      3004c0c8     kernel32:KERNEL32.dll
 0002:000000cc       __imp__HeapSize@12         3004c0cc     kernel32:KERNEL32.dll
 0002:000000d0       __imp__FlushFileBuffers@4  3004c0d0     kernel32:KERNEL32.dll
 0002:000000d4       __imp__CloseHandle@4       3004c0d4     kernel32:KERNEL32.dll
 0002:000000d8       \177KERNEL32_NULL_THUNK_DATA 3004c0d8     kernel32:KERNEL32.dll
 0002:000000e0       ??_C@_0BD@LADOFFHF@EV_BODY_QUEUE_COPY?$AA@ 3004c0e0     bg_misc.obj
 0002:000000f4       ??_C@_0BA@LOAEJFFI@EV_TAUNT_PATROL?$AA@ 3004c0f4     bg_misc.obj
 0002:00000104       ??_C@_0BD@HMFKCJAA@EV_TAUNT_GUARDBASE?$AA@ 3004c104     bg_misc.obj
 0002:00000118       ??_C@_0BB@NHAKBFEP@EV_TAUNT_GETFLAG?$AA@ 3004c118     bg_misc.obj
 0002:0000012c       ??_C@_0BC@CHOOODFF@EV_TAUNT_FOLLOWME?$AA@ 3004c12c     bg_misc.obj
 0002:00000140       ??_C@_0M@CJNAMJCI@EV_TAUNT_NO?$AA@ 3004c140     bg_misc.obj
 0002:0000014c       ??_C@_0N@GEFDJMFE@EV_TAUNT_YES?$AA@ 3004c14c     bg_misc.obj
 0002:0000015c       ??_C@_08GBKLDCBE@EV_TAUNT?$AA@ 3004c15c     bg_misc.obj
 0002:00000168       ??_C@_0BF@EAHNFOOG@EV_STARTLOOPINGSOUND?$AA@ 3004c168     bg_misc.obj
 0002:00000180       ??_C@_0BE@OHJHDFJH@EV_STOPLOOPINGSOUND?$AA@ 3004c180     bg_misc.obj
 0002:00000194       ??_C@_0M@LDAKOPJP@EV_TESTLINE?$AA@ 3004c194     bg_misc.obj
 0002:000001a0       ??_C@_0O@PBPAKHP@EV_DEBUG_LINE?$AA@ 3004c1a0     bg_misc.obj
 0002:000001b0       ??_C@_0O@CBLOOGHB@EV_SHIELD_HIT?$AA@ 3004c1b0     bg_misc.obj
 0002:000001c0       ??_C@_0BF@LLJHJACN@EV_WEAPON_CHARGE_ALT?$AA@ 3004c1c0     bg_misc.obj
 0002:000001d8       ??_C@_0BB@HAHOHAKJ@EV_WEAPON_CHARGE?$AA@ 3004c1d8     bg_misc.obj
 0002:000001ec       ??_C@_0BF@KFICFFCM@EV_SET_FORCE_DISABLE?$AA@ 3004c1ec     bg_misc.obj
 0002:00000204       ??_C@_0BC@DDJADHAK@EV_SET_FREE_SABER?$AA@ 3004c204     bg_misc.obj
 0002:00000218       ??_C@_0BB@JIHOLMBD@EV_GIVE_NEW_RANK?$AA@ 3004c218     bg_misc.obj
 0002:0000022c       ??_C@_0BI@CEGPCIEH@EV_DESTROY_WEAPON_MODEL?$AA@ 3004c22c     bg_misc.obj
 0002:00000244       ??_C@_0BL@DNICLAEN@EV_DESTROY_GHOUL2_INSTANCE?$AA@ 3004c244     bg_misc.obj
 0002:00000260       ??_C@_0BK@KKHGBKBG@EV_SAGA_OBJECTIVECOMPLETE?$AA@ 3004c260     bg_misc.obj
 0002:0000027c       ??_C@_0BC@EFMHNGOM@EV_SAGA_ROUNDOVER?$AA@ 3004c27c     bg_misc.obj
 0002:00000290       ??_C@_0O@NEHCEMNJ@EV_CTFMESSAGE?$AA@ 3004c290     bg_misc.obj
 0002:000002a0       ??_C@_0N@GAJBP@EV_SCOREPLUM?$AA@ 3004c2a0     bg_misc.obj
 0002:000002b0       ??_C@_0O@JLGFLKBE@EV_GIB_PLAYER?$AA@ 3004c2b0     bg_misc.obj
 0002:000002c0       ??_C@_0BB@KGMADNKO@EV_FORCE_DRAINED?$AA@ 3004c2c0     bg_misc.obj
 0002:000002d4       ??_C@_0BG@CHAMNADK@EV_POWERUP_BATTLESUIT?$AA@ 3004c2d4     bg_misc.obj
 0002:000002ec       ??_C@_0BA@HLHGHIIE@EV_POWERUP_QUAD?$AA@ 3004c2ec     bg_misc.obj
 0002:000002fc       ??_C@_0M@PPLCDPP@EV_OBITUARY?$AA@ 3004c2fc     bg_misc.obj
 0002:00000308       ??_C@_09KNGHBIAK@EV_DEATH3?$AA@ 3004c308     bg_misc.obj
 0002:00000314       ??_C@_09LEHMCJEL@EV_DEATH2?$AA@ 3004c314     bg_misc.obj
 0002:00000320       ??_C@_09JPFBHKII@EV_DEATH1?$AA@ 3004c320     bg_misc.obj
 0002:0000032c       ??_C@_07EMHHKOOH@EV_PAIN?$AA@ 3004c32c     bg_misc.obj
 0002:00000334       ??_C@_09ICDIPKFJ@EV_BULLET?$AA@ 3004c334     bg_misc.obj
 0002:00000340       ??_C@_0BG@LPAHEABB@EV_MISSILE_MISS_METAL?$AA@ 3004c340     bg_misc.obj
 0002:00000358       ??_C@_0BA@CAHALNAE@EV_MISSILE_MISS?$AA@ 3004c358     bg_misc.obj
 0002:00000368       ??_C@_0P@JFMFNBMO@EV_MISSILE_HIT?$AA@ 3004c368     bg_misc.obj
 0002:00000378       ??_C@_09KLJDDMJG@EV_DEBRIS?$AA@ 3004c378     bg_misc.obj
 0002:00000384       ??_C@_0BB@HHFJBAND@EV_GLASS_SHATTER?$AA@ 3004c384     bg_misc.obj
 0002:00000398       ??_C@_0N@BEKJCCJE@EV_PLAY_ROFF?$AA@ 3004c398     bg_misc.obj
 0002:000003a8       ??_C@_0BA@LLJGBFCE@EV_ENTITY_SOUND?$AA@ 3004c3a8     bg_misc.obj
 0002:000003b8       ??_C@_0BF@DDOIKLHD@EV_GLOBAL_TEAM_SOUND?$AA@ 3004c3b8     bg_misc.obj
 0002:000003d0       ??_C@_0BA@JAMKLOPJ@EV_GLOBAL_SOUND?$AA@ 3004c3d0     bg_misc.obj
 0002:000003e0       ??_C@_0BB@LJGGMAII@EV_GENERAL_SOUND?$AA@ 3004c3e0     bg_misc.obj
 0002:000003f4       ??_C@_0O@JHBKAOKG@EV_MUTE_SOUND?$AA@ 3004c3f4     bg_misc.obj
 0002:00000404       ??_C@_0BC@LCOMFDPL@EV_PLAY_EFFECT_ID?$AA@ 3004c404     bg_misc.obj
 0002:00000418       ??_C@_0P@PLIFONPM@EV_PLAY_EFFECT?$AA@ 3004c418     bg_misc.obj
 0002:00000428       ??_C@_0BB@JGOOAGDJ@EV_MISSILE_STICK?$AA@ 3004c428     bg_misc.obj
 0002:0000043c       ??_C@_0BC@ECIIAFLJ@EV_GRENADE_BOUNCE?$AA@ 3004c43c     bg_misc.obj
 0002:00000450       ??_C@_0BH@FNNILPIN@EV_PLAYER_TELEPORT_OUT?$AA@ 3004c450     bg_misc.obj
 0002:00000468       ??_C@_0BG@HBBJKNDP@EV_PLAYER_TELEPORT_IN?$AA@ 3004c468     bg_misc.obj
 0002:00000480       ??_C@_0M@ECGFPIMP@EV_ITEM_POP?$AA@ 3004c480     bg_misc.obj
 0002:0000048c       ??_C@_0BA@GJNCODNG@EV_ITEM_RESPAWN?$AA@ 3004c48c     bg_misc.obj
 0002:0000049c       ??_C@_0P@JFHCOBFC@EV_ITEMUSEFAIL?$AA@ 3004c49c     bg_misc.obj
 0002:000004ac       ??_C@_0O@HHGOLJPJ@EV_USE_ITEM15?$AA@ 3004c4ac     bg_misc.obj
 0002:000004bc       ??_C@_0O@GOHFIILI@EV_USE_ITEM14?$AA@ 3004c4bc     bg_misc.obj
 0002:000004cc       ??_C@_0O@CBDEBOHP@EV_USE_ITEM13?$AA@ 3004c4cc     bg_misc.obj
 0002:000004dc       ??_C@_0O@DICPCPDO@EV_USE_ITEM12?$AA@ 3004c4dc     bg_misc.obj
 0002:000004ec       ??_C@_0O@BDACHMPN@EV_USE_ITEM11?$AA@ 3004c4ec     bg_misc.obj
 0002:000004fc       ??_C@_0O@KBJENLM@EV_USE_ITEM10?$AA@ 3004c4fc     bg_misc.obj
 0002:0000050c       ??_C@_0N@PHODCBCK@EV_USE_ITEM9?$AA@ 3004c50c     bg_misc.obj
 0002:0000051c       ??_C@_0N@OOPIBAGL@EV_USE_ITEM8?$AA@ 3004c51c     bg_misc.obj
 0002:0000052c       ??_C@_0N@GJGAAMKE@EV_USE_ITEM7?$AA@ 3004c52c     bg_misc.obj
 0002:0000053c       ??_C@_0N@HAHLDNOF@EV_USE_ITEM6?$AA@ 3004c53c     bg_misc.obj
 0002:0000054c       ??_C@_0N@FLFGGOCG@EV_USE_ITEM5?$AA@ 3004c54c     bg_misc.obj
 0002:0000055c       ??_C@_0N@ECENFPGH@EV_USE_ITEM4?$AA@ 3004c55c     bg_misc.obj
 0002:0000056c       ??_C@_0N@NAMMJKA@EV_USE_ITEM3?$AA@ 3004c56c     bg_misc.obj
 0002:0000057c       ??_C@_0N@BEBHPIOB@EV_USE_ITEM2?$AA@ 3004c57c     bg_misc.obj
 0002:0000058c       ??_C@_0N@DPDKKLCC@EV_USE_ITEM1?$AA@ 3004c58c     bg_misc.obj
 0002:0000059c       ??_C@_0N@CGCBJKGD@EV_USE_ITEM0?$AA@ 3004c59c     bg_misc.obj
 0002:000005ac       ??_C@_06LBDBNJG@EV_USE?$AA@ 3004c5ac     bg_misc.obj
 0002:000005b4       ??_C@_0P@EIHBPBOL@EV_SCREENSHAKE?$AA@ 3004c5b4     bg_misc.obj
 0002:000005c4       ??_C@_0O@GMONIJJI@EV_TEAM_POWER?$AA@ 3004c5c4     bg_misc.obj
 0002:000005d4       ??_C@_0P@MDPKBHNH@EV_PREDEFSOUND?$AA@ 3004c5d4     bg_misc.obj
 0002:000005e4       ??_C@_0BH@GCPNKPAL@EV_DISRUPTOR_ZOOMSOUND?$AA@ 3004c5e4     bg_misc.obj
 0002:000005fc       ??_C@_0BB@JNGCFFFI@EV_DISRUPTOR_HIT?$AA@ 3004c5fc     bg_misc.obj
 0002:00000610       ??_C@_0BJ@POMLOPMI@EV_DISRUPTOR_SNIPER_MISS?$AA@ 3004c610     bg_misc.obj
 0002:0000062c       ??_C@_0BJ@MDNKGNJN@EV_DISRUPTOR_SNIPER_SHOT?$AA@ 3004c62c     bg_misc.obj
 0002:00000648       ??_C@_0BH@KDGLLAMO@EV_DISRUPTOR_MAIN_SHOT?$AA@ 3004c648     bg_misc.obj
 0002:00000660       ??_C@_0BF@MBILLJJH@EV_BECOME_JEDIMASTER?$AA@ 3004c660     bg_misc.obj
 0002:00000678       ??_C@_0BD@FFJMPGGA@EV_SABER_UNHOLSTER?$AA@ 3004c678     bg_misc.obj
 0002:0000068c       ??_C@_0P@MNCBBKHB@EV_SABER_BLOCK?$AA@ 3004c68c     bg_misc.obj
 0002:0000069c       ??_C@_0N@IKFBFHKB@EV_SABER_HIT?$AA@ 3004c69c     bg_misc.obj
 0002:000006ac       ??_C@_0BA@FJAFFDLF@EV_SABER_ATTACK?$AA@ 3004c6ac     bg_misc.obj
 0002:000006bc       ??_C@_0M@LKPOHPHC@EV_ALT_FIRE?$AA@ 3004c6bc     bg_misc.obj
 0002:000006c8       ??_C@_0P@PFJPAFGH@EV_FIRE_WEAPON?$AA@ 3004c6c8     bg_misc.obj
 0002:000006d8       ??_C@_0BB@ENKPHJLP@EV_CHANGE_WEAPON?$AA@ 3004c6d8     bg_misc.obj
 0002:000006ec       ??_C@_09NMIICG@EV_NOAMMO?$AA@ 3004c6ec     bg_misc.obj
 0002:000006f8       ??_C@_0BG@KFILGAMN@EV_GLOBAL_ITEM_PICKUP?$AA@ 3004c6f8     bg_misc.obj
 0002:00000710       ??_C@_0P@BGIOEPCB@EV_ITEM_PICKUP?$AA@ 3004c710     bg_misc.obj
 0002:00000720       ??_C@_0P@NIPCJOBG@EV_WATER_CLEAR?$AA@ 3004c720     bg_misc.obj
 0002:00000730       ??_C@_0P@MIAIODEJ@EV_WATER_UNDER?$AA@ 3004c730     bg_misc.obj
 0002:00000740       ??_C@_0P@LHDMOIIG@EV_WATER_LEAVE?$AA@ 3004c740     bg_misc.obj
 0002:00000750       ??_C@_0P@GCDBKPMP@EV_WATER_TOUCH?$AA@ 3004c750     bg_misc.obj
 0002:00000760       ??_C@_07OCJFCKNN@EV_ROLL?$AA@ 3004c760     bg_misc.obj
 0002:00000768       ??_C@_07GKBEHGAP@EV_JUMP?$AA@ 3004c768     bg_misc.obj
 0002:00000770       ??_C@_0BA@NCAJLGNF@EV_PRIVATE_DUEL?$AA@ 3004c770     bg_misc.obj
 0002:00000780       ??_C@_0M@BPNFGBOJ@EV_JUMP_PAD?$AA@ 3004c780     bg_misc.obj
 0002:0000078c       ??_C@_07JHCKGMKM@EV_FALL?$AA@ 3004c78c     bg_misc.obj
 0002:00000794       ??_C@_0L@HOOIOPKF@EV_STEP_16?$AA@ 3004c794     bg_misc.obj
 0002:000007a0       ??_C@_0L@BKIECKKB@EV_STEP_12?$AA@ 3004c7a0     bg_misc.obj
 0002:000007ac       ??_C@_09EHOLDGNN@EV_STEP_8?$AA@ 3004c7ac     bg_misc.obj
 0002:000007b8       ??_C@_09OLFOHJNB@EV_STEP_4?$AA@ 3004c7b8     bg_misc.obj
 0002:000007c4       ??_C@_07FFIIIPLH@EV_SWIM?$AA@ 3004c7c4     bg_misc.obj
 0002:000007cc       ??_C@_0M@NPJBGELA@EV_FOOTWADE?$AA@ 3004c7cc     bg_misc.obj
 0002:000007d8       ??_C@_0O@HLJHKIDH@EV_FOOTSPLASH?$AA@ 3004c7d8     bg_misc.obj
 0002:000007e8       ??_C@_0BC@DIJMAMMI@EV_FOOTSTEP_METAL?$AA@ 3004c7e8     bg_misc.obj
 0002:000007fc       ??_C@_0M@HLKBOJPO@EV_FOOTSTEP?$AA@ 3004c7fc     bg_misc.obj
 0002:00000808       ??_C@_0O@JHBAELOC@EV_CLIENTJOIN?$AA@ 3004c808     bg_misc.obj
 0002:00000818       ??_C@_07JFMDDPHJ@EV_NONE?$AA@ 3004c818     bg_misc.obj
 0002:00000820       ??_C@_0BB@JKNLMJAB@icons?1iconh_borb?$AA@ 3004c820     bg_misc.obj
 0002:00000834       ??_C@_0BO@CMJEFEFK@models?1powerups?1orb?1b_orb?4md3?$AA@ 3004c834     bg_misc.obj
 0002:00000854       ??_C@_0O@NHDOFNIN@item_bluecube?$AA@ 3004c854     bg_misc.obj
 0002:00000864       ??_C@_0BB@PKDLFOID@icons?1iconh_rorb?$AA@ 3004c864     bg_misc.obj
 0002:00000878       ??_C@_0BO@LDKNFLC@models?1powerups?1orb?1r_orb?4md3?$AA@ 3004c878     bg_misc.obj
 0002:00000898       ??_C@_0N@IDOEINCB@item_redcube?$AA@ 3004c898     bg_misc.obj
 0002:000008a8       ??_C@_0BF@OGGGKBMJ@icons?1iconf_neutral1?$AA@ 3004c8a8     bg_misc.obj
 0002:000008c0       ??_C@_0BI@FAJILPEC@models?1flags?1n_flag?4md3?$AA@ 3004c8c0     bg_misc.obj
 0002:000008d8       ??_C@_0BF@NFGOPKAE@team_CTF_neutralflag?$AA@ 3004c8d8     bg_misc.obj
 0002:000008f0       ??_C@_0BC@JDBDOHJA@gfx?1hud?1mpi_bflag?$AA@ 3004c8f0     bg_misc.obj
 0002:00000904       ??_C@_0BN@NABGHIBA@models?1flags?1b_flag_ysal?4md3?$AA@ 3004c904     bg_misc.obj
 0002:00000924       ??_C@_0BI@FKICCNIF@models?1flags?1b_flag?4md3?$AA@ 3004c924     bg_misc.obj
 0002:0000093c       ??_C@_0BC@NLKCOFAB@team_CTF_blueflag?$AA@ 3004c93c     bg_misc.obj
 0002:00000950       ??_C@_0BC@JAMFOFAL@gfx?1hud?1mpi_rflag?$AA@ 3004c950     bg_misc.obj
 0002:00000964       ??_C@_0BN@DGDBEGIO@models?1flags?1r_flag_ysal?4md3?$AA@ 3004c964     bg_misc.obj
 0002:00000984       ??_C@_0BI@PEHEOJEO@models?1flags?1r_flag?4md3?$AA@ 3004c984     bg_misc.obj
 0002:0000099c       ??_C@_0BB@JNMMCIHG@team_CTF_redflag?$AA@ 3004c99c     bg_misc.obj
 0002:000009b0       ??_C@_0BE@IIEBFJHN@gfx?1mp?1ammo_rockets?$AA@ 3004c9b0     bg_misc.obj
 0002:000009c4       ??_C@_0BJ@BCBNBFGD@models?1items?1rockets?4md3?$AA@ 3004c9c4     bg_misc.obj
 0002:000009e0       ??_C@_0N@CLEPKBOE@ammo_rockets?$AA@ 3004c9e0     bg_misc.obj
 0002:000009f0       ??_C@_0BL@IPLJCMOM@gfx?1mp?1ammo_metallic_bolts?$AA@ 3004c9f0     bg_misc.obj
 0002:00000a0c       ??_C@_0CA@POKDMLNN@models?1items?1metallic_bolts?4md3?$AA@ 3004ca0c     bg_misc.obj
 0002:00000a2c       ??_C@_0BE@OMMGIMPN@ammo_metallic_bolts?$AA@ 3004ca2c     bg_misc.obj
 0002:00000a40       ??_C@_0BH@KBMOAFPH@gfx?1mp?1ammo_power_cell?$AA@ 3004ca40     bg_misc.obj
 0002:00000a58       ??_C@_0BM@GDMBBHDI@models?1items?1power_cell?4md3?$AA@ 3004ca58     bg_misc.obj
 0002:00000a74       ??_C@_0P@GBMHNHF@ammo_powercell?$AA@ 3004ca74     bg_misc.obj
 0002:00000a84       ??_C@_0BH@MFDMPLPM@gfx?1hud?1i_icon_battery?$AA@ 3004ca84     bg_misc.obj
 0002:00000a9c       ??_C@_0N@JHBODPOG@ammo_blaster?$AA@ 3004ca9c     bg_misc.obj
 0002:00000aac       ??_C@_0BN@BKBHFNLE@models?1items?1energy_cell?4md3?$AA@ 3004caac     bg_misc.obj
 0002:00000acc       ??_C@_0BO@EBHMDMMM@sound?1player?1pickupenergy?4wav?$AA@ 3004cacc     bg_misc.obj
 0002:00000aec       ??_C@_0L@GKDELMG@ammo_force?$AA@ 3004caec     bg_misc.obj
 0002:00000af8       ??_C@_0BA@EENDCNMH@weapon_turretwp?$AA@ 3004caf8     bg_misc.obj
 0002:00000b08       ??_C@_0BA@PHDHEKAE@weapon_emplaced?$AA@ 3004cb08     bg_misc.obj
 0002:00000b18       ??_C@_0BA@DBJEACCG@weapon_det_pack?$AA@ 3004cb18     bg_misc.obj
 0002:00000b28       ??_C@_0BB@KBIODFKP@weapon_trip_mine?$AA@ 3004cb28     bg_misc.obj
 0002:00000b3c       ??_C@_0P@OJLAIIJD@weapon_thermal?$AA@ 3004cb3c     bg_misc.obj
 0002:00000b4c       ??_C@_0BH@EBPPNJFB@gfx?1hud?1w_icon_detpack?$AA@ 3004cb4c     bg_misc.obj
 0002:00000b64       ??_C@_0CF@NONMEFGL@models?1weapons2?1detpack?1det_pack@ 3004cb64     bg_misc.obj
 0002:00000b8c       ??_C@_0CH@KPFPNMHO@models?1weapons2?1detpack?1det_pack@ 3004cb8c     bg_misc.obj
 0002:00000bb4       ??_C@_0CK@CDFEGPDE@models?1weapons2?1detpack?1det_pack@ 3004cbb4     bg_misc.obj
 0002:00000be0       ??_C@_0CI@CBJMGLP@models?1weapons2?1detpack?1det_pack@ 3004cbe0     bg_misc.obj
 0002:00000c08       ??_C@_0N@CIBIOIEN@ammo_detpack?$AA@ 3004cc08     bg_misc.obj
 0002:00000c18       ??_C@_0BI@HEJGEJJK@gfx?1hud?1w_icon_tripmine?$AA@ 3004cc18     bg_misc.obj
 0002:00000c30       ??_C@_0CK@BPCANEAG@models?1weapons2?1laser_trap?1laser@ 3004cc30     bg_misc.obj
 0002:00000c5c       ??_C@_0CM@PIAEKLLK@models?1weapons2?1laser_trap?1laser@ 3004cc5c     bg_misc.obj
 0002:00000c88       ??_C@_0CN@JOEHJLGB@models?1weapons2?1laser_trap?1laser@ 3004cc88     bg_misc.obj
 0002:00000cb8       ??_C@_0O@GAPOPCOE@ammo_tripmine?$AA@ 3004ccb8     bg_misc.obj
 0002:00000cc8       ??_C@_0BH@OIMKPGPF@gfx?1hud?1w_icon_thermal?$AA@ 3004ccc8     bg_misc.obj
 0002:00000ce0       ??_C@_0CE@PJGNCPEG@models?1weapons2?1thermal?1thermal?4@ 3004cce0     bg_misc.obj
 0002:00000d04       ??_C@_0CG@CCBCCJGG@models?1weapons2?1thermal?1thermal_@ 3004cd04     bg_misc.obj
 0002:00000d2c       ??_C@_0CH@BBPIBDBM@models?1weapons2?1thermal?1thermal_@ 3004cd2c     bg_misc.obj
 0002:00000d54       ??_C@_0N@IBCNMHOJ@ammo_thermal?$AA@ 3004cd54     bg_misc.obj
 0002:00000d64       ??_C@_0BI@DDNFEDEJ@gfx?1hud?1w_icon_merrsonn?$AA@ 3004cd64     bg_misc.obj
 0002:00000d7c       ??_C@_0CI@CPIMDKHH@models?1weapons2?1merr_sonn?1merr_s@ 3004cd7c     bg_misc.obj
 0002:00000da4       ??_C@_0CK@IJJCBMNO@models?1weapons2?1merr_sonn?1merr_s@ 3004cda4     bg_misc.obj
 0002:00000dd0       ??_C@_0BH@CFPMIEJH@weapon_rocket_launcher?$AA@ 3004cdd0     bg_misc.obj
 0002:00000de8       ??_C@_0BJ@PJJJCKNF@gfx?1hud?1w_icon_flechette?$AA@ 3004cde8     bg_misc.obj
 0002:00000e04       ??_C@_0CK@CNAHGKMH@models?1weapons2?1golan_arms?1golan@ 3004ce04     bg_misc.obj
 0002:00000e30       ??_C@_0CM@GDMOBBJ@models?1weapons2?1golan_arms?1golan@ 3004ce30     bg_misc.obj
 0002:00000e5c       ??_C@_0BB@HNIDLLLF@weapon_flechette?$AA@ 3004ce5c     bg_misc.obj
 0002:00000e70       ??_C@_0BF@BPEBOIFE@gfx?1hud?1w_icon_demp2?$AA@ 3004ce70     bg_misc.obj
 0002:00000e88       ??_C@_0CA@PKACJAPI@models?1weapons2?1demp2?1demp2?4md3?$AA@ 3004ce88     bg_misc.obj
 0002:00000ea8       ??_C@_0CC@DIKAHCC@models?1weapons2?1demp2?1demp2_w?4gl@ 3004cea8     bg_misc.obj
 0002:00000ecc       ??_C@_0N@MBLCNHPF@weapon_demp2?$AA@ 3004cecc     bg_misc.obj
 0002:00000edc       ??_C@_0BI@LOPKELCD@gfx?1hud?1w_icon_repeater?$AA@ 3004cedc     bg_misc.obj
 0002:00000ef4       ??_C@_0DC@FAHGABEB@models?1weapons2?1heavy_repeater?1h@ 3004cef4     bg_misc.obj
 0002:00000f28       ??_C@_0DE@LBIFBLHF@models?1weapons2?1heavy_repeater?1h@ 3004cf28     bg_misc.obj
 0002:00000f5c       ??_C@_0BA@BKCKPFDA@weapon_repeater?$AA@ 3004cf5c     bg_misc.obj
 0002:00000f6c       ??_C@_0BJ@CHKJPOAH@gfx?1hud?1w_icon_bowcaster?$AA@ 3004cf6c     bg_misc.obj
 0002:00000f88       ??_C@_0CI@MANABGJH@models?1weapons2?1bowcaster?1bowcas@ 3004cf88     bg_misc.obj
 0002:00000fb0       ??_C@_0CK@OFDEGMIN@models?1weapons2?1bowcaster?1bowcas@ 3004cfb0     bg_misc.obj
 0002:00000fdc       ??_C@_0BB@KDLDGPGH@weapon_bowcaster?$AA@ 3004cfdc     bg_misc.obj
 0002:00000ff0       ??_C@_0BJ@MODONBMB@gfx?1hud?1w_icon_disruptor?$AA@ 3004cff0     bg_misc.obj
 0002:0000100c       ??_C@_0CI@KNAINLEF@models?1weapons2?1disruptor?1disrup@ 3004d00c     bg_misc.obj
 0002:00001034       ??_C@_0CK@LDOPBIMF@models?1weapons2?1disruptor?1disrup@ 3004d034     bg_misc.obj
 0002:00001060       ??_C@_0BB@EKCEEAKB@weapon_disruptor?$AA@ 3004d060     bg_misc.obj
 0002:00001074       ??_C@_0BH@POPJAOPK@gfx?1hud?1w_icon_blaster?$AA@ 3004d074     bg_misc.obj
 0002:0000108c       ??_C@_0CG@IJILPHPH@models?1weapons2?1blaster_r?1blaste@ 3004d08c     bg_misc.obj
 0002:000010b4       ??_C@_0CI@FHMEJMJP@models?1weapons2?1blaster_r?1blaste@ 3004d0b4     bg_misc.obj
 0002:000010dc       ??_C@_0P@PPIDHAJM@weapon_blaster?$AA@ 3004d0dc     bg_misc.obj
 0002:000010ec       ??_C@_0BF@DIPJPCFF@gfx?1hud?1w_icon_rifle?$AA@ 3004d0ec     bg_misc.obj
 0002:00001104       ??_C@_0CO@LMBDAEMJ@models?1weapons2?1briar_pistol?1bri@ 3004d104     bg_misc.obj
 0002:00001134       ??_C@_0DA@DCLFBBNM@models?1weapons2?1briar_pistol?1bri@ 3004d134     bg_misc.obj
 0002:00001164       ??_C@_0BE@NCEGAEHJ@weapon_bryar_pistol?$AA@ 3004d164     bg_misc.obj
 0002:00001178       ??_C@_0BK@DENAAEJI@gfx?1hud?1w_icon_lightsaber?$AA@ 3004d178     bg_misc.obj
 0002:00001194       ??_C@_0CC@LELHOPDH@models?1weapons2?1saber?1saber_w?4md@ 3004d194     bg_misc.obj
 0002:000011b8       ??_C@_0CC@PBCBCODB@models?1weapons2?1saber?1saber_w?4gl@ 3004d1b8     bg_misc.obj
 0002:000011dc       ??_C@_0N@JIBGHNNO@weapon_saber?$AA@ 3004d1dc     bg_misc.obj
 0002:000011ec       ??_C@_0BJ@JFPGMAAH@gfx?1hud?1w_icon_stunbaton?$AA@ 3004d1ec     bg_misc.obj
 0002:00001208       ??_C@_0CF@INEBKGM@models?1weapons2?1stun_baton?1baton@ 3004d208     bg_misc.obj
 0002:00001230       ??_C@_0CH@BLMKNANE@models?1weapons2?1stun_baton?1baton@ 3004d230     bg_misc.obj
 0002:00001258       ??_C@_0BC@EJEDEKOE@weapon_stun_baton?$AA@ 3004d258     bg_misc.obj
 0002:0000126c       ??_C@_0BE@OEFHDNBF@gfx?1hud?1mpi_ysamari?$AA@ 3004d26c     bg_misc.obj
 0002:00001280       ??_C@_0CE@KCIGBHIN@models?1map_objects?1mp?1ysalimari?4@ 3004d280     bg_misc.obj
 0002:000012a4       ??_C@_0BL@LEFKKCEP@sound?1player?1ysalimari?4wav?$AA@ 3004d2a4     bg_misc.obj
 0002:000012c0       ??_C@_0P@BMGIHJKN@item_ysalimari?$AA@ 3004d2c0     bg_misc.obj
 0002:000012d0       ??_C@_0BC@DEOLDKOL@gfx?1hud?1mpi_fboon?$AA@ 3004d2d0     bg_misc.obj
 0002:000012e4       ??_C@_0CF@JPDLAKMB@models?1map_objects?1mp?1force_boon@ 3004d2e4     bg_misc.obj
 0002:0000130c       ??_C@_0BG@GFIPDGIH@sound?1player?1boon?4wav?$AA@ 3004d30c     bg_misc.obj
 0002:00001324       ??_C@_0BA@HALIIJIE@item_force_boon?$AA@ 3004d324     bg_misc.obj
 0002:00001334       ??_C@_0BE@NFHAGLDO@gfx?1hud?1mpi_dklight?$AA@ 3004d334     bg_misc.obj
 0002:00001348       ??_C@_0CL@IJLGBCPL@models?1map_objects?1mp?1dk_enlight@ 3004d348     bg_misc.obj
 0002:00001374       ??_C@_0BK@JFKBFAGB@item_force_enlighten_dark?$AA@ 3004d374     bg_misc.obj
 0002:00001390       ??_C@_0BD@MPGMMGMB@gfx?1hud?1mpi_jlight?$AA@ 3004d390     bg_misc.obj
 0002:000013a4       ??_C@_0CN@DIMKCGKC@models?1map_objects?1mp?1jedi_enlig@ 3004d3a4     bg_misc.obj
 0002:000013d4       ??_C@_0BP@GFNNPIJO@sound?1player?1enlightenment?4wav?$AA@ 3004d3d4     bg_misc.obj
 0002:000013f4       ??_C@_0BL@MINBJMDE@item_force_enlighten_light?$AA@ 3004d3f4     bg_misc.obj
 0002:00001410       ??_C@_0BJ@JKBMBJCM@gfx?1hud?1i_icon_sentrygun?$AA@ 3004d410     bg_misc.obj
 0002:0000142c       ??_C@_0BH@PFALJFOC@models?1items?1psgun?4glm?$AA@ 3004d42c     bg_misc.obj
 0002:00001444       ??_C@_0BA@HKIJMOIG@item_sentry_gun?$AA@ 3004d444     bg_misc.obj
 0002:00001454       ??_C@_0BE@PKBACEEE@gfx?1hud?1i_icon_zoom?$AA@ 3004d454     bg_misc.obj
 0002:00001468       ??_C@_0BM@HNHCIOH@models?1items?1binoculars?4md3?$AA@ 3004d468     bg_misc.obj
 0002:00001484       ??_C@_0BA@KBLOKIGM@item_binoculars?$AA@ 3004d484     bg_misc.obj
 0002:00001494       ??_C@_0BJ@OMHMNIHD@models?1items?1datapad?4md3?$AA@ 3004d494     bg_misc.obj
 0002:000014b0       ??_C@_0N@JIOKLPEP@item_datapad?$AA@ 3004d4b0     bg_misc.obj
 0002:000014c0       ??_C@_0BF@EDJNGJL@gfx?1hud?1i_icon_bacta?$AA@ 3004d4c0     bg_misc.obj
 0002:000014d8       ??_C@_0CA@COCFAODK@models?1map_objects?1mp?1bacta?4md3?$AA@ 3004d4d8     bg_misc.obj
 0002:000014f8       ??_C@_0M@NLNOFNHL@item_medpac?$AA@ 3004d4f8     bg_misc.obj
 0002:00001508       ??_C@_0KM@PHBHELNF@sound?1weapons?1detpack?1stick?4wav?5@ 3004d508     bg_misc.obj
 0002:000015b4       ??_C@_0BK@OODCPGGP@gfx?1hud?1i_icon_shieldwall?$AA@ 3004d5b4     bg_misc.obj
 0002:000015d0       ??_C@_0CB@EAKHAPIK@models?1map_objects?1mp?1shield?4md3@ 3004d5d0     bg_misc.obj
 0002:000015f4       ??_C@_0M@IIGPMPLO@item_shield?$AA@ 3004d5f4     bg_misc.obj
 0002:00001600       ??_C@_0BG@KANLKHLH@gfx?1hud?1i_icon_seeker?$AA@ 3004d600     bg_misc.obj
 0002:00001618       ??_C@_0BI@PEKMFNBP@models?1items?1remote?4md3?$AA@ 3004d618     bg_misc.obj
 0002:00001630       ??_C@_0BJ@IBMECGJM@sound?1weapons?1w_pkup?4wav?$AA@ 3004d630     bg_misc.obj
 0002:0000164c       ??_C@_0M@CJHMIAK@item_seeker?$AA@ 3004d64c     bg_misc.obj
 0002:00001658       ??_C@_0BG@PFBKDHHG@gfx?1hud?1i_icon_medkit?$AA@ 3004d658     bg_misc.obj
 0002:00001670       ??_C@_0CB@PABPOCJH@models?1map_objects?1mp?1medpac?4md3@ 3004d670     bg_misc.obj
 0002:00001694       ??_C@_0BO@NIGJKPEE@sound?1player?1pickuphealth?4wav?$AA@ 3004d694     bg_misc.obj
 0002:000016b4       ??_C@_0BE@MEFMIHAD@item_medpak_instant?$AA@ 3004d6b4     bg_misc.obj
 0002:000016c8       ??_C@_0BE@JKBNBKPH@gfx?1mp?1large_shield?$AA@ 3004d6c8     bg_misc.obj
 0002:000016dc       ??_C@_0BO@JPJCNECL@models?1map_objects?1mp?1psd?4md3?$AA@ 3004d6dc     bg_misc.obj
 0002:000016fc       ??_C@_0BI@HGJKGJEB@item_shield_lrg_instant?$AA@ 3004d6fc     bg_misc.obj
 0002:00001714       ??_C@_0BE@GPDHMLPP@gfx?1mp?1small_shield?$AA@ 3004d714     bg_misc.obj
 0002:00001728       ??_C@_0CB@FFNAAGJJ@models?1map_objects?1mp?1psd_sm?4md3@ 3004d728     bg_misc.obj
 0002:0000174c       ??_C@_0BO@CHCEMMJK@sound?1player?1pickupshield?4wav?$AA@ 3004d74c     bg_misc.obj
 0002:0000176c       ??_C@_0BH@DINJFPKN@item_shield_sm_instant?$AA@ 3004d76c     bg_misc.obj
 0002:00001783       ??_C@_00CNPNBAHC@?$AA@     3004d783     bg_misc.obj
 0002:00001784       ??_C@_08FEEDNBKC@MASTERY7?$AA@ 3004d784     bg_misc.obj
 0002:00001790       ??_C@_08ENFIOAOD@MASTERY6?$AA@ 3004d790     bg_misc.obj
 0002:0000179c       ??_C@_08GGHFLDCA@MASTERY5?$AA@ 3004d79c     bg_misc.obj
 0002:000017a8       ??_C@_08HPGOICGB@MASTERY4?$AA@ 3004d7a8     bg_misc.obj
 0002:000017b4       ??_C@_08DACPBEKG@MASTERY3?$AA@ 3004d7b4     bg_misc.obj
 0002:000017c0       ??_C@_08CJDECFOH@MASTERY2?$AA@ 3004d7c0     bg_misc.obj
 0002:000017cc       ??_C@_08CBJHGCE@MASTERY1?$AA@ 3004d7cc     bg_misc.obj
 0002:000017d8       ??_C@_08BLACEHGF@MASTERY0?$AA@ 3004d7d8     bg_misc.obj
 0002:000017e4       ??_C@_02IKAHHCAI@?$CFi?$AA@ 3004d7e4     bg_misc.obj
 0002:000017e8       __real@43870000            3004d7e8     bg_misc.obj
 0002:000017ec       __real@42b40000            3004d7ec     bg_misc.obj
 0002:000017f0       __real@43b40000            3004d7f0     bg_misc.obj
 0002:000017f8       __real@404ca5dc0d03cf25    3004d7f8     bg_misc.obj
 0002:00001800       __real@00000000            3004d800     bg_misc.obj
 0002:00001804       ??_C@_0BH@MFGKJDLM@HoldableItem?5not?5found?$AA@ 3004d804     bg_misc.obj
 0002:0000181c       ??_C@_0BM@NECGLAIF@BG_CanItemBeGrabbed?3?5IT_BAD?$AA@ 3004d81c     bg_misc.obj
 0002:00001838       ??_C@_0CI@MFONMA@BG_CanItemBeGrabbed?3?5index?5out?5o@ 3004d838     bg_misc.obj
 0002:00001860       ??_C@_0DM@PPIGHFEL@BG_EvaluateTrajectory?3?5?$FLCLIENTGA@ 3004d860     bg_misc.obj
 0002:000018a0       __real@4079000000000000    3004d8a0     bg_misc.obj
 0002:000018a8       __real@40c90fdb            3004d8a8     bg_misc.obj
 0002:000018b0       __real@3f50624dd2f1a9fc    3004d8b0     bg_misc.obj
 0002:000018b8       ??_C@_0CP@MCFPOIMF@BG_EvaluateTrajectoryDelta?3?5unkn@ 3004d8b8     bg_misc.obj
 0002:000018e8       __real@44480000            3004d8e8     bg_misc.obj
 0002:000018f0       __real@3fe0000000000000    3004d8f0     bg_misc.obj
 0002:000018f8       __real@c2100000            3004d8f8     bg_misc.obj
 0002:000018fc       __real@42100000            3004d8fc     bg_misc.obj
 0002:00001900       __real@c2480000            3004d900     bg_misc.obj
 0002:00001904       __real@42300000            3004d904     bg_misc.obj
 0002:00001908       ??_C@_09OODFOJKI@FACE_DEAD?$AA@ 3004d908     bg_panimate.obj
 0002:00001914       ??_C@_0L@NHKOPMDL@FACE_FROWN?$AA@ 3004d914     bg_panimate.obj
 0002:00001920       ??_C@_0L@LAOJKFMG@FACE_SMILE?$AA@ 3004d920     bg_panimate.obj
 0002:0000192c       ??_C@_0L@MMCADNDE@FACE_ALERT?$AA@ 3004d92c     bg_panimate.obj
 0002:00001938       ??_C@_0L@GMKJNGHP@FACE_TALK4?$AA@ 3004d938     bg_panimate.obj
 0002:00001944       ??_C@_0L@CDOIEALI@FACE_TALK3?$AA@ 3004d944     bg_panimate.obj
 0002:00001950       ??_C@_0L@DKPDHBPJ@FACE_TALK2?$AA@ 3004d950     bg_panimate.obj
 0002:0000195c       ??_C@_0L@BBNOCCDK@FACE_TALK1?$AA@ 3004d95c     bg_panimate.obj
 0002:00001968       ??_C@_0N@NDGAKFIC@LEGS_S5_RUP5?$AA@ 3004d968     bg_panimate.obj
 0002:00001978       ??_C@_0N@MKHLJEMD@LEGS_S5_RUP4?$AA@ 3004d978     bg_panimate.obj
 0002:00001988       ??_C@_0N@IFDKACAE@LEGS_S5_RUP3?$AA@ 3004d988     bg_panimate.obj
 0002:00001998       ??_C@_0N@JMCBDDEF@LEGS_S5_RUP2?$AA@ 3004d998     bg_panimate.obj
 0002:000019a8       ??_C@_0N@LHAMGAIG@LEGS_S5_RUP1?$AA@ 3004d9a8     bg_panimate.obj
 0002:000019b8       ??_C@_0N@MLAIMGB@LEGS_S5_LUP5?$AA@ 3004d9b8     bg_panimate.obj
 0002:000019c8       ??_C@_0N@BFKLLNCA@LEGS_S5_LUP4?$AA@ 3004d9c8     bg_panimate.obj
 0002:000019d8       ??_C@_0N@FKOKCLOH@LEGS_S5_LUP3?$AA@ 3004d9d8     bg_panimate.obj
 0002:000019e8       ??_C@_0N@EDPBBKKG@LEGS_S5_LUP2?$AA@ 3004d9e8     bg_panimate.obj
 0002:000019f8       ??_C@_0N@GINMEJGF@LEGS_S5_LUP1?$AA@ 3004d9f8     bg_panimate.obj
 0002:00001a08       ??_C@_0N@HFBHKODG@LEGS_S4_RUP5?$AA@ 3004da08     bg_panimate.obj
 0002:00001a18       ??_C@_0N@GMAMJPHH@LEGS_S4_RUP4?$AA@ 3004da18     bg_panimate.obj
 0002:00001a28       ??_C@_0N@CDENAJLA@LEGS_S4_RUP3?$AA@ 3004da28     bg_panimate.obj
 0002:00001a38       ??_C@_0N@DKFGDIPB@LEGS_S4_RUP2?$AA@ 3004da38     bg_panimate.obj
 0002:00001a48       ??_C@_0N@BBHLGLDC@LEGS_S4_RUP1?$AA@ 3004da48     bg_panimate.obj
 0002:00001a58       ??_C@_0N@KKMHIHNF@LEGS_S4_LUP5?$AA@ 3004da58     bg_panimate.obj
 0002:00001a68       ??_C@_0N@LDNMLGJE@LEGS_S4_LUP4?$AA@ 3004da68     bg_panimate.obj
 0002:00001a78       ??_C@_0N@PMJNCAFD@LEGS_S4_LUP3?$AA@ 3004da78     bg_panimate.obj
 0002:00001a88       ??_C@_0N@OFIGBBBC@LEGS_S4_LUP2?$AA@ 3004da88     bg_panimate.obj
 0002:00001a98       ??_C@_0N@MOKLECNB@LEGS_S4_LUP1?$AA@ 3004da98     bg_panimate.obj
 0002:00001aa8       ??_C@_0N@LALAJALI@LEGS_S3_RUP5?$AA@ 3004daa8     bg_panimate.obj
 0002:00001ab8       ??_C@_0N@KJKLKBPJ@LEGS_S3_RUP4?$AA@ 3004dab8     bg_panimate.obj
 0002:00001ac8       ??_C@_0N@OGOKDHDO@LEGS_S3_RUP3?$AA@ 3004dac8     bg_panimate.obj
 0002:00001ad8       ??_C@_0N@PPPBAGHP@LEGS_S3_RUP2?$AA@ 3004dad8     bg_panimate.obj
 0002:00001ae8       ??_C@_0N@NENMFFLM@LEGS_S3_RUP1?$AA@ 3004dae8     bg_panimate.obj
 0002:00001af8       ??_C@_0N@GPGALJFL@LEGS_S3_LUP5?$AA@ 3004daf8     bg_panimate.obj
 0002:00001b08       ??_C@_0N@HGHLIIBK@LEGS_S3_LUP4?$AA@ 3004db08     bg_panimate.obj
 0002:00001b18       ??_C@_0N@DJDKBONN@LEGS_S3_LUP3?$AA@ 3004db18     bg_panimate.obj
 0002:00001b28       ??_C@_0N@CACBCPJM@LEGS_S3_LUP2?$AA@ 3004db28     bg_panimate.obj
 0002:00001b38       ??_C@_0N@LAMHMFP@LEGS_S3_LUP1?$AA@ 3004db38     bg_panimate.obj
 0002:00001b48       ??_C@_0N@CHCPIBJB@LEGS_S1_RUP5?$AA@ 3004db48     bg_panimate.obj
 0002:00001b58       ??_C@_0N@DODELANA@LEGS_S1_RUP4?$AA@ 3004db58     bg_panimate.obj
 0002:00001b68       ??_C@_0N@HBHFCGBH@LEGS_S1_RUP3?$AA@ 3004db68     bg_panimate.obj
 0002:00001b78       ??_C@_0N@GIGOBHFG@LEGS_S1_RUP2?$AA@ 3004db78     bg_panimate.obj
 0002:00001b88       ??_C@_0N@EDEDEEJF@LEGS_S1_RUP1?$AA@ 3004db88     bg_panimate.obj
 0002:00001b98       ??_C@_0N@PIPPKIHC@LEGS_S1_LUP5?$AA@ 3004db98     bg_panimate.obj
 0002:00001ba8       ??_C@_0N@OBOEJJDD@LEGS_S1_LUP4?$AA@ 3004dba8     bg_panimate.obj
 0002:00001bb8       ??_C@_0N@KOKFAPPE@LEGS_S1_LUP3?$AA@ 3004dbb8     bg_panimate.obj
 0002:00001bc8       ??_C@_0N@LHLODOLF@LEGS_S1_LUP2?$AA@ 3004dbc8     bg_panimate.obj
 0002:00001bd8       ??_C@_0N@JMJDGNHG@LEGS_S1_LUP1?$AA@ 3004dbd8     bg_panimate.obj
 0002:00001be8       ??_C@_0O@PPAOPDJO@LEGS_RIGHTUP5?$AA@ 3004dbe8     bg_panimate.obj
 0002:00001bf8       ??_C@_0O@OGBFMCNP@LEGS_RIGHTUP4?$AA@ 3004dbf8     bg_panimate.obj
 0002:00001c08       ??_C@_0O@KJFEFEBI@LEGS_RIGHTUP3?$AA@ 3004dc08     bg_panimate.obj
 0002:00001c18       ??_C@_0O@LAEPGFFJ@LEGS_RIGHTUP2?$AA@ 3004dc18     bg_panimate.obj
 0002:00001c28       ??_C@_0O@JLGCDGJK@LEGS_RIGHTUP1?$AA@ 3004dc28     bg_panimate.obj
 0002:00001c38       ??_C@_0N@DBAKPANN@LEGS_LEFTUP5?$AA@ 3004dc38     bg_panimate.obj
 0002:00001c48       ??_C@_0N@CIBBMBJM@LEGS_LEFTUP4?$AA@ 3004dc48     bg_panimate.obj
 0002:00001c58       ??_C@_0N@GHFAFHFL@LEGS_LEFTUP3?$AA@ 3004dc58     bg_panimate.obj
 0002:00001c68       ??_C@_0N@HOELGGBK@LEGS_LEFTUP2?$AA@ 3004dc68     bg_panimate.obj
 0002:00001c78       ??_C@_0N@FFGGDFNJ@LEGS_LEFTUP1?$AA@ 3004dc78     bg_panimate.obj
 0002:00001c88       ??_C@_0O@FPAJGKKH@LEGS_CHOKING1?$AA@ 3004dc88     bg_panimate.obj
 0002:00001c98       ??_C@_0BD@DIMFAFBM@LEGS_CRLEAN_RIGHT1?$AA@ 3004dc98     bg_panimate.obj
 0002:00001cac       ??_C@_0BC@FDPPEOB@LEGS_CRLEAN_LEFT1?$AA@ 3004dcac     bg_panimate.obj
 0002:00001cc0       ??_C@_0O@OKFFBFBN@LEGS_KNEELUP1?$AA@ 3004dcc0     bg_panimate.obj
 0002:00001cd0       ??_C@_0BA@BKJPLMGI@LEGS_KNEELDOWN1?$AA@ 3004dcd0     bg_panimate.obj
 0002:00001ce0       ??_C@_0BB@HCNNJMLM@LEGS_LEAN_RIGHT1?$AA@ 3004dce0     bg_panimate.obj
 0002:00001cf4       ??_C@_0BA@MCADBFIF@LEGS_LEAN_LEFT1?$AA@ 3004dcf4     bg_panimate.obj
 0002:00001d04       ??_C@_0L@BFOCDDKC@LEGS_TURN2?$AA@ 3004dd04     bg_panimate.obj
 0002:00001d10       ??_C@_0L@DOMPGAGB@LEGS_TURN1?$AA@ 3004dd10     bg_panimate.obj
 0002:00001d1c       ??_C@_0O@GCFJHLKI@LEGS_RUNBACK2?$AA@ 3004dd1c     bg_panimate.obj
 0002:00001d2c       ??_C@_0O@EJHECIGL@LEGS_RUNBACK1?$AA@ 3004dd2c     bg_panimate.obj
 0002:00001d3c       ??_C@_0P@JHGHOGLJ@LEGS_WALKBACK2?$AA@ 3004dd3c     bg_panimate.obj
 0002:00001d4c       ??_C@_0P@LMEKLFHK@LEGS_WALKBACK1?$AA@ 3004dd4c     bg_panimate.obj
 0002:00001d5c       ??_C@_0P@EDGDJEAA@TORSO_CHOKING1?$AA@ 3004dd5c     bg_panimate.obj
 0002:00001d6c       ??_C@_0BF@CAMHOBIG@TORSO_SURRENDER_STOP?$AA@ 3004dd6c     bg_panimate.obj
 0002:00001d84       ??_C@_0BG@DJHHNKPJ@TORSO_SURRENDER_START?$AA@ 3004dd84     bg_panimate.obj
 0002:00001d9c       ??_C@_0BB@MNDCEAKF@TORSO_GRABUBACKR?$AA@ 3004dd9c     bg_panimate.obj
 0002:00001db0       ??_C@_0BB@DPHEJJLI@TORSO_GRABLBACKR?$AA@ 3004ddb0     bg_panimate.obj
 0002:00001dc4       ??_C@_0BB@BJHDHPHK@TORSO_GRABUBACKL?$AA@ 3004ddc4     bg_panimate.obj
 0002:00001dd8       ??_C@_0BB@OLDFKGGH@TORSO_GRABLBACKL?$AA@ 3004ddd8     bg_panimate.obj
 0002:00001dec       ??_C@_0BD@LNPGIKPK@TORSO_REACHHELMET1?$AA@ 3004ddec     bg_panimate.obj
 0002:00001e00       ??_C@_0BD@NCNCDGHP@TORSO_RAISEHELMET1?$AA@ 3004de00     bg_panimate.obj
 0002:00001e14       ??_C@_0BC@EOKIFGGL@TORSO_DROPHELMET1?$AA@ 3004de14     bg_panimate.obj
 0002:00001e28       ??_C@_0BD@PLIJAFLE@TORSO_HANDRETRACT1?$AA@ 3004de28     bg_panimate.obj
 0002:00001e3c       ??_C@_0BC@OLIGMGPK@TORSO_HANDEXTEND1?$AA@ 3004de3c     bg_panimate.obj
 0002:00001e50       ??_C@_0BD@BDHGODKD@TORSO_HANDGESTURE4?$AA@ 3004de50     bg_panimate.obj
 0002:00001e64       ??_C@_0BD@FMDHHFGE@TORSO_HANDGESTURE3?$AA@ 3004de64     bg_panimate.obj
 0002:00001e78       ??_C@_0BD@EFCMEECF@TORSO_HANDGESTURE2?$AA@ 3004de78     bg_panimate.obj
 0002:00001e8c       ??_C@_0BD@GOABBHOG@TORSO_HANDGESTURE1?$AA@ 3004de8c     bg_panimate.obj
 0002:00001ea0       ??_C@_0BD@LNOMPMON@TORSO_WEAPONIDLE12?$AA@ 3004dea0     bg_panimate.obj
 0002:00001eb4       ??_C@_0BD@JGMBKPCO@TORSO_WEAPONIDLE11?$AA@ 3004deb4     bg_panimate.obj
 0002:00001ec8       ??_C@_0BD@IPNKJOGP@TORSO_WEAPONIDLE10?$AA@ 3004dec8     bg_panimate.obj
 0002:00001edc       ??_C@_0BC@FBAACKHI@TORSO_WEAPONIDLE9?$AA@ 3004dedc     bg_panimate.obj
 0002:00001ef0       ??_C@_0BC@EIBLBLDJ@TORSO_WEAPONIDLE8?$AA@ 3004def0     bg_panimate.obj
 0002:00001f04       ??_C@_0BC@MPIDAHPG@TORSO_WEAPONIDLE7?$AA@ 3004df04     bg_panimate.obj
 0002:00001f18       ??_C@_0BC@NGJIDGLH@TORSO_WEAPONIDLE6?$AA@ 3004df18     bg_panimate.obj
 0002:00001f2c       ??_C@_0BC@PNLFGFHE@TORSO_WEAPONIDLE5?$AA@ 3004df2c     bg_panimate.obj
 0002:00001f40       ??_C@_0BC@OEKOFEDF@TORSO_WEAPONIDLE4?$AA@ 3004df40     bg_panimate.obj
 0002:00001f54       ??_C@_0BC@KLOPMCPC@TORSO_WEAPONIDLE3?$AA@ 3004df54     bg_panimate.obj
 0002:00001f68       ??_C@_0BC@LCPEPDLD@TORSO_WEAPONIDLE2?$AA@ 3004df68     bg_panimate.obj
 0002:00001f7c       ??_C@_0BC@JJNJKAHA@TORSO_WEAPONIDLE1?$AA@ 3004df7c     bg_panimate.obj
 0002:00001f90       ??_C@_0BE@MJPKFLFK@TORSO_WEAPONREADY12?$AA@ 3004df90     bg_panimate.obj
 0002:00001fa4       ??_C@_0BE@OCNHAIJJ@TORSO_WEAPONREADY11?$AA@ 3004dfa4     bg_panimate.obj
 0002:00001fb8       ??_C@_0BE@PLMMDJNI@TORSO_WEAPONREADY10?$AA@ 3004dfb8     bg_panimate.obj
 0002:00001fcc       ??_C@_0BD@PGHFAHPL@TORSO_WEAPONREADY9?$AA@ 3004dfcc     bg_panimate.obj
 0002:00001fe0       ??_C@_0BD@OPGODGLK@TORSO_WEAPONREADY8?$AA@ 3004dfe0     bg_panimate.obj
 0002:00001ff4       ??_C@_0BD@GIPGCKHF@TORSO_WEAPONREADY7?$AA@ 3004dff4     bg_panimate.obj
 0002:00002008       ??_C@_0BD@HBONBLDE@TORSO_WEAPONREADY6?$AA@ 3004e008     bg_panimate.obj
 0002:0000201c       ??_C@_0BD@FKMAEIPH@TORSO_WEAPONREADY5?$AA@ 3004e01c     bg_panimate.obj
 0002:00002030       ??_C@_0BD@EDNLHJLG@TORSO_WEAPONREADY4?$AA@ 3004e030     bg_panimate.obj
 0002:00002044       ??_C@_0BD@MJKOPHB@TORSO_WEAPONREADY3?$AA@ 3004e044     bg_panimate.obj
 0002:00002058       ??_C@_0BD@BFIBNODA@TORSO_WEAPONREADY2?$AA@ 3004e058     bg_panimate.obj
 0002:0000206c       ??_C@_0BD@DOKMINPD@TORSO_WEAPONREADY1?$AA@ 3004e06c     bg_panimate.obj
 0002:00002080       ??_C@_0BB@JNFLGAHH@TORSO_RAISEWEAP4?$AA@ 3004e080     bg_panimate.obj
 0002:00002094       ??_C@_0BB@NCBKPGLA@TORSO_RAISEWEAP3?$AA@ 3004e094     bg_panimate.obj
 0002:000020a8       ??_C@_0BB@MLABMHPB@TORSO_RAISEWEAP2?$AA@ 3004e0a8     bg_panimate.obj
 0002:000020bc       ??_C@_0BB@OACMJEDC@TORSO_RAISEWEAP1?$AA@ 3004e0bc     bg_panimate.obj
 0002:000020d0       ??_C@_0BA@CHPACHPA@TORSO_DROPWEAP4?$AA@ 3004e0d0     bg_panimate.obj
 0002:000020e0       ??_C@_0BA@GILBLBDH@TORSO_DROPWEAP3?$AA@ 3004e0e0     bg_panimate.obj
 0002:000020f0       ??_C@_0BA@HBKKIAHG@TORSO_DROPWEAP2?$AA@ 3004e0f0     bg_panimate.obj
 0002:00002100       ??_C@_0BA@FKIHNDLF@TORSO_DROPWEAP1?$AA@ 3004e100     bg_panimate.obj
 0002:00002110       ??_C@_0BI@DCDDEMOD@BOTH_COCKPIT_SLEEP6STOP?$AA@ 3004e110     bg_panimate.obj
 0002:00002128       ??_C@_0BJ@ELNLLID@BOTH_COCKPIT_SLEEP6START?$AA@ 3004e128     bg_panimate.obj
 0002:00002144       ??_C@_0BP@HFDMIIFN@BOTH_COCKPIT_TALKGESTURE11STOP?$AA@ 3004e144     bg_panimate.obj
 0002:00002164       ??_C@_0CA@CICDCKMM@BOTH_COCKPIT_TALKGESTURE11START?$AA@ 3004e164     bg_panimate.obj
 0002:00002184       ??_C@_0BO@LJEDJPGF@BOTH_COCKPIT_TALKGESTURE8STOP?$AA@ 3004e184     bg_panimate.obj
 0002:000021a4       ??_C@_0BP@ONONEF@BOTH_COCKPIT_TALKGESTURE8START?$AA@ 3004e1a4     bg_panimate.obj
 0002:000021c4       ??_C@_0BO@EIBFCNLA@BOTH_COCKPIT_TALKGESTURE7STOP?$AA@ 3004e1c4     bg_panimate.obj
 0002:000021e4       ??_C@_0BP@PGKFJNKM@BOTH_COCKPIT_TALKGESTURE7START?$AA@ 3004e1e4     bg_panimate.obj
 0002:00002204       ??_C@_0BL@NKLPANDC@BOTH_COCKPIT_HEADTILTRSTOP?$AA@ 3004e204     bg_panimate.obj
 0002:00002220       ??_C@_0BM@PFIBNFIA@BOTH_COCKPIT_HEADTILTRSTART?$AA@ 3004e220     bg_panimate.obj
 0002:0000223c       ??_C@_0BL@ODGDGONJ@BOTH_COCKPIT_HEADTILTLSTOP?$AA@ 3004e23c     bg_panimate.obj
 0002:00002258       ??_C@_0BM@MCGADCBD@BOTH_COCKPIT_HEADTILTLSTART?$AA@ 3004e258     bg_panimate.obj
 0002:00002274       ??_C@_0BH@GGICHAB@BOTH_COCKPIT_HEADSHAKE?$AA@ 3004e274     bg_panimate.obj
 0002:0000228c       ??_C@_0BF@BCMFHFDC@BOTH_COCKPIT_HEADNOD?$AA@ 3004e28c     bg_panimate.obj
 0002:000022a4       ??_C@_0BO@HIOOCKLJ@BOTH_COCKPIT_CONSOLE2_PARTIAL?$AA@ 3004e2a4     bg_panimate.obj
 0002:000022c4       ??_C@_0BG@PAKMOMDC@BOTH_COCKPIT_CONSOLE2?$AA@ 3004e2c4     bg_panimate.obj
 0002:000022dc       ??_C@_0BG@NLIBLPPB@BOTH_COCKPIT_CONSOLE1?$AA@ 3004e2dc     bg_panimate.obj
 0002:000022f4       ??_C@_0BE@CKAJAHIN@BOTH_COCKPIT_TALKL1?$AA@ 3004e2f4     bg_panimate.obj
 0002:00002308       ??_C@_0BN@MJOHLHID@BOTH_COCKPIT_TALKL1MIDTOSTOP?$AA@ 3004e308     bg_panimate.obj
 0002:00002328       ??_C@_0BN@MPBJKAJC@BOTH_COCKPIT_TALKL1STOPTOMID?$AA@ 3004e328     bg_panimate.obj
 0002:00002348       ??_C@_0BI@OKKELALL@BOTH_COCKPIT_TALKL1STOP?$AA@ 3004e348     bg_panimate.obj
 0002:00002360       ??_C@_0BO@EJPEAOCA@BOTH_COCKPIT_TALKL1MIDTOSTART?$AA@ 3004e360     bg_panimate.obj
 0002:00002380       ??_C@_0BO@JEFHBIBK@BOTH_COCKPIT_TALKL1STARTTOMID?$AA@ 3004e380     bg_panimate.obj
 0002:000023a0       ??_C@_0BJ@GBNFPFLJ@BOTH_COCKPIT_TALKL1START?$AA@ 3004e3a0     bg_panimate.obj
 0002:000023bc       ??_C@_0BE@DMLBIJPH@BOTH_COCKPIT_TALKR1?$AA@ 3004e3bc     bg_panimate.obj
 0002:000023d0       ??_C@_0BN@CMMOIJGB@BOTH_COCKPIT_TALKR1MIDTOSTOP?$AA@ 3004e3d0     bg_panimate.obj
 0002:000023f0       ??_C@_0BN@CKDAJOHA@BOTH_COCKPIT_TALKR1STOPTOMID?$AA@ 3004e3f0     bg_panimate.obj
 0002:00002410       ??_C@_0BI@NNEFFHCI@BOTH_COCKPIT_TALKR1STOP?$AA@ 3004e410     bg_panimate.obj
 0002:00002428       ??_C@_0BO@HBFKEEK@BOTH_COCKPIT_TALKR1MIDTOSTART?$AA@ 3004e428     bg_panimate.obj
 0002:00002448       ??_C@_0BO@NKLGLCHA@BOTH_COCKPIT_TALKR1STARTTOMID?$AA@ 3004e448     bg_panimate.obj
 0002:00002468       ??_C@_0BJ@IOENGKA@BOTH_COCKPIT_TALKR1START?$AA@ 3004e468     bg_panimate.obj
 0002:00002484       ??_C@_0L@GCDIADMB@BOTH_TOSS2?$AA@ 3004e484     bg_panimate.obj
 0002:00002490       ??_C@_0L@EJBFFAAC@BOTH_TOSS1?$AA@ 3004e490     bg_panimate.obj
 0002:0000249c       ??_C@_0BH@JFCMGCAP@BOTH_FORCEGRIP_RELEASE?$AA@ 3004e49c     bg_panimate.obj
 0002:000024b4       ??_C@_0BE@JLIMFCGH@BOTH_FORCEGRIP_HOLD?$AA@ 3004e4b4     bg_panimate.obj
 0002:000024c8       ??_C@_0BF@BAAGEEBG@BOTH_FORCEGRIP3THROW?$AA@ 3004e4c8     bg_panimate.obj
 0002:000024e0       ??_C@_0BA@CBKDJPAH@BOTH_FORCEGRIP3?$AA@ 3004e4e0     bg_panimate.obj
 0002:000024f0       ??_C@_0BA@BDJFPNIF@BOTH_FORCEGRIP1?$AA@ 3004e4f0     bg_panimate.obj
 0002:00002500       ??_C@_0P@PONJILD@BOTH_SABERPULL?$AA@ 3004e500     bg_panimate.obj
 0002:00002510       ??_C@_0BF@DKJODMIL@BOTH_FORCEHEAL_QUICK?$AA@ 3004e510     bg_panimate.obj
 0002:00002528       ??_C@_0BE@GNHNNEFM@BOTH_FORCEHEAL_STOP?$AA@ 3004e528     bg_panimate.obj
 0002:0000253c       ??_C@_0BF@FPDMFLAG@BOTH_FORCEHEAL_START?$AA@ 3004e53c     bg_panimate.obj
 0002:00002554       ??_C@_0BM@GCBAKCPL@BOTH_FORCELIGHTNING_RELEASE?$AA@ 3004e554     bg_panimate.obj
 0002:00002570       ??_C@_0BJ@KCFBGHIB@BOTH_FORCELIGHTNING_HOLD?$AA@ 3004e570     bg_panimate.obj
 0002:0000258c       ??_C@_0BK@NACKCJFF@BOTH_FORCELIGHTNING_START?$AA@ 3004e58c     bg_panimate.obj
 0002:000025a8       ??_C@_0BE@OEAHGILF@BOTH_FORCELIGHTNING?$AA@ 3004e5a8     bg_panimate.obj
 0002:000025bc       ??_C@_0BA@KMPKOPAN@BOTH_MINDTRICK2?$AA@ 3004e5bc     bg_panimate.obj
 0002:000025cc       ??_C@_0BA@IHNHLMMO@BOTH_MINDTRICK1?$AA@ 3004e5cc     bg_panimate.obj
 0002:000025dc       ??_C@_0P@HBADPLP@BOTH_FORCEPULL?$AA@ 3004e5dc     bg_panimate.obj
 0002:000025ec       ??_C@_0P@HEAGBOPG@BOTH_FORCEPUSH?$AA@ 3004e5ec     bg_panimate.obj
 0002:000025fc       ??_C@_0BA@IBNLMMOO@BOTH_RESISTPUSH?$AA@ 3004e5fc     bg_panimate.obj
 0002:0000260c       ??_C@_0BE@BFLOBGOL@BOTH_BUTTON_RELEASE?$AA@ 3004e60c     bg_panimate.obj
 0002:00002620       ??_C@_0BB@FCMBEPCD@BOTH_BUTTON_HOLD?$AA@ 3004e620     bg_panimate.obj
 0002:00002634       ??_C@_0N@JDJGEOPD@BOTH_BUTTON2?$AA@ 3004e634     bg_panimate.obj
 0002:00002644       ??_C@_0N@LILLBNDA@BOTH_BUTTON1?$AA@ 3004e644     bg_panimate.obj
 0002:00002654       ??_C@_0N@JAALPHCL@BOTH_TURNOFF?$AA@ 3004e654     bg_panimate.obj
 0002:00002664       ??_C@_0M@ODIMNEKC@BOTH_TURNON?$AA@ 3004e664     bg_panimate.obj
 0002:00002670       ??_C@_0O@CAGOCCAO@BOTH_POWERUP1?$AA@ 3004e670     bg_panimate.obj
 0002:00002680       ??_C@_0M@MGBFEGML@BOTH_CHOKE3?$AA@ 3004e680     bg_panimate.obj
 0002:0000268c       ??_C@_0M@NPAOHHIK@BOTH_CHOKE2?$AA@ 3004e68c     bg_panimate.obj
 0002:00002698       ??_C@_0M@PECDCEEJ@BOTH_CHOKE1?$AA@ 3004e698     bg_panimate.obj
 0002:000026a4       ??_C@_0BF@ICMFFJIF@BOTH_CHOKE1STARTHOLD?$AA@ 3004e6a4     bg_panimate.obj
 0002:000026bc       ??_C@_0BB@OFKGJANF@BOTH_CHOKE1START?$AA@ 3004e6bc     bg_panimate.obj
 0002:000026d0       ??_C@_0O@JLGJPKGP@BOTH_CARRIED2?$AA@ 3004e6d0     bg_panimate.obj
 0002:000026e0       ??_C@_0O@LAEEKJKM@BOTH_CARRIED1?$AA@ 3004e6e0     bg_panimate.obj
 0002:000026f0       ??_C@_0N@CBHLDPJK@BOTH_LIFTED1?$AA@ 3004e6f0     bg_panimate.obj
 0002:00002700       ??_C@_0BG@JBBKNHBI@BOTH_RESTRAINED1POINT?$AA@ 3004e700     bg_panimate.obj
 0002:00002718       ??_C@_0BB@GKCMABDH@BOTH_RESTRAINED1?$AA@ 3004e718     bg_panimate.obj
 0002:0000272c       ??_C@_0BC@EEDLHCOJ@BOTH_SLEEP2_SHIFT?$AA@ 3004e72c     bg_panimate.obj
 0002:00002740       ??_C@_0BB@FNIKALPD@BOTH_SLEEP1_NOSE?$AA@ 3004e740     bg_panimate.obj
 0002:00002754       ??_C@_0BB@CFAGPNPH@BOTH_SLEEP_IDLE4?$AA@ 3004e754     bg_panimate.obj
 0002:00002768       ??_C@_0BB@GKEHGLDA@BOTH_SLEEP_IDLE3?$AA@ 3004e768     bg_panimate.obj
 0002:0000277c       ??_C@_0BB@HDFMFKHB@BOTH_SLEEP_IDLE2?$AA@ 3004e77c     bg_panimate.obj
 0002:00002790       ??_C@_0BB@FIHBAJLC@BOTH_SLEEP_IDLE1?$AA@ 3004e790     bg_panimate.obj
 0002:000027a4       ??_C@_0BA@GGECGNOA@BOTH_SLEEP3DEAD?$AA@ 3004e7a4     bg_panimate.obj
 0002:000027b4       ??_C@_0BB@IEOKMGGI@BOTH_SLEEP3DEATH?$AA@ 3004e7b4     bg_panimate.obj
 0002:000027c8       ??_C@_0BB@OGGAOBAF@BOTH_SLEEP3GETUP?$AA@ 3004e7c8     bg_panimate.obj
 0002:000027dc       ??_C@_0BB@EABHOKLB@BOTH_SLEEP2GETUP?$AA@ 3004e7dc     bg_panimate.obj
 0002:000027f0       ??_C@_0BC@NPNJMHGC@BOTH_SLEEP1GETUP2?$AA@ 3004e7f0     bg_panimate.obj
 0002:00002804       ??_C@_0BB@HBPPPACM@BOTH_SLEEP1GETUP?$AA@ 3004e804     bg_panimate.obj
 0002:00002818       ??_C@_0BA@CINKHNGE@BOTH_SLEEP6STOP?$AA@ 3004e818     bg_panimate.obj
 0002:00002828       ??_C@_0BB@HHHLEEDB@BOTH_SLEEP6START?$AA@ 3004e828     bg_panimate.obj
 0002:0000283c       ??_C@_0M@NMICDBJM@BOTH_SLEEP5?$AA@ 3004e83c     bg_panimate.obj
 0002:00002848       ??_C@_0M@MFJJAANN@BOTH_SLEEP4?$AA@ 3004e848     bg_panimate.obj
 0002:00002854       ??_C@_0M@IKNIJGBK@BOTH_SLEEP3?$AA@ 3004e854     bg_panimate.obj
 0002:00002860       ??_C@_0M@JDMDKHFL@BOTH_SLEEP2?$AA@ 3004e860     bg_panimate.obj
 0002:0000286c       ??_C@_0M@LIOOPEJI@BOTH_SLEEP1?$AA@ 3004e86c     bg_panimate.obj
 0002:00002878       ??_C@_0O@LPBHABBC@BOTH_SITWALL1?$AA@ 3004e878     bg_panimate.obj
 0002:00002888       ??_C@_0BA@EAPFIPDN@BOTH_CRAWLBACK1?$AA@ 3004e888     bg_panimate.obj
 0002:00002898       ??_C@_0N@PGAPHIPB@BOTH_PROPUP1?$AA@ 3004e898     bg_panimate.obj
 0002:000028a8       ??_C@_0BF@DHMNIMFG@BOTH_INJUREDTOSTAND1?$AA@ 3004e8a8     bg_panimate.obj
 0002:000028c0       ??_C@_0BD@EOIBICEA@BOTH_INJURED6POINT?$AA@ 3004e8c0     bg_panimate.obj
 0002:000028d4       ??_C@_0BG@LBPNKJLA@BOTH_INJURED6COMBADGE?$AA@ 3004e8d4     bg_panimate.obj
 0002:000028ec       ??_C@_0BI@JIHAABPD@BOTH_INJURED6ATTACKSTOP?$AA@ 3004e8ec     bg_panimate.obj
 0002:00002904       ??_C@_0BJ@BJKAOIKK@BOTH_INJURED6ATTACKSTART?$AA@ 3004e904     bg_panimate.obj
 0002:00002920       ??_C@_0O@ONAPODNL@BOTH_INJURED6?$AA@ 3004e920     bg_panimate.obj
 0002:00002930       ??_C@_0O@JAHIBHJO@BOTH_INJURED3?$AA@ 3004e930     bg_panimate.obj
 0002:00002940       ??_C@_0O@IJGDCGNP@BOTH_INJURED2?$AA@ 3004e940     bg_panimate.obj
 0002:00002950       ??_C@_0O@KCEOHFBM@BOTH_INJURED1?$AA@ 3004e950     bg_panimate.obj
 0002:00002960       ??_C@_0P@PKMEHCFI@BOTH_WRITHING2?$AA@ 3004e960     bg_panimate.obj
 0002:00002970       ??_C@_0BD@KIAOCELB@BOTH_WRITHING1LLEG?$AA@ 3004e970     bg_panimate.obj
 0002:00002984       ??_C@_0BD@HHNOANFC@BOTH_WRITHING1RLEG?$AA@ 3004e984     bg_panimate.obj
 0002:00002998       ??_C@_0P@NBOJCBJL@BOTH_WRITHING1?$AA@ 3004e998     bg_panimate.obj
 0002:000029a8       ??_C@_0BA@JBGFLDOK@BOTH_PRONE2LLEG?$AA@ 3004e9a8     bg_panimate.obj
 0002:000029b8       ??_C@_0BA@EOLFJKAJ@BOTH_PRONE2RLEG?$AA@ 3004e9b8     bg_panimate.obj
 0002:000029c8       ??_C@_0BC@LLMAANGE@BOTH_PAIN2WRITHE1?$AA@ 3004e9c8     bg_panimate.obj
 0002:000029dc       ??_C@_0P@JNOOLCFO@BOTH_LIE_DOWN3?$AA@ 3004e9dc     bg_panimate.obj
 0002:000029ec       ??_C@_0P@IEPFIDBP@BOTH_LIE_DOWN2?$AA@ 3004e9ec     bg_panimate.obj
 0002:000029fc       ??_C@_0P@KPNINANM@BOTH_LIE_DOWN1?$AA@ 3004e9fc     bg_panimate.obj
 0002:00002a0c       ??_C@_0BB@FOFCFDFI@BOTH_SWIMFORWARD?$AA@ 3004ea0c     bg_panimate.obj
 0002:00002a20       ??_C@_0BA@PIGFMLPF@BOTH_SWIM_IDLE1?$AA@ 3004ea20     bg_panimate.obj
 0002:00002a30       ??_C@_0BD@KHLJDKOM@BOTH_FLOATCONSOLE1?$AA@ 3004ea30     bg_panimate.obj
 0002:00002a44       ??_C@_0M@GEPODDBI@BOTH_FLOAT2?$AA@ 3004ea44     bg_panimate.obj
 0002:00002a50       ??_C@_0M@EPNDGANL@BOTH_FLOAT1?$AA@ 3004ea50     bg_panimate.obj
 0002:00002a5c       ??_C@_0P@LGDPFCFJ@BOTH_FLY_LOOP1?$AA@ 3004ea5c     bg_panimate.obj
 0002:00002a6c       ??_C@_0P@FDIPEEIE@BOTH_FLY_STOP1?$AA@ 3004ea6c     bg_panimate.obj
 0002:00002a7c       ??_C@_0BA@HHPOLAOO@BOTH_FLY_START1?$AA@ 3004ea7c     bg_panimate.obj
 0002:00002a8c       ??_C@_0BC@ODIBALPH@BOTH_FLY_SHIELDED?$AA@ 3004ea8c     bg_panimate.obj
 0002:00002aa0       ??_C@_0P@LCFHGPEN@BOTH_FLY_IDLE2?$AA@ 3004eaa0     bg_panimate.obj
 0002:00002ab0       ??_C@_0P@JJHKDMIO@BOTH_FLY_IDLE1?$AA@ 3004eab0     bg_panimate.obj
 0002:00002ac0       ??_C@_0M@BNKHLPB@BOTH_BIRTH1?$AA@ 3004eac0     bg_panimate.obj
 0002:00002acc       ??_C@_0BB@CINAOFMF@BOTH_AMBUSHLAND1?$AA@ 3004eacc     bg_panimate.obj
 0002:00002ae0       ??_C@_0O@JBICNNLO@BOTH_HITWALL1?$AA@ 3004eae0     bg_panimate.obj
 0002:00002af0       ??_C@_0L@DEBEHADD@BOTH_STEP1?$AA@ 3004eaf0     bg_panimate.obj
 0002:00002afc       ??_C@_0L@ELFIJEHM@BOTH_LIFT1?$AA@ 3004eafc     bg_panimate.obj
 0002:00002b08       ??_C@_0BE@ODOCLDEN@BOTH_OFFLADDER_TOP1?$AA@ 3004eb08     bg_panimate.obj
 0002:00002b1c       ??_C@_0BD@EPGAMNJ@BOTH_ONLADDER_TOP1?$AA@ 3004eb1c     bg_panimate.obj
 0002:00002b30       ??_C@_0BE@LELHJLD@BOTH_OFFLADDER_BOT1?$AA@ 3004eb30     bg_panimate.obj
 0002:00002b44       ??_C@_0BD@OMFPMGCH@BOTH_ONLADDER_BOT1?$AA@ 3004eb44     bg_panimate.obj
 0002:00002b58       ??_C@_0BB@OMHFJNGP@BOTH_LADDER_IDLE?$AA@ 3004eb58     bg_panimate.obj
 0002:00002b6c       ??_C@_0BB@BOJOMJDD@BOTH_LADDER_DWN1?$AA@ 3004eb6c     bg_panimate.obj
 0002:00002b80       ??_C@_0BA@ILKIBIOO@BOTH_LADDER_UP1?$AA@ 3004eb80     bg_panimate.obj
 0002:00002b90       ??_C@_09PPDGHFCD@BOTH_HIT1?$AA@ 3004eb90     bg_panimate.obj
 0002:00002b9c       ??_C@_0BD@HFLMOBFH@BOTH_BUTTERFLY_FL1?$AA@ 3004eb9c     bg_panimate.obj
 0002:00002bb0       ??_C@_0BD@GDAEGPCN@BOTH_BUTTERFLY_FR1?$AA@ 3004ebb0     bg_panimate.obj
 0002:00002bc4       ??_C@_0O@HINNODAG@BOTH_ARIAL_F1?$AA@ 3004ebc4     bg_panimate.obj
 0002:00002bd4       ??_C@_0N@PBBFIKGE@BOTH_BASHED1?$AA@ 3004ebd4     bg_panimate.obj
 0002:00002be4       ??_C@_0BM@ELFFAKLF@BOTH_DEFLECTSLASH__R__L_FIN?$AA@ 3004ebe4     bg_panimate.obj
 0002:00002c00       ??_C@_0BJ@PHBNOEEM@BOTH_RIGHTHANDCHOPPEDOFF?$AA@ 3004ec00     bg_panimate.obj
 0002:00002c1c       ??_C@_0BI@PBIBKKMA@BOTH_DEATHFROMBACKSLASH?$AA@ 3004ec1c     bg_panimate.obj
 0002:00002c34       ??_C@_0BA@CDEAMOMG@BOTH_FJSS_TL_BR?$AA@ 3004ec34     bg_panimate.obj
 0002:00002c44       ??_C@_0BA@CINBNIPK@BOTH_FJSS_TR_BL?$AA@ 3004ec44     bg_panimate.obj
 0002:00002c54       ??_C@_0BC@GKKAPGJM@BOTH_CEILING_DROP?$AA@ 3004ec54     bg_panimate.obj
 0002:00002c68       ??_C@_0BD@LHONGOKG@BOTH_CEILING_CLING?$AA@ 3004ec68     bg_panimate.obj
 0002:00002c7c       ??_C@_0L@JNPKOHDB@BOTH_SPIN1?$AA@ 3004ec7c     bg_panimate.obj
 0002:00002c88       ??_C@_0BF@ECAKIGBB@BOTH_WALL_FLIP_BACK2?$AA@ 3004ec88     bg_panimate.obj
 0002:00002ca0       ??_C@_0BF@GJCHNFNC@BOTH_WALL_FLIP_BACK1?$AA@ 3004eca0     bg_panimate.obj
 0002:00002cb8       ??_C@_0BE@FMMHDLNN@BOTH_FORCE_GETUP_B6?$AA@ 3004ecb8     bg_panimate.obj
 0002:00002ccc       ??_C@_0BE@HHOKGIBO@BOTH_FORCE_GETUP_B5?$AA@ 3004eccc     bg_panimate.obj
 0002:00002ce0       ??_C@_0BE@GOPBFJFP@BOTH_FORCE_GETUP_B4?$AA@ 3004ece0     bg_panimate.obj
 0002:00002cf4       ??_C@_0BE@CBLAMPJI@BOTH_FORCE_GETUP_B3?$AA@ 3004ecf4     bg_panimate.obj
 0002:00002d08       ??_C@_0BE@DIKLPONJ@BOTH_FORCE_GETUP_B2?$AA@ 3004ed08     bg_panimate.obj
 0002:00002d1c       ??_C@_0BE@BDIGKNBK@BOTH_FORCE_GETUP_B1?$AA@ 3004ed1c     bg_panimate.obj
 0002:00002d30       ??_C@_0BE@DPKCFGAF@BOTH_FORCE_GETUP_F2?$AA@ 3004ed30     bg_panimate.obj
 0002:00002d44       ??_C@_0BE@BEIPAFMG@BOTH_FORCE_GETUP_F1?$AA@ 3004ed44     bg_panimate.obj
 0002:00002d58       ??_C@_0BF@MJANPMOM@BOTH_GETUP_CROUCH_B1?$AA@ 3004ed58     bg_panimate.obj
 0002:00002d70       ??_C@_0BF@MOAEFEDA@BOTH_GETUP_CROUCH_F1?$AA@ 3004ed70     bg_panimate.obj
 0002:00002d88       ??_C@_0M@GFIFDBCE@BOTH_GETUP5?$AA@ 3004ed88     bg_panimate.obj
 0002:00002d94       ??_C@_0M@HMJOAAGF@BOTH_GETUP4?$AA@ 3004ed94     bg_panimate.obj
 0002:00002da0       ??_C@_0M@DDNPJGKC@BOTH_GETUP3?$AA@ 3004eda0     bg_panimate.obj
 0002:00002dac       ??_C@_0M@CKMEKHOD@BOTH_GETUP2?$AA@ 3004edac     bg_panimate.obj
 0002:00002db8       ??_C@_0M@BOJPECA@BOTH_GETUP1?$AA@ 3004edb8     bg_panimate.obj
 0002:00002dc4       ??_C@_0BA@OGIFEPII@BOTH_KNOCKDOWN5?$AA@ 3004edc4     bg_panimate.obj
 0002:00002dd4       ??_C@_0BA@PPJOHOMJ@BOTH_KNOCKDOWN4?$AA@ 3004edd4     bg_panimate.obj
 0002:00002de4       ??_C@_0BA@LANPOIAO@BOTH_KNOCKDOWN3?$AA@ 3004ede4     bg_panimate.obj
 0002:00002df4       ??_C@_0BA@KJMENJEP@BOTH_KNOCKDOWN2?$AA@ 3004edf4     bg_panimate.obj
 0002:00002e04       ??_C@_0BA@ICOJIKIM@BOTH_KNOCKDOWN1?$AA@ 3004ee04     bg_panimate.obj
 0002:00002e14       ??_C@_0BD@JKFOGAEP@BOTH_WALL_FLIP_FWD?$AA@ 3004ee14     bg_panimate.obj
 0002:00002e28       ??_C@_0BE@ILAKMJOK@BOTH_WALL_FLIP_LEFT?$AA@ 3004ee28     bg_panimate.obj
 0002:00002e3c       ??_C@_0BF@MPCPCKGE@BOTH_WALL_FLIP_RIGHT?$AA@ 3004ee3c     bg_panimate.obj
 0002:00002e54       ??_C@_0BI@ICEHPAIN@BOTH_WALL_RUN_LEFT_STOP?$AA@ 3004ee54     bg_panimate.obj
 0002:00002e6c       ??_C@_0BI@LLGHOLLN@BOTH_WALL_RUN_LEFT_FLIP?$AA@ 3004ee6c     bg_panimate.obj
 0002:00002e84       ??_C@_0BD@FOKEEMMD@BOTH_WALL_RUN_LEFT?$AA@ 3004ee84     bg_panimate.obj
 0002:00002e98       ??_C@_0BJ@KEGEKGBP@BOTH_WALL_RUN_RIGHT_STOP?$AA@ 3004ee98     bg_panimate.obj
 0002:00002eb4       ??_C@_0BJ@JNEELNCP@BOTH_WALL_RUN_RIGHT_FLIP?$AA@ 3004eeb4     bg_panimate.obj
 0002:00002ed0       ??_C@_0BE@INEIBMIN@BOTH_WALL_RUN_RIGHT?$AA@ 3004eed0     bg_panimate.obj
 0002:00002ee4       ??_C@_0BF@JMFKBIFE@BOTH_BUTTERFLY_RIGHT?$AA@ 3004eee4     bg_panimate.obj
 0002:00002efc       ??_C@_0BE@ENKLMJBI@BOTH_BUTTERFLY_LEFT?$AA@ 3004eefc     bg_panimate.obj
 0002:00002f10       ??_C@_0BA@NNNINNPE@BOTH_FLIP_BACK3?$AA@ 3004ef10     bg_panimate.obj
 0002:00002f20       ??_C@_0BA@MEMDOMLF@BOTH_FLIP_BACK2?$AA@ 3004ef20     bg_panimate.obj
 0002:00002f30       ??_C@_0BA@OPOOLPHG@BOTH_FLIP_BACK1?$AA@ 3004ef30     bg_panimate.obj
 0002:00002f40       ??_C@_0P@JBLCLJDK@BOTH_FLIP_LEFT?$AA@ 3004ef40     bg_panimate.obj
 0002:00002f50       ??_C@_0BF@NLFLOFGE@BOTH_CARTWHEEL_RIGHT?$AA@ 3004ef50     bg_panimate.obj
 0002:00002f68       ??_C@_0BE@POJJIGPG@BOTH_CARTWHEEL_LEFT?$AA@ 3004ef68     bg_panimate.obj
 0002:00002f7c       ??_C@_0BB@HOMELNKD@BOTH_ARIAL_RIGHT?$AA@ 3004ef7c     bg_panimate.obj
 0002:00002f90       ??_C@_0BA@GLHECKNB@BOTH_ARIAL_LEFT?$AA@ 3004ef90     bg_panimate.obj
 0002:00002fa0       ??_C@_0BB@EBJHHEMP@BOTH_ENGAGETAUNT?$AA@ 3004efa0     bg_panimate.obj
 0002:00002fb4       ??_C@_0L@OKPGIIMJ@BOTH_DIVE1?$AA@ 3004efb4     bg_panimate.obj
 0002:00002fc0       ??_C@_0N@KFGFCJLJ@BOTH_DODGE_R?$AA@ 3004efc0     bg_panimate.obj
 0002:00002fd0       ??_C@_0N@HBCEBGGG@BOTH_DODGE_L?$AA@ 3004efd0     bg_panimate.obj
 0002:00002fe0       ??_C@_0O@CGLDPCKH@BOTH_DODGE_BR?$AA@ 3004efe0     bg_panimate.obj
 0002:00002ff0       ??_C@_0O@PCPCMNHI@BOTH_DODGE_BL?$AA@ 3004eff0     bg_panimate.obj
 0002:00003000       ??_C@_0O@CBLKFKHL@BOTH_DODGE_FR?$AA@ 3004f000     bg_panimate.obj
 0002:00003010       ??_C@_0O@PFPLGFKE@BOTH_DODGE_FL?$AA@ 3004f010     bg_panimate.obj
 0002:00003020       ??_C@_0L@GIHOPMAM@BOTH_HOP_R?$AA@ 3004f020     bg_panimate.obj
 0002:0000302c       ??_C@_0L@LMDPMDND@BOTH_HOP_L?$AA@ 3004f02c     bg_panimate.obj
 0002:00003038       ??_C@_0L@CCLMOOFN@BOTH_HOP_B?$AA@ 3004f038     bg_panimate.obj
 0002:00003044       ??_C@_0L@EGNACLFJ@BOTH_HOP_F?$AA@ 3004f044     bg_panimate.obj
 0002:00003050       ??_C@_0N@HLCJBKGO@BOTH_ROLL_BL?$AA@ 3004f050     bg_panimate.obj
 0002:00003060       ??_C@_0N@KPGICFLB@BOTH_ROLL_BR?$AA@ 3004f060     bg_panimate.obj
 0002:00003070       ??_C@_0N@HMCALCLC@BOTH_ROLL_FL?$AA@ 3004f070     bg_panimate.obj
 0002:00003080       ??_C@_0N@KIGBINGN@BOTH_ROLL_FR?$AA@ 3004f080     bg_panimate.obj
 0002:00003090       ??_C@_0M@KNJJNPCA@BOTH_ROLL_R?$AA@ 3004f090     bg_panimate.obj
 0002:0000309c       ??_C@_0M@HJNIOAPP@BOTH_ROLL_L?$AA@ 3004f09c     bg_panimate.obj
 0002:000030a8       ??_C@_0M@OHFLMNHB@BOTH_ROLL_B?$AA@ 3004f0a8     bg_panimate.obj
 0002:000030b4       ??_C@_0M@IDDHAIHF@BOTH_ROLL_F?$AA@ 3004f0b4     bg_panimate.obj
 0002:000030c0       ??_C@_0M@GKLDHCAE@BOTH_FLIP_R?$AA@ 3004f0c0     bg_panimate.obj
 0002:000030cc       ??_C@_0M@LOPCENNL@BOTH_FLIP_L?$AA@ 3004f0cc     bg_panimate.obj
 0002:000030d8       ??_C@_0M@CAHBGAFF@BOTH_FLIP_B?$AA@ 3004f0d8     bg_panimate.obj
 0002:000030e4       ??_C@_0M@EEBNKFFB@BOTH_FLIP_F?$AA@ 3004f0e4     bg_panimate.obj
 0002:000030f0       ??_C@_0BF@GPIHFNCP@BOTH_FORCELANDRIGHT1?$AA@ 3004f0f0     bg_panimate.obj
 0002:00003108       ??_C@_0BG@OPKMFNMD@BOTH_FORCEINAIRRIGHT1?$AA@ 3004f108     bg_panimate.obj
 0002:00003120       ??_C@_0BF@GIALLFOK@BOTH_FORCEJUMPRIGHT1?$AA@ 3004f120     bg_panimate.obj
 0002:00003138       ??_C@_0BE@CPNCOCJF@BOTH_FORCELANDLEFT1?$AA@ 3004f138     bg_panimate.obj
 0002:0000314c       ??_C@_0BF@GBLFMFAA@BOTH_FORCEINAIRLEFT1?$AA@ 3004f14c     bg_panimate.obj
 0002:00003164       ??_C@_0BE@MOPODOJB@BOTH_FORCEJUMPLEFT1?$AA@ 3004f164     bg_panimate.obj
 0002:00003178       ??_C@_0BE@MAPMDBFK@BOTH_FORCELANDBACK1?$AA@ 3004f178     bg_panimate.obj
 0002:0000318c       ??_C@_0BF@IOJLBGMP@BOTH_FORCEINAIRBACK1?$AA@ 3004f18c     bg_panimate.obj
 0002:000031a4       ??_C@_0BE@CBNAONFO@BOTH_FORCEJUMPBACK1?$AA@ 3004f1a4     bg_panimate.obj
 0002:000031b8       ??_C@_0BA@NIOKNDAB@BOTH_FORCELAND1?$AA@ 3004f1b8     bg_panimate.obj
 0002:000031c8       ??_C@_0BB@CIEHHKPA@BOTH_FORCEINAIR1?$AA@ 3004f1c8     bg_panimate.obj
 0002:000031dc       ??_C@_0BA@JCEJKFBM@BOTH_FORCEJUMP1?$AA@ 3004f1dc     bg_panimate.obj
 0002:000031ec       ??_C@_0BA@CAAEDJLF@BOTH_LANDRIGHT1?$AA@ 3004f1ec     bg_panimate.obj
 0002:000031fc       ??_C@_0BB@PPDJKEPN@BOTH_INAIRRIGHT1?$AA@ 3004f1fc     bg_panimate.obj
 0002:00003210       ??_C@_0BA@CHIINBHA@BOTH_JUMPRIGHT1?$AA@ 3004f210     bg_panimate.obj
 0002:00003220       ??_C@_0P@HDEECKDG@BOTH_LANDLEFT1?$AA@ 3004f220     bg_panimate.obj
 0002:00003230       ??_C@_0BA@CODGKBJK@BOTH_INAIRLEFT1?$AA@ 3004f230     bg_panimate.obj
 0002:00003240       ??_C@_0P@JCGIPGDC@BOTH_JUMPLEFT1?$AA@ 3004f240     bg_panimate.obj
 0002:00003250       ??_C@_0P@JMGKPJPJ@BOTH_LANDBACK1?$AA@ 3004f250     bg_panimate.obj
 0002:00003260       ??_C@_0BA@MBBIHCFF@BOTH_INAIRBACK1?$AA@ 3004f260     bg_panimate.obj
 0002:00003270       ??_C@_0P@HNEGCFPN@BOTH_JUMPBACK1?$AA@ 3004f270     bg_panimate.obj
 0002:00003280       ??_C@_0L@IJJHAHOB@BOTH_LAND2?$AA@ 3004f280     bg_panimate.obj
 0002:0000328c       ??_C@_0L@KCLKFECC@BOTH_LAND1?$AA@ 3004f28c     bg_panimate.obj
 0002:00003298       ??_C@_0M@IKFKFLAF@BOTH_INAIR1?$AA@ 3004f298     bg_panimate.obj
 0002:000032a4       ??_C@_0L@OIBJCCDP@BOTH_JUMP1?$AA@ 3004f2a4     bg_panimate.obj
 0002:000032b0       ??_C@_0O@GFMMDEIN@BOTH_RUNBACK2?$AA@ 3004f2b0     bg_panimate.obj
 0002:000032c0       ??_C@_0O@EOOBGHEO@BOTH_RUNBACK1?$AA@ 3004f2c0     bg_panimate.obj
 0002:000032d0       ??_C@_0P@NMGEKHLB@BOTH_WALKBACK2?$AA@ 3004f2d0     bg_panimate.obj
 0002:000032e0       ??_C@_0P@PHEJPEHC@BOTH_WALKBACK1?$AA@ 3004f2e0     bg_panimate.obj
 0002:000032f0       ??_C@_0L@CNJMIFHI@BOTH_SWIM1?$AA@ 3004f2f0     bg_panimate.obj
 0002:000032fc       ??_C@_0O@JCHOMIFH@BOTH_RUNAWAY1?$AA@ 3004f2fc     bg_panimate.obj
 0002:0000330c       ??_C@_0BB@PGPEJHBN@BOTH_TURNCROUCH1?$AA@ 3004f30c     bg_panimate.obj
 0002:00003320       ??_C@_0BA@KBOEGPN@BOTH_TURNSTAND5?$AA@ 3004f320     bg_panimate.obj
 0002:00003330       ??_C@_0BA@BDAFHHLM@BOTH_TURNSTAND4?$AA@ 3004f330     bg_panimate.obj
 0002:00003340       ??_C@_0BA@FMEEOBHL@BOTH_TURNSTAND3?$AA@ 3004f340     bg_panimate.obj
 0002:00003350       ??_C@_0BA@EFFPNADK@BOTH_TURNSTAND2?$AA@ 3004f350     bg_panimate.obj
 0002:00003360       ??_C@_0BA@GOHCIDPJ@BOTH_TURNSTAND1?$AA@ 3004f360     bg_panimate.obj
 0002:00003370       ??_C@_0BB@NDKEEJJD@BOTH_TURN_RIGHT1?$AA@ 3004f370     bg_panimate.obj
 0002:00003384       ??_C@_0BA@GKEFEECE@BOTH_TURN_LEFT1?$AA@ 3004f384     bg_panimate.obj
 0002:00003394       ??_C@_0BG@OGEKFCND@BOTH_RUNSTRAFE_RIGHT1?$AA@ 3004f394     bg_panimate.obj
 0002:000033ac       ??_C@_0BF@DBPGPOAM@BOTH_RUNSTRAFE_LEFT1?$AA@ 3004f3ac     bg_panimate.obj
 0002:000033c4       ??_C@_0BD@LFCECKKK@BOTH_STRAFE_RIGHT1?$AA@ 3004f3c4     bg_panimate.obj
 0002:000033d8       ??_C@_0BC@OMBNLHPO@BOTH_STRAFE_LEFT1?$AA@ 3004f3d8     bg_panimate.obj
 0002:000033ec       ??_C@_0BB@LDBCKCHP@BOTH_RUNINJURED1?$AA@ 3004f3ec     bg_panimate.obj
 0002:00003400       ??_C@_09PFDFGHEC@BOTH_RUN2?$AA@ 3004f400     bg_panimate.obj
 0002:0000340c       ??_C@_0O@GPFGEBNP@BOTH_RUN1STOP?$AA@ 3004f40c     bg_panimate.obj
 0002:0000341c       ??_C@_0P@CLIPKCAJ@BOTH_RUN1START?$AA@ 3004f41c     bg_panimate.obj
 0002:0000342c       ??_C@_09NOBIDEIB@BOTH_RUN1?$AA@ 3004f42c     bg_panimate.obj
 0002:00003438       ??_C@_0BA@PEEOCHCB@BOTH_WALKTORUN1?$AA@ 3004f438     bg_panimate.obj
 0002:00003448       ??_C@_0M@ENPOEGEB@BOTH_WALK10?$AA@ 3004f448     bg_panimate.obj
 0002:00003454       ??_C@_0L@KCCHKDME@BOTH_WALK9?$AA@ 3004f454     bg_panimate.obj
 0002:00003460       ??_C@_0L@LLDMJCIF@BOTH_WALK8?$AA@ 3004f460     bg_panimate.obj
 0002:0000346c       ??_C@_0L@DMKEIOEK@BOTH_WALK7?$AA@ 3004f46c     bg_panimate.obj
 0002:00003478       ??_C@_0L@CFLPLPAL@BOTH_WALK6?$AA@ 3004f478     bg_panimate.obj
 0002:00003484       ??_C@_0L@OJCOMMI@BOTH_WALK5?$AA@ 3004f484     bg_panimate.obj
 0002:00003490       ??_C@_0L@BHIJNNIJ@BOTH_WALK4?$AA@ 3004f490     bg_panimate.obj
 0002:0000349c       ??_C@_0L@FIMIELEO@BOTH_WALK3?$AA@ 3004f49c     bg_panimate.obj
 0002:000034a8       ??_C@_0L@EBNDHKAP@BOTH_WALK2?$AA@ 3004f4a8     bg_panimate.obj
 0002:000034b4       ??_C@_0L@GKPOCJMM@BOTH_WALK1?$AA@ 3004f4b4     bg_panimate.obj
 0002:000034c0       ??_C@_0BD@OKJHAEJN@BOTH_SLAMSABERDOWN?$AA@ 3004f4c0     bg_panimate.obj
 0002:000034d4       ??_C@_0BB@LNKAJGFB@BOTH_SLIDEGLASS1?$AA@ 3004f4d4     bg_panimate.obj
 0002:000034e8       ??_C@_0BA@MINOEDGD@BOTH_HOLDGLASS1?$AA@ 3004f4e8     bg_panimate.obj
 0002:000034f8       ??_C@_0BC@KGGPKOPN@BOTH_RUMMAGE1STOP?$AA@ 3004f4f8     bg_panimate.obj
 0002:0000350c       ??_C@_0O@LKDHFFL@BOTH_RUMMAGE1?$AA@ 3004f50c     bg_panimate.obj
 0002:0000351c       ??_C@_0BD@POCGNKAC@BOTH_RUMMAGE1START?$AA@ 3004f51c     bg_panimate.obj
 0002:00003530       ??_C@_0P@OGCNLGGI@BOTH_KNEES2TO1?$AA@ 3004f530     bg_panimate.obj
 0002:00003540       ??_C@_0M@IIHMGKKA@BOTH_KNEES2?$AA@ 3004f540     bg_panimate.obj
 0002:0000354c       ??_C@_0M@KDFBDJGD@BOTH_KNEES1?$AA@ 3004f54c     bg_panimate.obj
 0002:00003558       ??_C@_0BD@FOKLKMPB@BOTH_DEATH14_SITUP?$AA@ 3004f558     bg_panimate.obj
 0002:0000356c       ??_C@_0BE@KHOKHMOE@BOTH_DEATH14_UNGRIP?$AA@ 3004f56c     bg_panimate.obj
 0002:00003580       ??_C@_0N@NEOMJHMD@BOTH_GUNSIT1?$AA@ 3004f580     bg_panimate.obj
 0002:00003590       ??_C@_0BB@LNMLBGPH@BOTH_COCKPIT_SIT?$AA@ 3004f590     bg_panimate.obj
 0002:000035a4       ??_C@_0N@OCGENEMJ@BOTH_GET_UP2?$AA@ 3004f5a4     bg_panimate.obj
 0002:000035b4       ??_C@_0N@MJEJIHAK@BOTH_GET_UP1?$AA@ 3004f5b4     bg_panimate.obj
 0002:000035c4       ??_C@_0P@FBKMEIKP@BOTH_UNCROUCH4?$AA@ 3004f5c4     bg_panimate.obj
 0002:000035d4       ??_C@_0N@NGOLMPIH@BOTH_CROUCH4?$AA@ 3004f5d4     bg_panimate.obj
 0002:000035e4       ??_C@_0P@BOONNOGI@BOTH_UNCROUCH3?$AA@ 3004f5e4     bg_panimate.obj
 0002:000035f4       ??_C@_0N@JJKKFJEA@BOTH_CROUCH3?$AA@ 3004f5f4     bg_panimate.obj
 0002:00003604       ??_C@_0BF@OBDEHHPH@BOTH_CROUCH2TOSTAND1?$AA@ 3004f604     bg_panimate.obj
 0002:0000361c       ??_C@_0BB@FLAFNLJC@BOTH_CROUCH2IDLE?$AA@ 3004f61c     bg_panimate.obj
 0002:00003630       ??_C@_0P@CMNLLMOK@BOTH_UNCROUCH1?$AA@ 3004f630     bg_panimate.obj
 0002:00003640       ??_C@_0BF@IKEOFDBF@BOTH_CROUCH1WALKBACK?$AA@ 3004f640     bg_panimate.obj
 0002:00003658       ??_C@_0BB@KLBMFNGD@BOTH_CROUCH1WALK?$AA@ 3004f658     bg_panimate.obj
 0002:0000366c       ??_C@_0BB@NNJBKJDM@BOTH_CROUCH1IDLE?$AA@ 3004f66c     bg_panimate.obj
 0002:00003680       ??_C@_0N@KLJMDLMC@BOTH_CROUCH1?$AA@ 3004f680     bg_panimate.obj
 0002:00003690       ??_C@_0BC@HKIJNFJC@BOTH_SIT7TOSTAND1?$AA@ 3004f690     bg_panimate.obj
 0002:000036a4       ??_C@_09LOFMHEDG@BOTH_SIT7?$AA@ 3004f6a4     bg_panimate.obj
 0002:000036b0       ??_C@_0N@KJJAIBLP@BOTH_SIT6TO5?$AA@ 3004f6b0     bg_panimate.obj
 0002:000036c0       ??_C@_0N@LAILLAPO@BOTH_SIT6TO4?$AA@ 3004f6c0     bg_panimate.obj
 0002:000036d0       ??_C@_0N@MFBNKIKM@BOTH_SIT5TO6?$AA@ 3004f6d0     bg_panimate.obj
 0002:000036e0       ??_C@_0N@PHCLMKCO@BOTH_SIT5TO4?$AA@ 3004f6e0     bg_panimate.obj
 0002:000036f0       ??_C@_0N@PIHNIBBM@BOTH_SIT4TO6?$AA@ 3004f6f0     bg_panimate.obj
 0002:00003700       ??_C@_0N@NDFANCNP@BOTH_SIT4TO5?$AA@ 3004f700     bg_panimate.obj
 0002:00003710       ??_C@_0BC@BHAOLAOM@BOTH_SIT3TOSTAND5?$AA@ 3004f710     bg_panimate.obj
 0002:00003724       ??_C@_0N@CODBJIAI@BOTH_SIT3TO2?$AA@ 3004f724     bg_panimate.obj
 0002:00003734       ??_C@_0N@FBMMLML@BOTH_SIT3TO1?$AA@ 3004f734     bg_panimate.obj
 0002:00003744       ??_C@_0BA@LICOGNPB@BOTH_SIT2TOSIT4?$AA@ 3004f744     bg_panimate.obj
 0002:00003754       ??_C@_0BC@LANJPAEM@BOTH_STAND5TOSIT2?$AA@ 3004f754     bg_panimate.obj
 0002:00003768       ??_C@_0BC@PIMMNLNC@BOTH_SIT2TOSTAND5?$AA@ 3004f768     bg_panimate.obj
 0002:0000377c       ??_C@_0N@KEKIAPJ@BOTH_SIT2TO3?$AA@ 3004f77c     bg_panimate.obj
 0002:0000378c       ??_C@_09NKDALBDC@BOTH_SIT3?$AA@ 3004f78c     bg_panimate.obj
 0002:00003798       ??_C@_09MDCLIAHD@BOTH_SIT2?$AA@ 3004f798     bg_panimate.obj
 0002:000037a4       ??_C@_09OIAGNDLA@BOTH_SIT1?$AA@ 3004f7a4     bg_panimate.obj
 0002:000037b0       ??_C@_0P@DMDMBNPE@BOTH_SIT1STAND?$AA@ 3004f7b0     bg_panimate.obj
 0002:000037c0       ??_C@_0O@MGCCLABI@BOTH_INJURED5?$AA@ 3004f7c0     bg_panimate.obj
 0002:000037d0       ??_C@_0BB@IDGIKEFM@BOTH_INJURED4TO5?$AA@ 3004f7d0     bg_panimate.obj
 0002:000037e4       ??_C@_0O@NPDJIBFJ@BOTH_INJURED4?$AA@ 3004f7e4     bg_panimate.obj
 0002:000037f4       ??_C@_0BC@CLNNEMFG@BOTH_COVERUP1_END?$AA@ 3004f7f4     bg_panimate.obj
 0002:00003808       ??_C@_0BE@OKGFCAKN@BOTH_COVERUP1_START?$AA@ 3004f808     bg_panimate.obj
 0002:0000381c       ??_C@_0BD@IBGBJOCM@BOTH_COVERUP1_LOOP?$AA@ 3004f81c     bg_panimate.obj
 0002:00003830       ??_C@_0BF@IPAEPPNA@BOTH_SABERTHROW2STOP?$AA@ 3004f830     bg_panimate.obj
 0002:00003848       ??_C@_0BG@LLNAONCG@BOTH_SABERTHROW2START?$AA@ 3004f848     bg_panimate.obj
 0002:00003860       ??_C@_0BF@JJAINHO@BOTH_SABERTHROW1STOP?$AA@ 3004f860     bg_panimate.obj
 0002:00003878       ??_C@_0BG@IKDIPHLL@BOTH_SABERTHROW1START?$AA@ 3004f878     bg_panimate.obj
 0002:00003890       ??_C@_0BF@PMBDHILC@BOTH_TRIUMPHANT1STOP?$AA@ 3004f890     bg_panimate.obj
 0002:000038a8       ??_C@_0BN@FGOIFFMI@BOTH_TRIUMPHANT1STARTGESTURE?$AA@ 3004f8a8     bg_panimate.obj
 0002:000038c8       ??_C@_0BG@BIBPPKNF@BOTH_TRIUMPHANT1START?$AA@ 3004f8c8     bg_panimate.obj
 0002:000038e0       ??_C@_0BB@EIEJLGEN@BOTH_RADIO_ONOFF?$AA@ 3004f8e0     bg_panimate.obj
 0002:000038f4       ??_C@_0P@IEOHFGAF@BOTH_THREATEN1?$AA@ 3004f8f4     bg_panimate.obj
 0002:00003904       ??_C@_0BF@EKFJLGNP@BOTH_THREATEN1_START?$AA@ 3004f904     bg_panimate.obj
 0002:0000391c       ??_C@_0BF@LCAHMCCG@BOTH_BARTENDER_COWER?$AA@ 3004f91c     bg_panimate.obj
 0002:00003934       ??_C@_0BJ@OCFFJMCB@BOTH_BARTENDER_COWERLOOP?$AA@ 3004f934     bg_panimate.obj
 0002:00003950       ??_C@_0BK@JELHGIBC@BOTH_BARTENDER_COWERSTART?$AA@ 3004f950     bg_panimate.obj
 0002:0000396c       ??_C@_0BG@KAILKIK@BOTH_BARTENDER_THROW1?$AA@ 3004f96c     bg_panimate.obj
 0002:00003984       ??_C@_0BF@KNIEDIKL@BOTH_BARTENDER_IDLE1?$AA@ 3004f984     bg_panimate.obj
 0002:0000399c       ??_C@_0BC@GOFDBBNK@BOTH_KISSEE1STOP2?$AA@ 3004f99c     bg_panimate.obj
 0002:000039b0       ??_C@_0BC@EFHOECBJ@BOTH_KISSEE1STOP1?$AA@ 3004f9b0     bg_panimate.obj
 0002:000039c4       ??_C@_0BB@PAMAGMBH@BOTH_KISSEE1STOP?$AA@ 3004f9c4     bg_panimate.obj
 0002:000039d8       ??_C@_0BB@JFGILMNK@BOTH_KISSEE1LOOP?$AA@ 3004f9d8     bg_panimate.obj
 0002:000039ec       ??_C@_0BD@NCHLPNNC@BOTH_KISSEE1START2?$AA@ 3004f9ec     bg_panimate.obj
 0002:00003a00       ??_C@_0BD@PJFGKOBB@BOTH_KISSEE1START1?$AA@ 3004fa00     bg_panimate.obj
 0002:00003a14       ??_C@_0N@MLEHBDIM@BOTH_KISSEE1?$AA@ 3004fa14     bg_panimate.obj
 0002:00003a24       ??_C@_0BC@BICNCJOI@BOTH_KISSER1STOP2?$AA@ 3004fa24     bg_panimate.obj
 0002:00003a38       ??_C@_0BC@DDAAHKCL@BOTH_KISSER1STOP1?$AA@ 3004fa38     bg_panimate.obj
 0002:00003a4c       ??_C@_0BB@FCLJMOFH@BOTH_KISSER1STOP?$AA@ 3004fa4c     bg_panimate.obj
 0002:00003a60       ??_C@_0BB@DHBBBOJK@BOTH_KISSER1LOOP?$AA@ 3004fa60     bg_panimate.obj
 0002:00003a74       ??_C@_0BD@BKNKNCGK@BOTH_KISSER1START2?$AA@ 3004fa74     bg_panimate.obj
 0002:00003a88       ??_C@_0BD@DBPHIBKJ@BOTH_KISSER1START1?$AA@ 3004fa88     bg_panimate.obj
 0002:00003a9c       ??_C@_0N@NCCOKGHJ@BOTH_KISSER1?$AA@ 3004fa9c     bg_panimate.obj
 0002:00003aac       ??_C@_0BB@MMGOJFLD@BOTH_HUGGEESTOP2?$AA@ 3004faac     bg_panimate.obj
 0002:00003ac0       ??_C@_0BB@OHEDMGHA@BOTH_HUGGEESTOP1?$AA@ 3004fac0     bg_panimate.obj
 0002:00003ad4       ??_C@_0N@OIJBJDBK@BOTH_HUGGEE1?$AA@ 3004fad4     bg_panimate.obj
 0002:00003ae4       ??_C@_0BB@GOBHDHPD@BOTH_HUGGERSTOP2?$AA@ 3004fae4     bg_panimate.obj
 0002:00003af8       ??_C@_0BB@EFDKGEDA@BOTH_HUGGERSTOP1?$AA@ 3004faf8     bg_panimate.obj
 0002:00003b0c       ??_C@_0N@PBPICGOP@BOTH_HUGGER1?$AA@ 3004fb0c     bg_panimate.obj
 0002:00003b1c       ??_C@_0BG@IMIJHGML@BOTH_ESCAPEPOD_LEAVE2?$AA@ 3004fb1c     bg_panimate.obj
 0002:00003b34       ??_C@_0BG@KHKECFAI@BOTH_ESCAPEPOD_LEAVE1?$AA@ 3004fb34     bg_panimate.obj
 0002:00003b4c       ??_C@_0BA@EHPLGBME@BOTH_LAUGH1STOP?$AA@ 3004fb4c     bg_panimate.obj
 0002:00003b5c       ??_C@_0BB@KBMCMGMF@BOTH_LAUGH1START?$AA@ 3004fb5c     bg_panimate.obj
 0002:00003b70       ??_C@_0BF@IFBJFEJE@BOTH_HANDSHAKEE1LOOP?$AA@ 3004fb70     bg_panimate.obj
 0002:00003b88       ??_C@_0BG@CPNLGDNJ@BOTH_HANDSHAKEE1START?$AA@ 3004fb88     bg_panimate.obj
 0002:00003ba0       ??_C@_0BF@CHGAPGNE@BOTH_HANDSHAKER1LOOP?$AA@ 3004fba0     bg_panimate.obj
 0002:00003bb8       ??_C@_0BG@FJKFFLOL@BOTH_HANDSHAKER1START?$AA@ 3004fbb8     bg_panimate.obj
 0002:00003bd0       ??_C@_0BC@DNFCOFMA@BOTH_SABERKILLEE1?$AA@ 3004fbd0     bg_panimate.obj
 0002:00003be4       ??_C@_0BC@CEDLFADF@BOTH_SABERKILLER1?$AA@ 3004fbe4     bg_panimate.obj
 0002:00003bf8       ??_C@_0BG@DJJGFONP@BOTH_CONSTRAINEE1LOOP?$AA@ 3004fbf8     bg_panimate.obj
 0002:00003c10       ??_C@_0BG@JLOPPMJP@BOTH_CONSTRAINER1LOOP?$AA@ 3004fc10     bg_panimate.obj
 0002:00003c28       ??_C@_0BG@GFAJPKLM@BOTH_CONSTRAINEE1WALK?$AA@ 3004fc28     bg_panimate.obj
 0002:00003c40       ??_C@_0BG@MHHAFIPM@BOTH_CONSTRAINER1WALK?$AA@ 3004fc40     bg_panimate.obj
 0002:00003c58       ??_C@_0BH@JBJHDMIO@BOTH_CONSTRAINEE1STAND?$AA@ 3004fc58     bg_panimate.obj
 0002:00003c70       ??_C@_0BH@OHOJAELM@BOTH_CONSTRAINER1STAND?$AA@ 3004fc70     bg_panimate.obj
 0002:00003c88       ??_C@_0BG@OAPOJBBD@BOTH_CONSTRAINEE1HOLD?$AA@ 3004fc88     bg_panimate.obj
 0002:00003ca0       ??_C@_0BG@ECIHDDFD@BOTH_CONSTRAINER1HOLD?$AA@ 3004fca0     bg_panimate.obj
 0002:00003cb8       ??_C@_0O@JAMHDJDP@BOTH_PUNCHER1?$AA@ 3004fcb8     bg_panimate.obj
 0002:00003cc8       ??_C@_0BE@LPKJJENM@BOTH_REACHFORSABER1?$AA@ 3004fcc8     bg_panimate.obj
 0002:00003cdc       ??_C@_0BF@HGBIDKLM@BOTH_SILENCEGESTURE1?$AA@ 3004fcdc     bg_panimate.obj
 0002:00003cf4       ??_C@_0BE@EEMNDGPF@BOTH_STEADYSELF1END?$AA@ 3004fcf4     bg_panimate.obj
 0002:00003d08       ??_C@_0BB@BHOCMBMP@BOTH_STEADYSELF1?$AA@ 3004fd08     bg_panimate.obj
 0002:00003d1c       ??_C@_0O@KHABGCAK@BOTH_COME_ON1?$AA@ 3004fd1c     bg_panimate.obj
 0002:00003d2c       ??_C@_0P@HLPJIMGI@BOTH_THUMBING1?$AA@ 3004fd2c     bg_panimate.obj
 0002:00003d3c       ??_C@_0BJ@MEIJEGMN@BOTH_FORCEFOUNTAIN1_STOP?$AA@ 3004fd3c     bg_panimate.obj
 0002:00003d58       ??_C@_0BJ@KBCBJGAA@BOTH_FORCEFOUNTAIN1_LOOP?$AA@ 3004fd58     bg_panimate.obj
 0002:00003d74       ??_C@_0BL@DFGHEBME@BOTH_FORCEFOUNTAIN1_MIDDLE?$AA@ 3004fd74     bg_panimate.obj
 0002:00003d90       ??_C@_0BK@NIJNAMEG@BOTH_FORCEFOUNTAIN1_START?$AA@ 3004fd90     bg_panimate.obj
 0002:00003dac       ??_C@_0BE@DNJGCMHI@BOTH_LEANRIGHT3STOP?$AA@ 3004fdac     bg_panimate.obj
 0002:00003dc0       ??_C@_0BA@FFKACIFE@BOTH_LEANRIGHT3?$AA@ 3004fdc0     bg_panimate.obj
 0002:00003dd0       ??_C@_0BF@GDGPFECP@BOTH_LEANRIGHT3START?$AA@ 3004fdd0     bg_panimate.obj
 0002:00003de8       ??_C@_0BD@JBDEKLEG@BOTH_LEANLEFT2STOP?$AA@ 3004fde8     bg_panimate.obj
 0002:00003dfc       ??_C@_0BE@KCKCOLAD@BOTH_LEANLEFT2START?$AA@ 3004fdfc     bg_panimate.obj
 0002:00003e10       ??_C@_0BC@BCPBIFGO@BOTH_EXAMINE3STOP?$AA@ 3004fe10     bg_panimate.obj
 0002:00003e24       ??_C@_0O@OAOJEDIP@BOTH_EXAMINE3?$AA@ 3004fe24     bg_panimate.obj
 0002:00003e34       ??_C@_0BD@JHJEIGNH@BOTH_EXAMINE3START?$AA@ 3004fe34     bg_panimate.obj
 0002:00003e48       ??_C@_0BC@NJKNFGML@BOTH_EXAMINE2STOP?$AA@ 3004fe48     bg_panimate.obj
 0002:00003e5c       ??_C@_0O@PJPCHCMO@BOTH_EXAMINE2?$AA@ 3004fe5c     bg_panimate.obj
 0002:00003e6c       ??_C@_0BD@DBODINGD@BOTH_EXAMINE2START?$AA@ 3004fe6c     bg_panimate.obj
 0002:00003e80       ??_C@_0BC@FPDJCEGF@BOTH_EXAMINE1STOP?$AA@ 3004fe80     bg_panimate.obj
 0002:00003e94       ??_C@_0O@NCNPCBAN@BOTH_EXAMINE1?$AA@ 3004fe94     bg_panimate.obj
 0002:00003ea4       ??_C@_0BD@LJHPO@BOTH_EXAMINE1START?$AA@ 3004fea4     bg_panimate.obj
 0002:00003eb8       ??_C@_0BA@MHPGDDPE@BOTH_REACH1STOP?$AA@ 3004feb8     bg_panimate.obj
 0002:00003ec8       ??_C@_0BB@IHJLPLDL@BOTH_REACH1START?$AA@ 3004fec8     bg_panimate.obj
 0002:00003edc       ??_C@_0BH@KHIEGBCO@BOTH_SIT2HEADTILTLSTOP?$AA@ 3004fedc     bg_panimate.obj
 0002:00003ef4       ??_C@_0BI@OBPNLCKD@BOTH_SIT2HEADTILTLSTART?$AA@ 3004fef4     bg_panimate.obj
 0002:00003f0c       ??_C@_0BC@HJPKFEJH@BOTH_SITHEADSHAKE?$AA@ 3004ff0c     bg_panimate.obj
 0002:00003f20       ??_C@_0BA@OEGFAOP@BOTH_SITHEADNOD?$AA@ 3004ff20     bg_panimate.obj
 0002:00003f30       ??_C@_0BG@JHOOOBHG@BOTH_SITHEADTILTRSTOP?$AA@ 3004ff30     bg_panimate.obj
 0002:00003f48       ??_C@_0BH@IEHNABOF@BOTH_SITHEADTILTRSTART?$AA@ 3004ff48     bg_panimate.obj
 0002:00003f60       ??_C@_0BG@KODCICJN@BOTH_SITHEADTILTLSTOP?$AA@ 3004ff60     bg_panimate.obj
 0002:00003f78       ??_C@_0BH@LDJMOGHG@BOTH_SITHEADTILTLSTART?$AA@ 3004ff78     bg_panimate.obj
 0002:00003f90       ??_C@_0BG@PKMBPLDB@BOTH_HEADSHAKE1_REELO?$AA@ 3004ff90     bg_panimate.obj
 0002:00003fa8       ??_C@_0P@DFINNNBF@BOTH_HEADSHAKE?$AA@ 3004ffa8     bg_panimate.obj
 0002:00003fb8       ??_C@_0N@JGGIBJHN@BOTH_HEADNOD?$AA@ 3004ffb8     bg_panimate.obj
 0002:00003fc8       ??_C@_0BD@CBEOFNED@BOTH_HEADTILTRSTOP?$AA@ 3004ffc8     bg_panimate.obj
 0002:00003fdc       ??_C@_0BE@NCHIGFHK@BOTH_HEADTILTRSTART?$AA@ 3004ffdc     bg_panimate.obj
 0002:00003ff0       ??_C@_0BD@BIJCDOKI@BOTH_HEADTILTLSTOP?$AA@ 3004fff0     bg_panimate.obj
 0002:00004004       ??_C@_0BE@OFJJICOJ@BOTH_HEADTILTLSTART?$AA@ 30050004     bg_panimate.obj
 0002:00004018       ??_C@_0BA@HKDBGJNJ@BOTH_PAUSE1STOP?$AA@ 30050018     bg_panimate.obj
 0002:00004028       ??_C@_0BB@MCPJGABE@BOTH_PAUSE1START?$AA@ 30050028     bg_panimate.obj
 0002:0000403c       ??_C@_0BD@PFOIGPFB@BOTH_TALKGESTURE23?$AA@ 3005003c     bg_panimate.obj
 0002:00004050       ??_C@_0BD@OMPDFOBA@BOTH_TALKGESTURE22?$AA@ 30050050     bg_panimate.obj
 0002:00004064       ??_C@_0BD@MHNOANND@BOTH_TALKGESTURE21?$AA@ 30050064     bg_panimate.obj
 0002:00004078       ??_C@_0BI@EMCKMBNH@BOTH_TALKGESTURE20START?$AA@ 30050078     bg_panimate.obj
 0002:00004090       ??_C@_0BH@BJIBIBB@BOTH_TALKGESTURE19STOP?$AA@ 30050090     bg_panimate.obj
 0002:000040a8       ??_C@_0BI@FHDNIDOH@BOTH_TALKGESTURE19START?$AA@ 300500a8     bg_panimate.obj
 0002:000040c0       ??_C@_0BD@BEFKAIMD@BOTH_TALKGESTURE18?$AA@ 300500c0     bg_panimate.obj
 0002:000040d4       ??_C@_0BD@JDMCBEAM@BOTH_TALKGESTURE17?$AA@ 300500d4     bg_panimate.obj
 0002:000040e8       ??_C@_0BD@IKNJCFEN@BOTH_TALKGESTURE16?$AA@ 300500e8     bg_panimate.obj
 0002:000040fc       ??_C@_0BH@HGFKNIGK@BOTH_TALKGESTURE15STOP?$AA@ 300500fc     bg_panimate.obj
 0002:00004114       ??_C@_0BD@KBPEHGIO@BOTH_TALKGESTURE15?$AA@ 30050114     bg_panimate.obj
 0002:00004128       ??_C@_0BI@JAJNOJJD@BOTH_TALKGESTURE15START?$AA@ 30050128     bg_panimate.obj
 0002:00004140       ??_C@_0BD@LIOPEHMP@BOTH_TALKGESTURE14?$AA@ 30050140     bg_panimate.obj
 0002:00004154       ??_C@_0BH@KAADDLHH@BOTH_TALKGESTURE13STOP?$AA@ 30050154     bg_panimate.obj
 0002:0000416c       ??_C@_0BD@PHKONBAI@BOTH_TALKGESTURE13?$AA@ 3005016c     bg_panimate.obj
 0002:00004180       ??_C@_0BI@PDENNMKJ@BOTH_TALKGESTURE13START?$AA@ 30050180     bg_panimate.obj
 0002:00004198       ??_C@_0BD@OOLFOAEJ@BOTH_TALKGESTURE12?$AA@ 30050198     bg_panimate.obj
 0002:000041ac       ??_C@_0BH@ONMLJKHM@BOTH_TALKGESTURE11STOP?$AA@ 300501ac     bg_panimate.obj
 0002:000041c4       ??_C@_0BI@GENCMNIA@BOTH_TALKGESTURE11START?$AA@ 300501c4     bg_panimate.obj
 0002:000041dc       ??_C@_0BD@NMIDICML@BOTH_TALKGESTURE10?$AA@ 300501dc     bg_panimate.obj
 0002:000041f0       ??_C@_0BC@LLIPLOIK@BOTH_TALKGESTURE9?$AA@ 300501f0     bg_panimate.obj
 0002:00004204       ??_C@_0BG@JMHBACCH@BOTH_TALKGESTURE8STOP?$AA@ 30050204     bg_panimate.obj
 0002:0000421c       ??_C@_0BC@KCJEIPML@BOTH_TALKGESTURE8?$AA@ 3005021c     bg_panimate.obj
 0002:00004230       ??_C@_0BH@JIBKPPGE@BOTH_TALKGESTURE8START?$AA@ 30050230     bg_panimate.obj
 0002:00004248       ??_C@_0BG@GNCHLAPC@BOTH_TALKGESTURE7STOP?$AA@ 30050248     bg_panimate.obj
 0002:00004260       ??_C@_0BC@CFAMJDAE@BOTH_TALKGESTURE7?$AA@ 30050260     bg_panimate.obj
 0002:00004274       ??_C@_0BH@GOFCIPIN@BOTH_TALKGESTURE7START?$AA@ 30050274     bg_panimate.obj
 0002:0000428c       ??_C@_0BG@KGHLGDFH@BOTH_TALKGESTURE6STOP?$AA@ 3005028c     bg_panimate.obj
 0002:000042a4       ??_C@_0BC@DMBHKCEF@BOTH_TALKGESTURE6?$AA@ 300502a4     bg_panimate.obj
 0002:000042b8       ??_C@_0BH@MICFIEDJ@BOTH_TALKGESTURE6START?$AA@ 300502b8     bg_panimate.obj
 0002:000042d0       ??_C@_0BG@CAOPBBPJ@BOTH_TALKGESTURE5STOP?$AA@ 300502d0     bg_panimate.obj
 0002:000042e8       ??_C@_0BC@BHDKPBIG@BOTH_TALKGESTURE5?$AA@ 300502e8     bg_panimate.obj
 0002:000042fc       ??_C@_0BH@PJMNJOKE@BOTH_TALKGESTURE5START?$AA@ 300502fc     bg_panimate.obj
 0002:00004314       ??_C@_0BG@OLLDMCFM@BOTH_TALKGESTURE4STOP?$AA@ 30050314     bg_panimate.obj
 0002:0000432c       ??_C@_0BC@OCBMAMH@BOTH_TALKGESTURE4?$AA@ 3005032c     bg_panimate.obj
 0002:00004340       ??_C@_0BH@FPLKJFBA@BOTH_TALKGESTURE4START?$AA@ 30050340     bg_panimate.obj
 0002:00004358       ??_C@_0BC@EBGAFGAA@BOTH_TALKGESTURE3?$AA@ 30050358     bg_panimate.obj
 0002:0000436c       ??_C@_0BC@FIHLGHEB@BOTH_TALKGESTURE2?$AA@ 3005036c     bg_panimate.obj
 0002:00004380       ??_C@_0BC@HDFGDEIC@BOTH_TALKGESTURE1?$AA@ 30050380     bg_panimate.obj
 0002:00004394       ??_C@_0BD@KGADCINA@BOTH_TALKCOMM1STOP?$AA@ 30050394     bg_panimate.obj
 0002:000043a8       ??_C@_0P@IMEACJDE@BOTH_TALKCOMM1?$AA@ 300503a8     bg_panimate.obj
 0002:000043b8       ??_C@_0BE@LLPJOKPB@BOTH_TALKCOMM1START?$AA@ 300503b8     bg_panimate.obj
 0002:000043cc       ??_C@_0L@MHEHAIKB@BOTH_TALK2?$AA@ 300503cc     bg_panimate.obj
 0002:000043d8       ??_C@_0L@OMGKFLGC@BOTH_TALK1?$AA@ 300503d8     bg_panimate.obj
 0002:000043e4       ??_C@_0BE@OAMCANFF@BOTH_WALK1TALKCOMM1?$AA@ 300503e4     bg_panimate.obj
 0002:000043f8       ??_C@_0O@ECOGADOD@BOTH_GESTURE3?$AA@ 300503f8     bg_panimate.obj
 0002:00004408       ??_C@_0O@FLPNDCKC@BOTH_GESTURE2?$AA@ 30050408     bg_panimate.obj
 0002:00004418       ??_C@_0O@HANAGBGB@BOTH_GESTURE1?$AA@ 30050418     bg_panimate.obj
 0002:00004428       ??_C@_0M@ICGILOIF@BOTH_ALERT1?$AA@ 30050428     bg_panimate.obj
 0002:00004434       ??_C@_0BB@LLGPJFGM@BOTH_GUARD_IDLE1?$AA@ 30050434     bg_panimate.obj
 0002:00004448       ??_C@_0BH@IIALJNIM@BOTH_GUARD_LOOKAROUND1?$AA@ 30050448     bg_panimate.obj
 0002:00004460       ??_C@_0BJ@PHBEHMKF@BOTH_CONSOLE2HOLDCOMSTOP?$AA@ 30050460     bg_panimate.obj
 0002:0000447c       ??_C@_0BK@JLMHHIBG@BOTH_CONSOLE2HOLDCOMSTART?$AA@ 3005047c     bg_panimate.obj
 0002:00004498       ??_C@_0BC@JKGILGAP@BOTH_CONSOLE2STOP?$AA@ 30050498     bg_panimate.obj
 0002:000044ac       ??_C@_0O@BGELBNFP@BOTH_CONSOLE2?$AA@ 300504ac     bg_panimate.obj
 0002:000044bc       ??_C@_0BD@KNKJEOCK@BOTH_CONSOLE2START?$AA@ 300504bc     bg_panimate.obj
 0002:000044d0       ??_C@_0BC@BMPMMEKB@BOTH_CONSOLE1STOP?$AA@ 300504d0     bg_panimate.obj
 0002:000044e4       ??_C@_0O@DNGGEOJM@BOTH_CONSOLE1?$AA@ 300504e4     bg_panimate.obj
 0002:000044f4       ??_C@_0BD@JMEBFELH@BOTH_CONSOLE1START?$AA@ 300504f4     bg_panimate.obj
 0002:00004508       ??_C@_0BL@HDGAEFLK@BOTH_STAND5LOOK180LEFTSTOP?$AA@ 30050508     bg_panimate.obj
 0002:00004524       ??_C@_0BM@BGELABNK@BOTH_STAND5LOOK180LEFTSTART?$AA@ 30050524     bg_panimate.obj
 0002:00004540       ??_C@_0BJ@HFICOBLF@BOTH_STAND5TURNRIGHTSTOP?$AA@ 30050540     bg_panimate.obj
 0002:0000455c       ??_C@_0BK@IGPCPOOP@BOTH_STAND5TURNRIGHTSTART?$AA@ 3005055c     bg_panimate.obj
 0002:00004578       ??_C@_0BI@JADJJLGI@BOTH_STAND5TURNLEFTSTOP?$AA@ 30050578     bg_panimate.obj
 0002:00004590       ??_C@_0BJ@HOHFOLPM@BOTH_STAND5TURNLEFTSTART?$AA@ 30050590     bg_panimate.obj
 0002:000045ac       ??_C@_0BL@EHCDGJJ@BOTH_STAND5SHIFTWEIGHTSTOP?$AA@ 300505ac     bg_panimate.obj
 0002:000045c8       ??_C@_0BM@LEFLGCNL@BOTH_STAND5SHIFTWEIGHTSTART?$AA@ 300505c8     bg_panimate.obj
 0002:000045e4       ??_C@_0BH@LKALMHBN@BOTH_STAND5SHIFTWEIGHT?$AA@ 300505e4     bg_panimate.obj
 0002:000045fc       ??_C@_0BE@PHIMDIEF@BOTH_STAND8TOSTAND5?$AA@ 300505fc     bg_panimate.obj
 0002:00004610       ??_C@_0BE@LDCJBNIF@BOTH_STAND7TOSTAND8?$AA@ 30050610     bg_panimate.obj
 0002:00004624       ??_C@_0BE@LHNMMNLI@BOTH_STAND5TOSTAND8?$AA@ 30050624     bg_panimate.obj
 0002:00004638       ??_C@_0BO@JCPBABCF@BOTH_STARTLEDLOOKLEFTTOSTAND5?$AA@ 30050638     bg_panimate.obj
 0002:00004658       ??_C@_0BM@LKMKNIB@BOTH_STAND5STARTLEDLOOKLEFT?$AA@ 30050658     bg_panimate.obj
 0002:00004674       ??_C@_0BB@KAKPAJPG@BOTH_STAND5TOAIM?$AA@ 30050674     bg_panimate.obj
 0002:00004688       ??_C@_0BE@GGBOHGPB@BOTH_STAND5TOSTAND1?$AA@ 30050688     bg_panimate.obj
 0002:0000469c       ??_C@_0BE@LJJBDIP@BOTH_STAND1TOSTAND5?$AA@ 3005069c     bg_panimate.obj
 0002:000046b0       ??_C@_0BC@CAEEJNBK@BOTH_STAND5_REELO?$AA@ 300506b0     bg_panimate.obj
 0002:000046c4       ??_C@_0BC@KEAOJDOA@BOTH_STAND1_REELO?$AA@ 300506c4     bg_panimate.obj
 0002:000046d8       ??_C@_0BC@KJMCMBAN@BOTH_STAND5TOSIT3?$AA@ 300506d8     bg_panimate.obj
 0002:000046ec       ??_C@_0O@JCHGFLGA@BOTH_STANDUP2?$AA@ 300506ec     bg_panimate.obj
 0002:000046fc       ??_C@_0O@LJFLAIKD@BOTH_STANDUP1?$AA@ 300506fc     bg_panimate.obj
 0002:0000470c       ??_C@_0BF@MNEGLANN@BOTH_STAND4TOATTACK2?$AA@ 3005070c     bg_panimate.obj
 0002:00004724       ??_C@_0BC@DHGNJLPF@BOTH_STANDTOWALK1?$AA@ 30050724     bg_panimate.obj
 0002:00004738       ??_C@_0P@NHEJHBNL@BOTH_STAND4TO2?$AA@ 30050738     bg_panimate.obj
 0002:00004748       ??_C@_0P@OFDCDPN@BOTH_STAND2TO4?$AA@ 30050748     bg_panimate.obj
 0002:00004758       ??_C@_0P@HDCENHLI@BOTH_STAND2TO1?$AA@ 30050758     bg_panimate.obj
 0002:00004768       ??_C@_0P@BPKJPOKL@BOTH_STAND1TO2?$AA@ 30050768     bg_panimate.obj
 0002:00004778       ??_C@_0P@EOEEPOAI@BOTH_STAND3TO1?$AA@ 30050778     bg_panimate.obj
 0002:00004788       ??_C@_0P@GLCMPOK@BOTH_STAND1TO3?$AA@ 30050788     bg_panimate.obj
 0002:00004798       ??_C@_0M@LPAHOFEK@BOTH_STAND8?$AA@ 30050798     bg_panimate.obj
 0002:000047a4       ??_C@_0M@DIJPPJIF@BOTH_STAND7?$AA@ 300507a4     bg_panimate.obj
 0002:000047b0       ??_C@_0M@CBIEMIME@BOTH_STAND6?$AA@ 300507b0     bg_panimate.obj
 0002:000047bc       ??_C@_0BB@BAMNDOOB@BOTH_STAND5IDLE1?$AA@ 300507bc     bg_panimate.obj
 0002:000047d0       ??_C@_0M@KKJJLAH@BOTH_STAND5?$AA@ 300507d0     bg_panimate.obj
 0002:000047dc       ??_C@_0BB@LGLKDFFF@BOTH_STAND4IDLE1?$AA@ 300507dc     bg_panimate.obj
 0002:000047f0       ??_C@_0M@BDLCKKEG@BOTH_STAND4?$AA@ 300507f0     bg_panimate.obj
 0002:000047fc       ??_C@_0BB@HDBNALNL@BOTH_STAND3IDLE1?$AA@ 300507fc     bg_panimate.obj
 0002:00004810       ??_C@_0M@FMPDDMIB@BOTH_STAND3?$AA@ 30050810     bg_panimate.obj
 0002:0000481c       ??_C@_0BB@POEHFDKM@BOTH_STAND2IDLE2?$AA@ 3005081c     bg_panimate.obj
 0002:00004830       ??_C@_0BB@NFGKAAGP@BOTH_STAND2IDLE1?$AA@ 30050830     bg_panimate.obj
 0002:00004844       ??_C@_0M@EFOIANMA@BOTH_STAND2?$AA@ 30050844     bg_panimate.obj
 0002:00004850       ??_C@_0BB@OEICBKPC@BOTH_STAND1IDLE1?$AA@ 30050850     bg_panimate.obj
 0002:00004864       ??_C@_0M@GOMFFOAD@BOTH_STAND1?$AA@ 30050864     bg_panimate.obj
 0002:00004870       ??_C@_0BH@INLIBEMO@BOTH_CROUCHATTACKBACK1?$AA@ 30050870     bg_panimate.obj
 0002:00004888       ??_C@_0BC@BEBALKBG@BOTH_LUNGE2_B__T_?$AA@ 30050888     bg_panimate.obj
 0002:0000489c       ??_C@_0BG@CELCKDAN@BOTH_FORCELEAP2_T__B_?$AA@ 3005089c     bg_panimate.obj
 0002:000048b4       ??_C@_0BG@BFMBDODP@BOTH_JUMPFLIPSTABDOWN?$AA@ 300508b4     bg_panimate.obj
 0002:000048cc       ??_C@_0BI@HBGICLGG@BOTH_JUMPFLIPSLASHDOWN1?$AA@ 300508cc     bg_panimate.obj
 0002:000048e4       ??_C@_0BB@CBLKELKF@BOTH_ATTACK_BACK?$AA@ 300508e4     bg_panimate.obj
 0002:000048f8       ??_C@_0BC@PILNDLJJ@BOTH_A2_STABBACK1?$AA@ 300508f8     bg_panimate.obj
 0002:0000490c       ??_C@_0BG@OHKGBDLF@BOTH_SABERSLOW_STANCE?$AA@ 3005090c     bg_panimate.obj
 0002:00004924       ??_C@_0BG@LMJGJJPN@BOTH_SABERFAST_STANCE?$AA@ 30050924     bg_panimate.obj
 0002:0000493c       ??_C@_0BD@KOAOCCAN@BOTH_CCWCIRCLELOCK?$AA@ 3005093c     bg_panimate.obj
 0002:00004950       ??_C@_0BC@KJPAFMDI@BOTH_CWCIRCLELOCK?$AA@ 30050950     bg_panimate.obj
 0002:00004964       ??_C@_0BE@OHBEAMBI@BOTH_CCWCIRCLEBREAK?$AA@ 30050964     bg_panimate.obj
 0002:00004978       ??_C@_0BD@LBKADGEF@BOTH_CWCIRCLEBREAK?$AA@ 30050978     bg_panimate.obj
 0002:0000498c       ??_C@_0BI@CIMIIHDK@BOTH_CCWCIRCLE_A2__R__L?$AA@ 3005098c     bg_panimate.obj
 0002:000049a4       ??_C@_0BH@DBGDLJEC@BOTH_CWCIRCLE_A2__L__R?$AA@ 300509a4     bg_panimate.obj
 0002:000049bc       ??_C@_0BI@PBNOCOLC@BOTH_CCWCIRCLE_R2__L_S1?$AA@ 300509bc     bg_panimate.obj
 0002:000049d4       ??_C@_0BH@DMDECPBF@BOTH_CWCIRCLE_R2__R_S1?$AA@ 300509d4     bg_panimate.obj
 0002:000049ec       ??_C@_0N@DLCMNLOG@BOTH_BF1LOCK?$AA@ 300509ec     bg_panimate.obj
 0002:000049fc       ??_C@_0O@NAFJBFBB@BOTH_BF1BREAK?$AA@ 300509fc     bg_panimate.obj
 0002:00004a0c       ??_C@_0P@OMJLFDIE@BOTH_BF1RETURN?$AA@ 30050a0c     bg_panimate.obj
 0002:00004a1c       ??_C@_0N@LNLIKJEI@BOTH_BF2LOCK?$AA@ 30050a1c     bg_panimate.obj
 0002:00004a2c       ??_C@_0O@OBLBAPIM@BOTH_BF2BREAK?$AA@ 30050a2c     bg_panimate.obj
 0002:00004a3c       ??_C@_0P@GCBEFEGH@BOTH_BF2RETURN?$AA@ 30050a3c     bg_panimate.obj
 0002:00004a4c       ??_C@_0O@IIJBEMKH@BOTH_H1_S1_BR?$AA@ 30050a4c     bg_panimate.obj
 0002:00004a5c       ??_C@_0O@DNDPDCOK@BOTH_H1_S1_B_?$AA@ 30050a5c     bg_panimate.obj
 0002:00004a6c       ??_C@_0O@FMNAHDHI@BOTH_H1_S1_BL?$AA@ 30050a6c     bg_panimate.obj
 0002:00004a7c       ??_C@_0O@EEHLKMLK@BOTH_H1_S1_TL?$AA@ 30050a7c     bg_panimate.obj
 0002:00004a8c       ??_C@_0O@JADKJDGF@BOTH_H1_S1_TR?$AA@ 30050a8c     bg_panimate.obj
 0002:00004a9c       ??_C@_0O@CFJEONCI@BOTH_H1_S1_T_?$AA@ 30050a9c     bg_panimate.obj
 0002:00004aac       ??_C@_0O@FBCPDMHF@BOTH_V1_B__S1?$AA@ 30050aac     bg_panimate.obj
 0002:00004abc       ??_C@_0O@HGGPNBCH@BOTH_V1_BL_S1?$AA@ 30050abc     bg_panimate.obj
 0002:00004acc       ??_C@_0O@MJCHMAGC@BOTH_V1__L_S1?$AA@ 30050acc     bg_panimate.obj
 0002:00004adc       ??_C@_0O@KDOADAKB@BOTH_V1_TL_S1?$AA@ 30050adc     bg_panimate.obj
 0002:00004aec       ??_C@_0O@IEKANNPD@BOTH_V1_T__S1?$AA@ 30050aec     bg_panimate.obj
 0002:00004afc       ??_C@_0O@HMDABJEC@BOTH_V1_TR_S1?$AA@ 30050afc     bg_panimate.obj
 0002:00004b0c       ??_C@_0O@BGPHOJIB@BOTH_V1__R_S1?$AA@ 30050b0c     bg_panimate.obj
 0002:00004b1c       ??_C@_0O@KJLPPIME@BOTH_V1_BR_S1?$AA@ 30050b1c     bg_panimate.obj
 0002:00004b2c       ??_C@_0O@LBBMHAGC@BOTH_K1_S1_BR?$AA@ 30050b2c     bg_panimate.obj
 0002:00004b3c       ??_C@_0O@ELCAOCP@BOTH_K1_S1_B_?$AA@ 30050b3c     bg_panimate.obj
 0002:00004b4c       ??_C@_0O@GFFNEPLN@BOTH_K1_S1_BL?$AA@ 30050b4c     bg_panimate.obj
 0002:00004b5c       ??_C@_0O@HNPGJAHP@BOTH_K1_S1_TL?$AA@ 30050b5c     bg_panimate.obj
 0002:00004b6c       ??_C@_0O@KJLHKPKA@BOTH_K1_S1_TR?$AA@ 30050b6c     bg_panimate.obj
 0002:00004b7c       ??_C@_0O@BMBJNBON@BOTH_K1_S1_T_?$AA@ 30050b7c     bg_panimate.obj
 0002:00004b8c       ??_C@_0O@JPIJKMMO@BOTH_P1_S1_BR?$AA@ 30050b8c     bg_panimate.obj
 0002:00004b9c       ??_C@_0O@ELMIJDBB@BOTH_P1_S1_BL?$AA@ 30050b9c     bg_panimate.obj
 0002:00004bac       ??_C@_0O@FDGDEMND@BOTH_P1_S1_TL?$AA@ 30050bac     bg_panimate.obj
 0002:00004bbc       ??_C@_0O@IHCCHDAM@BOTH_P1_S1_TR?$AA@ 30050bbc     bg_panimate.obj
 0002:00004bcc       ??_C@_0O@DCIMANEB@BOTH_P1_S1_T_?$AA@ 30050bcc     bg_panimate.obj
 0002:00004bdc       ??_C@_0O@KFDHOHDF@BOTH_D5_B____?$AA@ 30050bdc     bg_panimate.obj
 0002:00004bec       ??_C@_0O@ICHHAKGH@BOTH_D5_BL___?$AA@ 30050bec     bg_panimate.obj
 0002:00004bfc       ??_C@_0O@DNDPBLCC@BOTH_D5__L___?$AA@ 30050bfc     bg_panimate.obj
 0002:00004c0c       ??_C@_0O@FHPIOLOB@BOTH_D5_TL___?$AA@ 30050c0c     bg_panimate.obj
 0002:00004c1c       ??_C@_0O@IICIMCAC@BOTH_D5_TR___?$AA@ 30050c1c     bg_panimate.obj
 0002:00004c2c       ??_C@_0O@OCOPDCMB@BOTH_D5__R___?$AA@ 30050c2c     bg_panimate.obj
 0002:00004c3c       ??_C@_0O@FNKHCDIE@BOTH_D5_BR___?$AA@ 30050c3c     bg_panimate.obj
 0002:00004c4c       ??_C@_0O@PBGNHDON@BOTH_B5_BL___?$AA@ 30050c4c     bg_panimate.obj
 0002:00004c5c       ??_C@_0O@EOCFGCKI@BOTH_B5__L___?$AA@ 30050c5c     bg_panimate.obj
 0002:00004c6c       ??_C@_0O@CEOCJCGL@BOTH_B5_TL___?$AA@ 30050c6c     bg_panimate.obj
 0002:00004c7c       ??_C@_0O@DKCHPDJ@BOTH_B5_T____?$AA@ 30050c7c     bg_panimate.obj
 0002:00004c8c       ??_C@_0O@PLDCLLII@BOTH_B5_TR___?$AA@ 30050c8c     bg_panimate.obj
 0002:00004c9c       ??_C@_0O@JBPFELEL@BOTH_B5__R___?$AA@ 30050c9c     bg_panimate.obj
 0002:00004cac       ??_C@_0O@COLNFKAO@BOTH_B5_BR___?$AA@ 30050cac     bg_panimate.obj
 0002:00004cbc       ??_C@_0O@KFJGEGLE@BOTH_R5_TR_S1?$AA@ 30050cbc     bg_panimate.obj
 0002:00004ccc       ??_C@_0O@KPMJIONB@BOTH_R5_BL_S1?$AA@ 30050ccc     bg_panimate.obj
 0002:00004cdc       ??_C@_0O@HABJKHDC@BOTH_R5_BR_S1?$AA@ 30050cdc     bg_panimate.obj
 0002:00004cec       ??_C@_0O@HKEGGPFH@BOTH_R5_TL_S1?$AA@ 30050cec     bg_panimate.obj
 0002:00004cfc       ??_C@_0O@MPFBLGHH@BOTH_R5__R_S1?$AA@ 30050cfc     bg_panimate.obj
 0002:00004d0c       ??_C@_0O@BAIBJPJE@BOTH_R5__L_S1?$AA@ 30050d0c     bg_panimate.obj
 0002:00004d1c       ??_C@_0O@IIIJGDID@BOTH_R5_B__S1?$AA@ 30050d1c     bg_panimate.obj
 0002:00004d2c       ??_C@_0O@DKOFEBDD@BOTH_S5_S1_TR?$AA@ 30050d2c     bg_panimate.obj
 0002:00004d3c       ??_C@_0O@PGAPKBCO@BOTH_S5_S1_BL?$AA@ 30050d3c     bg_panimate.obj
 0002:00004d4c       ??_C@_0O@CCEOJOPB@BOTH_S5_S1_BR?$AA@ 30050d4c     bg_panimate.obj
 0002:00004d5c       ??_C@_0O@OOKEHOOM@BOTH_S5_S1_TL?$AA@ 30050d5c     bg_panimate.obj
 0002:00004d6c       ??_C@_0O@DGLAKONC@BOTH_S5_S1__R?$AA@ 30050d6c     bg_panimate.obj
 0002:00004d7c       ??_C@_0O@OCPBJBAN@BOTH_S5_S1__L?$AA@ 30050d7c     bg_panimate.obj
 0002:00004d8c       ??_C@_0O@IPELDPHO@BOTH_S5_S1_T_?$AA@ 30050d8c     bg_panimate.obj
 0002:00004d9c       ??_C@_0O@EDANOGGF@BOTH_T5_BL_TL?$AA@ 30050d9c     bg_panimate.obj
 0002:00004dac       ??_C@_0O@CCOCKHPH@BOTH_T5_BL_T_?$AA@ 30050dac     bg_panimate.obj
 0002:00004dbc       ??_C@_0O@OEOOCIOC@BOTH_T5__L_BL?$AA@ 30050dbc     bg_panimate.obj
 0002:00004dcc       ??_C@_0O@JNKKLGLC@BOTH_T5__L_T_?$AA@ 30050dcc     bg_panimate.obj
 0002:00004ddc       ??_C@_0O@CIAEMIPP@BOTH_T5__L_TR?$AA@ 30050ddc     bg_panimate.obj
 0002:00004dec       ??_C@_0O@JKNHOIAC@BOTH_T5_TL__L?$AA@ 30050dec     bg_panimate.obj
 0002:00004dfc       ??_C@_0O@PHGNEGHB@BOTH_T5_TL_T_?$AA@ 30050dfc     bg_panimate.obj
 0002:00004e0c       ??_C@_0O@ECMDDIDM@BOTH_T5_TL_TR?$AA@ 30050e0c     bg_panimate.obj
 0002:00004e1c       ??_C@_0O@EOJGNHNN@BOTH_T5_TL__R?$AA@ 30050e1c     bg_panimate.obj
 0002:00004e2c       ??_C@_0O@CILNGPJC@BOTH_T5_TR_T_?$AA@ 30050e2c     bg_panimate.obj
 0002:00004e3c       ??_C@_0O@JBEGPODO@BOTH_T5_TR__R?$AA@ 30050e3c     bg_panimate.obj
 0002:00004e4c       ??_C@_0O@ECHKJPFB@BOTH_T5__R_T_?$AA@ 30050e4c     bg_panimate.obj
 0002:00004e5c       ??_C@_0O@OPHPDONO@BOTH_T5__R_BR?$AA@ 30050e5c     bg_panimate.obj
 0002:00004e6c       ??_C@_0O@PNDCIOBE@BOTH_T5_BR_T_?$AA@ 30050e6c     bg_panimate.obj
 0002:00004e7c       ??_C@_0O@EIJMPAFJ@BOTH_T5_BR_TR?$AA@ 30050e7c     bg_panimate.obj
 0002:00004e8c       ??_C@_0O@EPFIAJIE@BOTH_T5_BL__L?$AA@ 30050e8c     bg_panimate.obj
 0002:00004e9c       ??_C@_0O@JHEMNJLK@BOTH_T5_BL_TR?$AA@ 30050e9c     bg_panimate.obj
 0002:00004eac       ??_C@_0O@JLBJDGFL@BOTH_T5_BL__R?$AA@ 30050eac     bg_panimate.obj
 0002:00004ebc       ??_C@_0O@IPOHAGHI@BOTH_T5_BL_BR?$AA@ 30050ebc     bg_panimate.obj
 0002:00004ecc       ??_C@_0O@PMEFPHCA@BOTH_T5__L_TL?$AA@ 30050ecc     bg_panimate.obj
 0002:00004edc       ??_C@_0O@CEFBCHBO@BOTH_T5__L__R?$AA@ 30050edc     bg_panimate.obj
 0002:00004eec       ??_C@_0O@DAKPBHDN@BOTH_T5__L_BR?$AA@ 30050eec     bg_panimate.obj
 0002:00004efc       ??_C@_0O@IOCJNICB@BOTH_T5_TL_BL?$AA@ 30050efc     bg_panimate.obj
 0002:00004f0c       ??_C@_0O@FKGIOHPO@BOTH_T5_TL_BR?$AA@ 30050f0c     bg_panimate.obj
 0002:00004f1c       ??_C@_0O@KJGJDFHD@BOTH_T5_T__BL?$AA@ 30050f1c     bg_panimate.obj
 0002:00004f2c       ??_C@_0O@LNJHAFFA@BOTH_T5_T___L?$AA@ 30050f2c     bg_panimate.obj
 0002:00004f3c       ??_C@_0O@LBMCOKLB@BOTH_T5_T__TL?$AA@ 30050f3c     bg_panimate.obj
 0002:00004f4c       ??_C@_0O@GFIDNFGO@BOTH_T5_T__TR?$AA@ 30050f4c     bg_panimate.obj
 0002:00004f5c       ??_C@_0O@GJNGDKIP@BOTH_T5_T___R?$AA@ 30050f5c     bg_panimate.obj
 0002:00004f6c       ??_C@_0O@HNCIAKKM@BOTH_T5_T__BR?$AA@ 30050f6c     bg_panimate.obj
 0002:00004f7c       ??_C@_0O@FBPJPBMC@BOTH_T5_TR_BL?$AA@ 30050f7c     bg_panimate.obj
 0002:00004f8c       ??_C@_0O@EFAHMBOB@BOTH_T5_TR__L?$AA@ 30050f8c     bg_panimate.obj
 0002:00004f9c       ??_C@_0O@EJFCCOAA@BOTH_T5_TR_TL?$AA@ 30050f9c     bg_panimate.obj
 0002:00004fac       ??_C@_0O@IFLIMOBN@BOTH_T5_TR_BR?$AA@ 30050fac     bg_panimate.obj
 0002:00004fbc       ??_C@_0O@DLDOABAB@BOTH_T5__R_BL?$AA@ 30050fbc     bg_panimate.obj
 0002:00004fcc       ??_C@_0O@CPMADBCC@BOTH_T5__R__L?$AA@ 30050fcc     bg_panimate.obj
 0002:00004fdc       ??_C@_0O@CDJFNOMD@BOTH_T5__R_TL?$AA@ 30050fdc     bg_panimate.obj
 0002:00004fec       ??_C@_0O@PHNEOBBM@BOTH_T5__R_TR?$AA@ 30050fec     bg_panimate.obj
 0002:00004ffc       ??_C@_0O@IEHGBAEE@BOTH_T5_BR_BL?$AA@ 30050ffc     bg_panimate.obj
 0002:0000500c       ??_C@_0O@JAIICAGH@BOTH_T5_BR__L?$AA@ 3005100c     bg_panimate.obj
 0002:0000501c       ??_C@_0O@JMNNMPIG@BOTH_T5_BR_TL?$AA@ 3005101c     bg_panimate.obj
 0002:0000502c       ??_C@_0O@EEMJBPLI@BOTH_T5_BR__R?$AA@ 3005102c     bg_panimate.obj
 0002:0000503c       ??_C@_0O@LHKOPGPM@BOTH_A5_TR_BL?$AA@ 3005103c     bg_panimate.obj
 0002:0000504c       ??_C@_0O@HBBLNOIE@BOTH_A5_BL_TR?$AA@ 3005104c     bg_panimate.obj
 0002:0000505c       ??_C@_0O@HKIKMILI@BOTH_A5_BR_TL?$AA@ 3005105c     bg_panimate.obj
 0002:0000506c       ??_C@_0O@LMDPOAMA@BOTH_A5_TL_BR?$AA@ 3005106c     bg_panimate.obj
 0002:0000507c       ??_C@_0O@MJJHDGBM@BOTH_A5__R__L?$AA@ 3005107c     bg_panimate.obj
 0002:0000508c       ??_C@_0O@MCAGCACA@BOTH_A5__L__R?$AA@ 3005108c     bg_panimate.obj
 0002:0000509c       ??_C@_0O@CONBHDNP@BOTH_A5_T__B_?$AA@ 3005109c     bg_panimate.obj
 0002:000050ac       ??_C@_0O@GJJNOHKL@BOTH_D4_B____?$AA@ 300510ac     bg_panimate.obj
 0002:000050bc       ??_C@_0O@EONNAKPJ@BOTH_D4_BL___?$AA@ 300510bc     bg_panimate.obj
 0002:000050cc       ??_C@_0O@PBJFBLLM@BOTH_D4__L___?$AA@ 300510cc     bg_panimate.obj
 0002:000050dc       ??_C@_0O@JLFCOLHP@BOTH_D4_TL___?$AA@ 300510dc     bg_panimate.obj
 0002:000050ec       ??_C@_0O@EEICMCJM@BOTH_D4_TR___?$AA@ 300510ec     bg_panimate.obj
 0002:000050fc       ??_C@_0O@COEFDCFP@BOTH_D4__R___?$AA@ 300510fc     bg_panimate.obj
 0002:0000510c       ??_C@_0O@JBANCDBK@BOTH_D4_BR___?$AA@ 3005110c     bg_panimate.obj
 0002:0000511c       ??_C@_0O@DNMHHDHD@BOTH_B4_BL___?$AA@ 3005111c     bg_panimate.obj
 0002:0000512c       ??_C@_0O@ICIPGCDG@BOTH_B4__L___?$AA@ 3005112c     bg_panimate.obj
 0002:0000513c       ??_C@_0O@OIEIJCPF@BOTH_B4_TL___?$AA@ 3005113c     bg_panimate.obj
 0002:0000514c       ??_C@_0O@MPAIHPKH@BOTH_B4_T____?$AA@ 3005114c     bg_panimate.obj
 0002:0000515c       ??_C@_0O@DHJILLBG@BOTH_B4_TR___?$AA@ 3005115c     bg_panimate.obj
 0002:0000516c       ??_C@_0O@FNFPELNF@BOTH_B4__R___?$AA@ 3005116c     bg_panimate.obj
 0002:0000517c       ??_C@_0O@OCBHFKJA@BOTH_B4_BR___?$AA@ 3005117c     bg_panimate.obj
 0002:0000518c       ??_C@_0O@GJDMEGCK@BOTH_R4_TR_S1?$AA@ 3005118c     bg_panimate.obj
 0002:0000519c       ??_C@_0O@GDGDIOEP@BOTH_R4_BL_S1?$AA@ 3005119c     bg_panimate.obj
 0002:000051ac       ??_C@_0O@LMLDKHKM@BOTH_R4_BR_S1?$AA@ 300511ac     bg_panimate.obj
 0002:000051bc       ??_C@_0O@LGOMGPMJ@BOTH_R4_TL_S1?$AA@ 300511bc     bg_panimate.obj
 0002:000051cc       ??_C@_0O@DPLLGOJ@BOTH_R4__R_S1?$AA@ 300511cc     bg_panimate.obj
 0002:000051dc       ??_C@_0O@NMCLJPAK@BOTH_R4__L_S1?$AA@ 300511dc     bg_panimate.obj
 0002:000051ec       ??_C@_0O@EECDGDBN@BOTH_R4_B__S1?$AA@ 300511ec     bg_panimate.obj
 0002:000051fc       ??_C@_0O@PGEPEBKN@BOTH_S4_S1_TR?$AA@ 300511fc     bg_panimate.obj
 0002:0000520c       ??_C@_0O@DKKFKBLA@BOTH_S4_S1_BL?$AA@ 3005120c     bg_panimate.obj
 0002:0000521c       ??_C@_0O@OOOEJOGP@BOTH_S4_S1_BR?$AA@ 3005121c     bg_panimate.obj
 0002:0000522c       ??_C@_0O@CCAOHOHC@BOTH_S4_S1_TL?$AA@ 3005122c     bg_panimate.obj
 0002:0000523c       ??_C@_0O@PKBKKOEM@BOTH_S4_S1__R?$AA@ 3005123c     bg_panimate.obj
 0002:0000524c       ??_C@_0O@COFLJBJD@BOTH_S4_S1__L?$AA@ 3005124c     bg_panimate.obj
 0002:0000525c       ??_C@_0O@EDOBDPOA@BOTH_S4_S1_T_?$AA@ 3005125c     bg_panimate.obj
 0002:0000526c       ??_C@_0O@IPKHOGPL@BOTH_T4_BL_TL?$AA@ 3005126c     bg_panimate.obj
 0002:0000527c       ??_C@_0O@OOEIKHGJ@BOTH_T4_BL_T_?$AA@ 3005127c     bg_panimate.obj
 0002:0000528c       ??_C@_0O@CIEECIHM@BOTH_T4__L_BL?$AA@ 3005128c     bg_panimate.obj
 0002:0000529c       ??_C@_0O@FBAALGCM@BOTH_T4__L_T_?$AA@ 3005129c     bg_panimate.obj
 0002:000052ac       ??_C@_0O@OEKOMIGB@BOTH_T4__L_TR?$AA@ 300512ac     bg_panimate.obj
 0002:000052bc       ??_C@_0O@FGHNOIJM@BOTH_T4_TL__L?$AA@ 300512bc     bg_panimate.obj
 0002:000052cc       ??_C@_0O@DLMHEGOP@BOTH_T4_TL_T_?$AA@ 300512cc     bg_panimate.obj
 0002:000052dc       ??_C@_0O@IOGJDIKC@BOTH_T4_TL_TR?$AA@ 300512dc     bg_panimate.obj
 0002:000052ec       ??_C@_0O@ICDMNHED@BOTH_T4_TL__R?$AA@ 300512ec     bg_panimate.obj
 0002:000052fc       ??_C@_0O@OEBHGPAM@BOTH_T4_TR_T_?$AA@ 300512fc     bg_panimate.obj
 0002:0000530c       ??_C@_0O@FNOMPOKA@BOTH_T4_TR__R?$AA@ 3005130c     bg_panimate.obj
 0002:0000531c       ??_C@_0O@IONAJPMP@BOTH_T4__R_T_?$AA@ 3005131c     bg_panimate.obj
 0002:0000532c       ??_C@_0O@CDNFDOEA@BOTH_T4__R_BR?$AA@ 3005132c     bg_panimate.obj
 0002:0000533c       ??_C@_0O@DBJIIOIK@BOTH_T4_BR_T_?$AA@ 3005133c     bg_panimate.obj
 0002:0000534c       ??_C@_0O@IEDGPAMH@BOTH_T4_BR_TR?$AA@ 3005134c     bg_panimate.obj
 0002:0000535c       ??_C@_0O@IDPCAJBK@BOTH_T4_BL__L?$AA@ 3005135c     bg_panimate.obj
 0002:0000536c       ??_C@_0O@FLOGNJCE@BOTH_T4_BL_TR?$AA@ 3005136c     bg_panimate.obj
 0002:0000537c       ??_C@_0O@FHLDDGMF@BOTH_T4_BL__R?$AA@ 3005137c     bg_panimate.obj
 0002:0000538c       ??_C@_0O@EDENAGOG@BOTH_T4_BL_BR?$AA@ 3005138c     bg_panimate.obj
 0002:0000539c       ??_C@_0O@DAOPPHLO@BOTH_T4__L_TL?$AA@ 3005139c     bg_panimate.obj
 0002:000053ac       ??_C@_0O@OIPLCHIA@BOTH_T4__L__R?$AA@ 300513ac     bg_panimate.obj
 0002:000053bc       ??_C@_0O@PMAFBHKD@BOTH_T4__L_BR?$AA@ 300513bc     bg_panimate.obj
 0002:000053cc       ??_C@_0O@ECIDNILP@BOTH_T4_TL_BL?$AA@ 300513cc     bg_panimate.obj
 0002:000053dc       ??_C@_0O@JGMCOHGA@BOTH_T4_TL_BR?$AA@ 300513dc     bg_panimate.obj
 0002:000053ec       ??_C@_0O@GFMDDFON@BOTH_T4_T__BL?$AA@ 300513ec     bg_panimate.obj
 0002:000053fc       ??_C@_0O@HBDNAFMO@BOTH_T4_T___L?$AA@ 300513fc     bg_panimate.obj
 0002:0000540c       ??_C@_0O@HNGIOKCP@BOTH_T4_T__TL?$AA@ 3005140c     bg_panimate.obj
 0002:0000541c       ??_C@_0O@KJCJNFPA@BOTH_T4_T__TR?$AA@ 3005141c     bg_panimate.obj
 0002:0000542c       ??_C@_0O@KFHMDKBB@BOTH_T4_T___R?$AA@ 3005142c     bg_panimate.obj
 0002:0000543c       ??_C@_0O@LBICAKDC@BOTH_T4_T__BR?$AA@ 3005143c     bg_panimate.obj
 0002:0000544c       ??_C@_0O@JNFDPBFM@BOTH_T4_TR_BL?$AA@ 3005144c     bg_panimate.obj
 0002:0000545c       ??_C@_0O@IJKNMBHP@BOTH_T4_TR__L?$AA@ 3005145c     bg_panimate.obj
 0002:0000546c       ??_C@_0O@IFPICOJO@BOTH_T4_TR_TL?$AA@ 3005146c     bg_panimate.obj
 0002:0000547c       ??_C@_0O@EJBCMOID@BOTH_T4_TR_BR?$AA@ 3005147c     bg_panimate.obj
 0002:0000548c       ??_C@_0O@PHJEABJP@BOTH_T4__R_BL?$AA@ 3005148c     bg_panimate.obj
 0002:0000549c       ??_C@_0O@ODGKDBLM@BOTH_T4__R__L?$AA@ 3005149c     bg_panimate.obj
 0002:000054ac       ??_C@_0O@OPDPNOFN@BOTH_T4__R_TL?$AA@ 300514ac     bg_panimate.obj
 0002:000054bc       ??_C@_0O@DLHOOBIC@BOTH_T4__R_TR?$AA@ 300514bc     bg_panimate.obj
 0002:000054cc       ??_C@_0O@EINMBANK@BOTH_T4_BR_BL?$AA@ 300514cc     bg_panimate.obj
 0002:000054dc       ??_C@_0O@FMCCCAPJ@BOTH_T4_BR__L?$AA@ 300514dc     bg_panimate.obj
 0002:000054ec       ??_C@_0O@FAHHMPBI@BOTH_T4_BR_TL?$AA@ 300514ec     bg_panimate.obj
 0002:000054fc       ??_C@_0O@IIGDBPCG@BOTH_T4_BR__R?$AA@ 300514fc     bg_panimate.obj
 0002:0000550c       ??_C@_0O@HLAEPGGC@BOTH_A4_TR_BL?$AA@ 3005150c     bg_panimate.obj
 0002:0000551c       ??_C@_0O@LNLBNOBK@BOTH_A4_BL_TR?$AA@ 3005151c     bg_panimate.obj
 0002:0000552c       ??_C@_0O@LGCAMICG@BOTH_A4_BR_TL?$AA@ 3005152c     bg_panimate.obj
 0002:0000553c       ??_C@_0O@HAJFOAFO@BOTH_A4_TL_BR?$AA@ 3005153c     bg_panimate.obj
 0002:0000554c       ??_C@_0O@FDNDGIC@BOTH_A4__R__L?$AA@ 3005154c     bg_panimate.obj
 0002:0000555c       ??_C@_0O@OKMCALO@BOTH_A4__L__R?$AA@ 3005155c     bg_panimate.obj
 0002:0000556c       ??_C@_0O@OCHLHDEB@BOTH_A4_T__B_?$AA@ 3005156c     bg_panimate.obj
 0002:0000557c       ??_C@_0O@GDFIOOLC@BOTH_D3_B____?$AA@ 3005157c     bg_panimate.obj
 0002:0000558c       ??_C@_0O@EEBIADOA@BOTH_D3_BL___?$AA@ 3005158c     bg_panimate.obj
 0002:0000559c       ??_C@_0O@PLFABCKF@BOTH_D3__L___?$AA@ 3005159c     bg_panimate.obj
 0002:000055ac       ??_C@_0O@JBJHOCGG@BOTH_D3_TL___?$AA@ 300515ac     bg_panimate.obj
 0002:000055bc       ??_C@_0O@EOEHMLIF@BOTH_D3_TR___?$AA@ 300515bc     bg_panimate.obj
 0002:000055cc       ??_C@_0O@CEIADLEG@BOTH_D3__R___?$AA@ 300515cc     bg_panimate.obj
 0002:000055dc       ??_C@_0O@JLMICKAD@BOTH_D3_BR___?$AA@ 300515dc     bg_panimate.obj
 0002:000055ec       ??_C@_0O@DHACHKGK@BOTH_B3_BL___?$AA@ 300515ec     bg_panimate.obj
 0002:000055fc       ??_C@_0O@IIEKGLCP@BOTH_B3__L___?$AA@ 300515fc     bg_panimate.obj
 0002:0000560c       ??_C@_0O@OCINJLOM@BOTH_B3_TL___?$AA@ 3005160c     bg_panimate.obj
 0002:0000561c       ??_C@_0O@MFMNHGLO@BOTH_B3_T____?$AA@ 3005161c     bg_panimate.obj
 0002:0000562c       ??_C@_0O@DNFNLCAP@BOTH_B3_TR___?$AA@ 3005162c     bg_panimate.obj
 0002:0000563c       ??_C@_0O@FHJKECMM@BOTH_B3__R___?$AA@ 3005163c     bg_panimate.obj
 0002:0000564c       ??_C@_0O@OINCFDIJ@BOTH_B3_BR___?$AA@ 3005164c     bg_panimate.obj
 0002:0000565c       ??_C@_0O@GDPJEPDD@BOTH_R3_TR_S1?$AA@ 3005165c     bg_panimate.obj
 0002:0000566c       ??_C@_0O@GJKGIHFG@BOTH_R3_BL_S1?$AA@ 3005166c     bg_panimate.obj
 0002:0000567c       ??_C@_0O@LGHGKOLF@BOTH_R3_BR_S1?$AA@ 3005167c     bg_panimate.obj
 0002:0000568c       ??_C@_0O@LMCJGGNA@BOTH_R3_TL_S1?$AA@ 3005168c     bg_panimate.obj
 0002:0000569c       ??_C@_0O@JDOLPPA@BOTH_R3__R_S1?$AA@ 3005169c     bg_panimate.obj
 0002:000056ac       ??_C@_0O@NGOOJGBD@BOTH_R3__L_S1?$AA@ 300516ac     bg_panimate.obj
 0002:000056bc       ??_C@_0O@EOOGGKAE@BOTH_R3_B__S1?$AA@ 300516bc     bg_panimate.obj
 0002:000056cc       ??_C@_0O@PMIKEILE@BOTH_S3_S1_TR?$AA@ 300516cc     bg_panimate.obj
 0002:000056dc       ??_C@_0O@DAGAKIKJ@BOTH_S3_S1_BL?$AA@ 300516dc     bg_panimate.obj
 0002:000056ec       ??_C@_0O@OECBJHHG@BOTH_S3_S1_BR?$AA@ 300516ec     bg_panimate.obj
 0002:000056fc       ??_C@_0O@CIMLHHGL@BOTH_S3_S1_TL?$AA@ 300516fc     bg_panimate.obj
 0002:0000570c       ??_C@_0O@PANPKHFF@BOTH_S3_S1__R?$AA@ 3005170c     bg_panimate.obj
 0002:0000571c       ??_C@_0O@CEJOJIIK@BOTH_S3_S1__L?$AA@ 3005171c     bg_panimate.obj
 0002:0000572c       ??_C@_0O@EJCEDGPJ@BOTH_S3_S1_T_?$AA@ 3005172c     bg_panimate.obj
 0002:0000573c       ??_C@_0O@IFGCOPOC@BOTH_T3_BL_TL?$AA@ 3005173c     bg_panimate.obj
 0002:0000574c       ??_C@_0O@OEINKOHA@BOTH_T3_BL_T_?$AA@ 3005174c     bg_panimate.obj
 0002:0000575c       ??_C@_0O@CCIBCBGF@BOTH_T3__L_BL?$AA@ 3005175c     bg_panimate.obj
 0002:0000576c       ??_C@_0O@FLMFLPDF@BOTH_T3__L_T_?$AA@ 3005176c     bg_panimate.obj
 0002:0000577c       ??_C@_0O@OOGLMBHI@BOTH_T3__L_TR?$AA@ 3005177c     bg_panimate.obj
 0002:0000578c       ??_C@_0O@FMLIOBIF@BOTH_T3_TL__L?$AA@ 3005178c     bg_panimate.obj
 0002:0000579c       ??_C@_0O@DBACEPPG@BOTH_T3_TL_T_?$AA@ 3005179c     bg_panimate.obj
 0002:000057ac       ??_C@_0O@IEKMDBLL@BOTH_T3_TL_TR?$AA@ 300517ac     bg_panimate.obj
 0002:000057bc       ??_C@_0O@IIPJNOFK@BOTH_T3_TL__R?$AA@ 300517bc     bg_panimate.obj
 0002:000057cc       ??_C@_0O@OONCGGBF@BOTH_T3_TR_T_?$AA@ 300517cc     bg_panimate.obj
 0002:000057dc       ??_C@_0O@FHCJPHLJ@BOTH_T3_TR__R?$AA@ 300517dc     bg_panimate.obj
 0002:000057ec       ??_C@_0O@IEBFJGNG@BOTH_T3__R_T_?$AA@ 300517ec     bg_panimate.obj
 0002:000057fc       ??_C@_0O@CJBADHFJ@BOTH_T3__R_BR?$AA@ 300517fc     bg_panimate.obj
 0002:0000580c       ??_C@_0O@DLFNIHJD@BOTH_T3_BR_T_?$AA@ 3005180c     bg_panimate.obj
 0002:0000581c       ??_C@_0O@IOPDPJNO@BOTH_T3_BR_TR?$AA@ 3005181c     bg_panimate.obj
 0002:0000582c       ??_C@_0O@IJDHAAAD@BOTH_T3_BL__L?$AA@ 3005182c     bg_panimate.obj
 0002:0000583c       ??_C@_0O@FBCDNADN@BOTH_T3_BL_TR?$AA@ 3005183c     bg_panimate.obj
 0002:0000584c       ??_C@_0O@FNHGDPNM@BOTH_T3_BL__R?$AA@ 3005184c     bg_panimate.obj
 0002:0000585c       ??_C@_0O@EJIIAPPP@BOTH_T3_BL_BR?$AA@ 3005185c     bg_panimate.obj
 0002:0000586c       ??_C@_0O@DKCKPOKH@BOTH_T3__L_TL?$AA@ 3005186c     bg_panimate.obj
 0002:0000587c       ??_C@_0O@OCDOCOJJ@BOTH_T3__L__R?$AA@ 3005187c     bg_panimate.obj
 0002:0000588c       ??_C@_0O@PGMABOLK@BOTH_T3__L_BR?$AA@ 3005188c     bg_panimate.obj
 0002:0000589c       ??_C@_0O@EIEGNBKG@BOTH_T3_TL_BL?$AA@ 3005189c     bg_panimate.obj
 0002:000058ac       ??_C@_0O@JMAHOOHJ@BOTH_T3_TL_BR?$AA@ 300518ac     bg_panimate.obj
 0002:000058bc       ??_C@_0O@GPAGDMPE@BOTH_T3_T__BL?$AA@ 300518bc     bg_panimate.obj
 0002:000058cc       ??_C@_0O@HLPIAMNH@BOTH_T3_T___L?$AA@ 300518cc     bg_panimate.obj
 0002:000058dc       ??_C@_0O@HHKNODDG@BOTH_T3_T__TL?$AA@ 300518dc     bg_panimate.obj
 0002:000058ec       ??_C@_0O@KDOMNMOJ@BOTH_T3_T__TR?$AA@ 300518ec     bg_panimate.obj
 0002:000058fc       ??_C@_0O@KPLJDDAI@BOTH_T3_T___R?$AA@ 300518fc     bg_panimate.obj
 0002:0000590c       ??_C@_0O@LLEHADCL@BOTH_T3_T__BR?$AA@ 3005190c     bg_panimate.obj
 0002:0000591c       ??_C@_0O@JHJGPIEF@BOTH_T3_TR_BL?$AA@ 3005191c     bg_panimate.obj
 0002:0000592c       ??_C@_0O@IDGIMIGG@BOTH_T3_TR__L?$AA@ 3005192c     bg_panimate.obj
 0002:0000593c       ??_C@_0O@IPDNCHIH@BOTH_T3_TR_TL?$AA@ 3005193c     bg_panimate.obj
 0002:0000594c       ??_C@_0O@EDNHMHJK@BOTH_T3_TR_BR?$AA@ 3005194c     bg_panimate.obj
 0002:0000595c       ??_C@_0O@PNFBAIIG@BOTH_T3__R_BL?$AA@ 3005195c     bg_panimate.obj
 0002:0000596c       ??_C@_0O@OJKPDIKF@BOTH_T3__R__L?$AA@ 3005196c     bg_panimate.obj
 0002:0000597c       ??_C@_0O@OFPKNHEE@BOTH_T3__R_TL?$AA@ 3005197c     bg_panimate.obj
 0002:0000598c       ??_C@_0O@DBLLOIJL@BOTH_T3__R_TR?$AA@ 3005198c     bg_panimate.obj
 0002:0000599c       ??_C@_0O@ECBJBJMD@BOTH_T3_BR_BL?$AA@ 3005199c     bg_panimate.obj
 0002:000059ac       ??_C@_0O@FGOHCJOA@BOTH_T3_BR__L?$AA@ 300519ac     bg_panimate.obj
 0002:000059bc       ??_C@_0O@FKLCMGAB@BOTH_T3_BR_TL?$AA@ 300519bc     bg_panimate.obj
 0002:000059cc       ??_C@_0O@ICKGBGDP@BOTH_T3_BR__R?$AA@ 300519cc     bg_panimate.obj
 0002:000059dc       ??_C@_0O@HBMBPPHL@BOTH_A3_TR_BL?$AA@ 300519dc     bg_panimate.obj
 0002:000059ec       ??_C@_0O@LHHENHAD@BOTH_A3_BL_TR?$AA@ 300519ec     bg_panimate.obj
 0002:000059fc       ??_C@_0O@LMOFMBDP@BOTH_A3_BR_TL?$AA@ 300519fc     bg_panimate.obj
 0002:00005a0c       ??_C@_0O@HKFAOJEH@BOTH_A3_TL_BR?$AA@ 30051a0c     bg_panimate.obj
 0002:00005a1c       ??_C@_0O@PPIDPJL@BOTH_A3__R__L?$AA@ 30051a1c     bg_panimate.obj
 0002:00005a2c       ??_C@_0O@EGJCJKH@BOTH_A3__L__R?$AA@ 30051a2c     bg_panimate.obj
 0002:00005a3c       ??_C@_0O@OILOHKFI@BOTH_A3_T__B_?$AA@ 30051a3c     bg_panimate.obj
 0002:00005a4c       ??_C@_0O@KPPCOOCM@BOTH_D2_B____?$AA@ 30051a4c     bg_panimate.obj
 0002:00005a5c       ??_C@_0O@IILCADHO@BOTH_D2_BL___?$AA@ 30051a5c     bg_panimate.obj
 0002:00005a6c       ??_C@_0O@DHPKBCDL@BOTH_D2__L___?$AA@ 30051a6c     bg_panimate.obj
 0002:00005a7c       ??_C@_0O@FNDNOCPI@BOTH_D2_TL___?$AA@ 30051a7c     bg_panimate.obj
 0002:00005a8c       ??_C@_0O@ICONMLBL@BOTH_D2_TR___?$AA@ 30051a8c     bg_panimate.obj
 0002:00005a9c       ??_C@_0O@OICKDLNI@BOTH_D2__R___?$AA@ 30051a9c     bg_panimate.obj
 0002:00005aac       ??_C@_0O@FHGCCKJN@BOTH_D2_BR___?$AA@ 30051aac     bg_panimate.obj
 0002:00005abc       ??_C@_0O@PLKIHKPE@BOTH_B2_BL___?$AA@ 30051abc     bg_panimate.obj
 0002:00005acc       ??_C@_0O@EEOAGLLB@BOTH_B2__L___?$AA@ 30051acc     bg_panimate.obj
 0002:00005adc       ??_C@_0O@COCHJLHC@BOTH_B2_TL___?$AA@ 30051adc     bg_panimate.obj
 0002:00005aec       ??_C@_0O@JGHHGCA@BOTH_B2_T____?$AA@ 30051aec     bg_panimate.obj
 0002:00005afc       ??_C@_0O@PBPHLCJB@BOTH_B2_TR___?$AA@ 30051afc     bg_panimate.obj
 0002:00005b0c       ??_C@_0O@JLDAECFC@BOTH_B2__R___?$AA@ 30051b0c     bg_panimate.obj
 0002:00005b1c       ??_C@_0O@CEHIFDBH@BOTH_B2_BR___?$AA@ 30051b1c     bg_panimate.obj
 0002:00005b2c       ??_C@_0O@KPFDEPKN@BOTH_R2_TR_S1?$AA@ 30051b2c     bg_panimate.obj
 0002:00005b3c       ??_C@_0O@KFAMIHMI@BOTH_R2_BL_S1?$AA@ 30051b3c     bg_panimate.obj
 0002:00005b4c       ??_C@_0O@HKNMKOCL@BOTH_R2_BR_S1?$AA@ 30051b4c     bg_panimate.obj
 0002:00005b5c       ??_C@_0O@HAIDGGEO@BOTH_R2_TL_S1?$AA@ 30051b5c     bg_panimate.obj
 0002:00005b6c       ??_C@_0O@MFJELPGO@BOTH_R2__R_S1?$AA@ 30051b6c     bg_panimate.obj
 0002:00005b7c       ??_C@_0O@BKEEJGIN@BOTH_R2__L_S1?$AA@ 30051b7c     bg_panimate.obj
 0002:00005b8c       ??_C@_0O@ICEMGKJK@BOTH_R2_B__S1?$AA@ 30051b8c     bg_panimate.obj
 0002:00005b9c       ??_C@_0O@DACAEICK@BOTH_S2_S1_TR?$AA@ 30051b9c     bg_panimate.obj
 0002:00005bac       ??_C@_0O@PMMKKIDH@BOTH_S2_S1_BL?$AA@ 30051bac     bg_panimate.obj
 0002:00005bbc       ??_C@_0O@CIILJHOI@BOTH_S2_S1_BR?$AA@ 30051bbc     bg_panimate.obj
 0002:00005bcc       ??_C@_0O@OEGBHHPF@BOTH_S2_S1_TL?$AA@ 30051bcc     bg_panimate.obj
 0002:00005bdc       ??_C@_0O@DMHFKHML@BOTH_S2_S1__R?$AA@ 30051bdc     bg_panimate.obj
 0002:00005bec       ??_C@_0O@OIDEJIBE@BOTH_S2_S1__L?$AA@ 30051bec     bg_panimate.obj
 0002:00005bfc       ??_C@_0O@IFIODGGH@BOTH_S2_S1_T_?$AA@ 30051bfc     bg_panimate.obj
 0002:00005c0c       ??_C@_0O@EJMIOPHM@BOTH_T2_BL_TL?$AA@ 30051c0c     bg_panimate.obj
 0002:00005c1c       ??_C@_0O@CICHKOOO@BOTH_T2_BL_T_?$AA@ 30051c1c     bg_panimate.obj
 0002:00005c2c       ??_C@_0O@OOCLCBPL@BOTH_T2__L_BL?$AA@ 30051c2c     bg_panimate.obj
 0002:00005c3c       ??_C@_0O@JHGPLPKL@BOTH_T2__L_T_?$AA@ 30051c3c     bg_panimate.obj
 0002:00005c4c       ??_C@_0O@CCMBMBOG@BOTH_T2__L_TR?$AA@ 30051c4c     bg_panimate.obj
 0002:00005c5c       ??_C@_0O@JABCOBBL@BOTH_T2_TL__L?$AA@ 30051c5c     bg_panimate.obj
 0002:00005c6c       ??_C@_0O@PNKIEPGI@BOTH_T2_TL_T_?$AA@ 30051c6c     bg_panimate.obj
 0002:00005c7c       ??_C@_0O@EIAGDBCF@BOTH_T2_TL_TR?$AA@ 30051c7c     bg_panimate.obj
 0002:00005c8c       ??_C@_0O@EEFDNOME@BOTH_T2_TL__R?$AA@ 30051c8c     bg_panimate.obj
 0002:00005c9c       ??_C@_0O@CCHIGGIL@BOTH_T2_TR_T_?$AA@ 30051c9c     bg_panimate.obj
 0002:00005cac       ??_C@_0O@JLIDPHCH@BOTH_T2_TR__R?$AA@ 30051cac     bg_panimate.obj
 0002:00005cbc       ??_C@_0O@EILPJGEI@BOTH_T2__R_T_?$AA@ 30051cbc     bg_panimate.obj
 0002:00005ccc       ??_C@_0O@OFLKDHMH@BOTH_T2__R_BR?$AA@ 30051ccc     bg_panimate.obj
 0002:00005cdc       ??_C@_0O@PHPHIHAN@BOTH_T2_BR_T_?$AA@ 30051cdc     bg_panimate.obj
 0002:00005cec       ??_C@_0O@ECFJPJEA@BOTH_T2_BR_TR?$AA@ 30051cec     bg_panimate.obj
 0002:00005cfc       ??_C@_0O@EFJNAAJN@BOTH_T2_BL__L?$AA@ 30051cfc     bg_panimate.obj
 0002:00005d0c       ??_C@_0O@JNIJNAKD@BOTH_T2_BL_TR?$AA@ 30051d0c     bg_panimate.obj
 0002:00005d1c       ??_C@_0O@JBNMDPEC@BOTH_T2_BL__R?$AA@ 30051d1c     bg_panimate.obj
 0002:00005d2c       ??_C@_0O@IFCCAPGB@BOTH_T2_BL_BR?$AA@ 30051d2c     bg_panimate.obj
 0002:00005d3c       ??_C@_0O@PGIAPODJ@BOTH_T2__L_TL?$AA@ 30051d3c     bg_panimate.obj
 0002:00005d4c       ??_C@_0O@COJECOAH@BOTH_T2__L__R?$AA@ 30051d4c     bg_panimate.obj
 0002:00005d5c       ??_C@_0O@DKGKBOCE@BOTH_T2__L_BR?$AA@ 30051d5c     bg_panimate.obj
 0002:00005d6c       ??_C@_0O@IEOMNBDI@BOTH_T2_TL_BL?$AA@ 30051d6c     bg_panimate.obj
 0002:00005d7c       ??_C@_0O@FAKNOOOH@BOTH_T2_TL_BR?$AA@ 30051d7c     bg_panimate.obj
 0002:00005d8c       ??_C@_0O@KDKMDMGK@BOTH_T2_T__BL?$AA@ 30051d8c     bg_panimate.obj
 0002:00005d9c       ??_C@_0O@LHFCAMEJ@BOTH_T2_T___L?$AA@ 30051d9c     bg_panimate.obj
 0002:00005dac       ??_C@_0O@LLAHODKI@BOTH_T2_T__TL?$AA@ 30051dac     bg_panimate.obj
 0002:00005dbc       ??_C@_0O@GPEGNMHH@BOTH_T2_T__TR?$AA@ 30051dbc     bg_panimate.obj
 0002:00005dcc       ??_C@_0O@GDBDDDJG@BOTH_T2_T___R?$AA@ 30051dcc     bg_panimate.obj
 0002:00005ddc       ??_C@_0O@HHONADLF@BOTH_T2_T__BR?$AA@ 30051ddc     bg_panimate.obj
 0002:00005dec       ??_C@_0O@FLDMPINL@BOTH_T2_TR_BL?$AA@ 30051dec     bg_panimate.obj
 0002:00005dfc       ??_C@_0O@EPMCMIPI@BOTH_T2_TR__L?$AA@ 30051dfc     bg_panimate.obj
 0002:00005e0c       ??_C@_0O@EDJHCHBJ@BOTH_T2_TR_TL?$AA@ 30051e0c     bg_panimate.obj
 0002:00005e1c       ??_C@_0O@IPHNMHAE@BOTH_T2_TR_BR?$AA@ 30051e1c     bg_panimate.obj
 0002:00005e2c       ??_C@_0O@DBPLAIBI@BOTH_T2__R_BL?$AA@ 30051e2c     bg_panimate.obj
 0002:00005e3c       ??_C@_0O@CFAFDIDL@BOTH_T2__R__L?$AA@ 30051e3c     bg_panimate.obj
 0002:00005e4c       ??_C@_0O@CJFANHNK@BOTH_T2__R_TL?$AA@ 30051e4c     bg_panimate.obj
 0002:00005e5c       ??_C@_0O@PNBBOIAF@BOTH_T2__R_TR?$AA@ 30051e5c     bg_panimate.obj
 0002:00005e6c       ??_C@_0O@IOLDBJFN@BOTH_T2_BR_BL?$AA@ 30051e6c     bg_panimate.obj
 0002:00005e7c       ??_C@_0O@JKENCJHO@BOTH_T2_BR__L?$AA@ 30051e7c     bg_panimate.obj
 0002:00005e8c       ??_C@_0O@JGBIMGJP@BOTH_T2_BR_TL?$AA@ 30051e8c     bg_panimate.obj
 0002:00005e9c       ??_C@_0O@EOAMBGKB@BOTH_T2_BR__R?$AA@ 30051e9c     bg_panimate.obj
 0002:00005eac       ??_C@_0O@LNGLPPOF@BOTH_A2_TR_BL?$AA@ 30051eac     bg_panimate.obj
 0002:00005ebc       ??_C@_0O@HLNONHJN@BOTH_A2_BL_TR?$AA@ 30051ebc     bg_panimate.obj
 0002:00005ecc       ??_C@_0O@HAEPMBKB@BOTH_A2_BR_TL?$AA@ 30051ecc     bg_panimate.obj
 0002:00005edc       ??_C@_0O@LGPKOJNJ@BOTH_A2_TL_BR?$AA@ 30051edc     bg_panimate.obj
 0002:00005eec       ??_C@_0O@MDFCDPAF@BOTH_A2__R__L?$AA@ 30051eec     bg_panimate.obj
 0002:00005efc       ??_C@_0O@MIMDCJDJ@BOTH_A2__L__R?$AA@ 30051efc     bg_panimate.obj
 0002:00005f0c       ??_C@_0O@CEBEHKMG@BOTH_A2_T__B_?$AA@ 30051f0c     bg_panimate.obj
 0002:00005f1c       ??_C@_0O@CBHNOJMP@BOTH_D1_B____?$AA@ 30051f1c     bg_panimate.obj
 0002:00005f2c       ??_C@_0O@GDNAEJN@BOTH_D1_BL___?$AA@ 30051f2c     bg_panimate.obj
 0002:00005f3c       ??_C@_0O@LJHFBFNI@BOTH_D1__L___?$AA@ 30051f3c     bg_panimate.obj
 0002:00005f4c       ??_C@_0O@NDLCOFBL@BOTH_D1_TL___?$AA@ 30051f4c     bg_panimate.obj
 0002:00005f5c       ??_C@_0O@MGCMMPI@BOTH_D1_TR___?$AA@ 30051f5c     bg_panimate.obj
 0002:00005f6c       ??_C@_0O@GGKFDMDL@BOTH_D1__R___?$AA@ 30051f6c     bg_panimate.obj
 0002:00005f7c       ??_C@_0O@NJONCNHO@BOTH_D1_BR___?$AA@ 30051f7c     bg_panimate.obj
 0002:00005f8c       ??_C@_0O@HFCHHNBH@BOTH_B1_BL___?$AA@ 30051f8c     bg_panimate.obj
 0002:00005f9c       ??_C@_0O@MKGPGMFC@BOTH_B1__L___?$AA@ 30051f9c     bg_panimate.obj
 0002:00005fac       ??_C@_0O@KAKIJMJB@BOTH_B1_TL___?$AA@ 30051fac     bg_panimate.obj
 0002:00005fbc       ??_C@_0O@IHOIHBMD@BOTH_B1_T____?$AA@ 30051fbc     bg_panimate.obj
 0002:00005fcc       ??_C@_0O@HPHILFHC@BOTH_B1_TR___?$AA@ 30051fcc     bg_panimate.obj
 0002:00005fdc       ??_C@_0O@BFLPEFLB@BOTH_B1__R___?$AA@ 30051fdc     bg_panimate.obj
 0002:00005fec       ??_C@_0O@KKPHFEPE@BOTH_B1_BR___?$AA@ 30051fec     bg_panimate.obj
 0002:00005ffc       ??_C@_0O@CBNMEIEO@BOTH_R1_TR_S1?$AA@ 30051ffc     bg_panimate.obj
 0002:0000600c       ??_C@_0O@CLIDIACL@BOTH_R1_BL_S1?$AA@ 3005200c     bg_panimate.obj
 0002:0000601c       ??_C@_0O@PEFDKJMI@BOTH_R1_BR_S1?$AA@ 3005201c     bg_panimate.obj
 0002:0000602c       ??_C@_0O@POAMGBKN@BOTH_R1_TL_S1?$AA@ 3005202c     bg_panimate.obj
 0002:0000603c       ??_C@_0O@ELBLLIIN@BOTH_R1__R_S1?$AA@ 3005203c     bg_panimate.obj
 0002:0000604c       ??_C@_0O@JEMLJBGO@BOTH_R1__L_S1?$AA@ 3005204c     bg_panimate.obj
 0002:0000605c       ??_C@_0O@MMDGNHJ@BOTH_R1_B__S1?$AA@ 3005205c     bg_panimate.obj
 0002:0000606c       ??_C@_0O@LOKPEPMJ@BOTH_S1_S1_TR?$AA@ 3005206c     bg_panimate.obj
 0002:0000607c       ??_C@_0O@HCEFKPNE@BOTH_S1_S1_BL?$AA@ 3005207c     bg_panimate.obj
 0002:0000608c       ??_C@_0O@KGAEJAAL@BOTH_S1_S1_BR?$AA@ 3005208c     bg_panimate.obj
 0002:0000609c       ??_C@_0O@GKOOHABG@BOTH_S1_S1_TL?$AA@ 3005209c     bg_panimate.obj
 0002:000060ac       ??_C@_0O@LCPKKACI@BOTH_S1_S1__R?$AA@ 300520ac     bg_panimate.obj
 0002:000060bc       ??_C@_0O@GGLLJPPH@BOTH_S1_S1__L?$AA@ 300520bc     bg_panimate.obj
 0002:000060cc       ??_C@_0O@LABDBIE@BOTH_S1_S1_T_?$AA@ 300520cc     bg_panimate.obj
 0002:000060dc       ??_C@_0O@MHEHOIJP@BOTH_T1_BL_TL?$AA@ 300520dc     bg_panimate.obj
 0002:000060ec       ??_C@_0O@KGKIKJAN@BOTH_T1_BL_T_?$AA@ 300520ec     bg_panimate.obj
 0002:000060fc       ??_C@_0O@GAKECGBI@BOTH_T1__L_BL?$AA@ 300520fc     bg_panimate.obj
 0002:0000610c       ??_C@_0O@BJOALIEI@BOTH_T1__L_T_?$AA@ 3005210c     bg_panimate.obj
 0002:0000611c       ??_C@_0O@KMEOMGAF@BOTH_T1__L_TR?$AA@ 3005211c     bg_panimate.obj
 0002:0000612c       ??_C@_0O@BOJNOGPI@BOTH_T1_TL__L?$AA@ 3005212c     bg_panimate.obj
 0002:0000613c       ??_C@_0O@HDCHEIIL@BOTH_T1_TL_T_?$AA@ 3005213c     bg_panimate.obj
 0002:0000614c       ??_C@_0O@MGIJDGMG@BOTH_T1_TL_TR?$AA@ 3005214c     bg_panimate.obj
 0002:0000615c       ??_C@_0O@MKNMNJCH@BOTH_T1_TL__R?$AA@ 3005215c     bg_panimate.obj
 0002:0000616c       ??_C@_0O@KMPHGBGI@BOTH_T1_TR_T_?$AA@ 3005216c     bg_panimate.obj
 0002:0000617c       ??_C@_0O@BFAMPAME@BOTH_T1_TR__R?$AA@ 3005217c     bg_panimate.obj
 0002:0000618c       ??_C@_0O@MGDAJBKL@BOTH_T1__R_T_?$AA@ 3005218c     bg_panimate.obj
 0002:0000619c       ??_C@_0O@GLDFDACE@BOTH_T1__R_BR?$AA@ 3005219c     bg_panimate.obj
 0002:000061ac       ??_C@_0O@HJHIIAOO@BOTH_T1_BR_T_?$AA@ 300521ac     bg_panimate.obj
 0002:000061bc       ??_C@_0O@MMNGPOKD@BOTH_T1_BR_TR?$AA@ 300521bc     bg_panimate.obj
 0002:000061cc       ??_C@_0O@MLBCAHHO@BOTH_T1_BL__L?$AA@ 300521cc     bg_panimate.obj
 0002:000061dc       ??_C@_0O@BDAGNHEA@BOTH_T1_BL_TR?$AA@ 300521dc     bg_panimate.obj
 0002:000061ec       ??_C@_0O@BPFDDIKB@BOTH_T1_BL__R?$AA@ 300521ec     bg_panimate.obj
 0002:000061fc       ??_C@_0O@LKNAIIC@BOTH_T1_BL_BR?$AA@ 300521fc     bg_panimate.obj
 0002:0000620c       ??_C@_0O@HIAPPJNK@BOTH_T1__L_TL?$AA@ 3005220c     bg_panimate.obj
 0002:0000621c       ??_C@_0O@KABLCJOE@BOTH_T1__L__R?$AA@ 3005221c     bg_panimate.obj
 0002:0000622c       ??_C@_0O@LEOFBJMH@BOTH_T1__L_BR?$AA@ 3005222c     bg_panimate.obj
 0002:0000623c       ??_C@_0O@KGDNGNL@BOTH_T1_TL_BL?$AA@ 3005223c     bg_panimate.obj
 0002:0000624c       ??_C@_0O@NOCCOJAE@BOTH_T1_TL_BR?$AA@ 3005224c     bg_panimate.obj
 0002:0000625c       ??_C@_0O@CNCDDLIJ@BOTH_T1_T__BL?$AA@ 3005225c     bg_panimate.obj
 0002:0000626c       ??_C@_0O@DJNNALKK@BOTH_T1_T___L?$AA@ 3005226c     bg_panimate.obj
 0002:0000627c       ??_C@_0O@DFIIOEEL@BOTH_T1_T__TL?$AA@ 3005227c     bg_panimate.obj
 0002:0000628c       ??_C@_0O@OBMJNLJE@BOTH_T1_T__TR?$AA@ 3005228c     bg_panimate.obj
 0002:0000629c       ??_C@_0O@ONJMDEHF@BOTH_T1_T___R?$AA@ 3005229c     bg_panimate.obj
 0002:000062ac       ??_C@_0O@PJGCAEFG@BOTH_T1_T__BR?$AA@ 300522ac     bg_panimate.obj
 0002:000062bc       ??_C@_0O@NFLDPPDI@BOTH_T1_TR_BL?$AA@ 300522bc     bg_panimate.obj
 0002:000062cc       ??_C@_0O@MBENMPBL@BOTH_T1_TR__L?$AA@ 300522cc     bg_panimate.obj
 0002:000062dc       ??_C@_0O@MNBICAPK@BOTH_T1_TR_TL?$AA@ 300522dc     bg_panimate.obj
 0002:000062ec       ??_C@_0O@BPCMAOH@BOTH_T1_TR_BR?$AA@ 300522ec     bg_panimate.obj
 0002:000062fc       ??_C@_0O@LPHEAPPL@BOTH_T1__R_BL?$AA@ 300522fc     bg_panimate.obj
 0002:0000630c       ??_C@_0O@KLIKDPNI@BOTH_T1__R__L?$AA@ 3005230c     bg_panimate.obj
 0002:0000631c       ??_C@_0O@KHNPNADJ@BOTH_T1__R_TL?$AA@ 3005231c     bg_panimate.obj
 0002:0000632c       ??_C@_0O@HDJOOPOG@BOTH_T1__R_TR?$AA@ 3005232c     bg_panimate.obj
 0002:0000633c       ??_C@_0O@DMBOLO@BOTH_T1_BR_BL?$AA@ 3005233c     bg_panimate.obj
 0002:0000634c       ??_C@_0O@BEMCCOJN@BOTH_T1_BR__L?$AA@ 3005234c     bg_panimate.obj
 0002:0000635c       ??_C@_0O@BIJHMBHM@BOTH_T1_BR_TL?$AA@ 3005235c     bg_panimate.obj
 0002:0000636c       ??_C@_0O@MAIDBBEC@BOTH_T1_BR__R?$AA@ 3005236c     bg_panimate.obj
 0002:0000637c       ??_C@_0O@DDOEPIAG@BOTH_A1_TR_BL?$AA@ 3005237c     bg_panimate.obj
 0002:0000638c       ??_C@_0O@PFFBNAHO@BOTH_A1_BL_TR?$AA@ 3005238c     bg_panimate.obj
 0002:0000639c       ??_C@_0O@POMAMGEC@BOTH_A1_BR_TL?$AA@ 3005239c     bg_panimate.obj
 0002:000063ac       ??_C@_0O@DIHFOODK@BOTH_A1_TL_BR?$AA@ 300523ac     bg_panimate.obj
 0002:000063bc       ??_C@_0O@ENNNDIOG@BOTH_A1__R__L?$AA@ 300523bc     bg_panimate.obj
 0002:000063cc       ??_C@_0O@EGEMCONK@BOTH_A1__L__R?$AA@ 300523cc     bg_panimate.obj
 0002:000063dc       ??_C@_0O@KKJLHNCF@BOTH_A1_T__B_?$AA@ 300523dc     bg_panimate.obj
 0002:000063ec       ??_C@_0BD@KGEHHFNO@BOTH_THERMAL_THROW?$AA@ 300523ec     bg_panimate.obj
 0002:00006400       ??_C@_0BD@FIPEGIGM@BOTH_THERMAL_READY?$AA@ 30052400     bg_panimate.obj
 0002:00006414       ??_C@_0M@PALMNHOO@BOTH_MELEE6?$AA@ 30052414     bg_panimate.obj
 0002:00006420       ??_C@_0M@NLJBIECN@BOTH_MELEE5?$AA@ 30052420     bg_panimate.obj
 0002:0000642c       ??_C@_0M@MCIKLFGM@BOTH_MELEE4?$AA@ 3005242c     bg_panimate.obj
 0002:00006438       ??_C@_0M@INMLCDKL@BOTH_MELEE3?$AA@ 30052438     bg_panimate.obj
 0002:00006444       ??_C@_0M@JENABCOK@BOTH_MELEE2?$AA@ 30052444     bg_panimate.obj
 0002:00006450       ??_C@_0M@LPPNEBCJ@BOTH_MELEE1?$AA@ 30052450     bg_panimate.obj
 0002:0000645c       ??_C@_0O@JPADGNIA@BOTH_ATTACK12?$AA@ 3005245c     bg_panimate.obj
 0002:0000646c       ??_C@_0O@LECODOED@BOTH_ATTACK11?$AA@ 3005246c     bg_panimate.obj
 0002:0000647c       ??_C@_0O@KNDFAPAC@BOTH_ATTACK10?$AA@ 3005247c     bg_panimate.obj
 0002:0000648c       ??_C@_0N@LMIHPOMO@BOTH_ATTACK9?$AA@ 3005248c     bg_panimate.obj
 0002:0000649c       ??_C@_0N@KFJMMPIP@BOTH_ATTACK8?$AA@ 3005249c     bg_panimate.obj
 0002:000064ac       ??_C@_0N@CCAENDEA@BOTH_ATTACK7?$AA@ 300524ac     bg_panimate.obj
 0002:000064bc       ??_C@_0N@DLBPOCAB@BOTH_ATTACK6?$AA@ 300524bc     bg_panimate.obj
 0002:000064cc       ??_C@_0N@BADCLBMC@BOTH_ATTACK5?$AA@ 300524cc     bg_panimate.obj
 0002:000064dc       ??_C@_0N@JCJIAID@BOTH_ATTACK4?$AA@ 300524dc     bg_panimate.obj
 0002:000064ec       ??_C@_0N@EGGIBGEE@BOTH_ATTACK3?$AA@ 300524ec     bg_panimate.obj
 0002:000064fc       ??_C@_0BC@HKHLIFFE@BOTH_ATTACK2IDLE1?$AA@ 300524fc     bg_panimate.obj
 0002:00006510       ??_C@_0N@FPHDCHAF@BOTH_ATTACK2?$AA@ 30052510     bg_panimate.obj
 0002:00006520       ??_C@_0N@HEFOHEMG@BOTH_ATTACK1?$AA@ 30052520     bg_panimate.obj
 0002:00006530       ??_C@_0M@HFCBLJNE@BOTH_PAIN20?$AA@ 30052530     bg_panimate.obj
 0002:0000653c       ??_C@_0M@KGKFLMME@BOTH_PAIN19?$AA@ 3005253c     bg_panimate.obj
 0002:00006548       ??_C@_0M@LPLOINIF@BOTH_PAIN18?$AA@ 30052548     bg_panimate.obj
 0002:00006554       ??_C@_0M@DICGJBEK@BOTH_PAIN17?$AA@ 30052554     bg_panimate.obj
 0002:00006560       ??_C@_0M@CBDNKAAL@BOTH_PAIN16?$AA@ 30052560     bg_panimate.obj
 0002:0000656c       ??_C@_0M@KBAPDMI@BOTH_PAIN15?$AA@ 3005256c     bg_panimate.obj
 0002:00006578       ??_C@_0M@BDALMCIJ@BOTH_PAIN14?$AA@ 30052578     bg_panimate.obj
 0002:00006584       ??_C@_0M@FMEKFEEO@BOTH_PAIN13?$AA@ 30052584     bg_panimate.obj
 0002:00006590       ??_C@_0M@EFFBGFAP@BOTH_PAIN12?$AA@ 30052590     bg_panimate.obj
 0002:0000659c       ??_C@_0M@GOHMDGMM@BOTH_PAIN11?$AA@ 3005259c     bg_panimate.obj
 0002:000065a8       ??_C@_0M@HHGHAHIN@BOTH_PAIN10?$AA@ 300525a8     bg_panimate.obj
 0002:000065b4       ??_C@_0L@IODHKBKF@BOTH_PAIN9?$AA@ 300525b4     bg_panimate.obj
 0002:000065c0       ??_C@_0L@JHCMJAOE@BOTH_PAIN8?$AA@ 300525c0     bg_panimate.obj
 0002:000065cc       ??_C@_0L@BALEIMCL@BOTH_PAIN7?$AA@ 300525cc     bg_panimate.obj
 0002:000065d8       ??_C@_0L@JKPLNGK@BOTH_PAIN6?$AA@ 300525d8     bg_panimate.obj
 0002:000065e4       ??_C@_0L@CCICOOKJ@BOTH_PAIN5?$AA@ 300525e4     bg_panimate.obj
 0002:000065f0       ??_C@_0L@DLJJNPOI@BOTH_PAIN4?$AA@ 300525f0     bg_panimate.obj
 0002:000065fc       ??_C@_0L@HENIEJCP@BOTH_PAIN3?$AA@ 300525fc     bg_panimate.obj
 0002:00006608       ??_C@_0L@GNMDHIGO@BOTH_PAIN2?$AA@ 30052608     bg_panimate.obj
 0002:00006614       ??_C@_0L@EGOOCLKN@BOTH_PAIN1?$AA@ 30052614     bg_panimate.obj
 0002:00006620       ??_C@_0BE@FGJIJAMF@BOTH_DISMEMBER_LARM?$AA@ 30052620     bg_panimate.obj
 0002:00006634       ??_C@_0BE@IJEILJCG@BOTH_DISMEMBER_RARM?$AA@ 30052634     bg_panimate.obj
 0002:00006648       ??_C@_0BE@JIKEDMIE@BOTH_DISMEMBER_RLEG?$AA@ 30052648     bg_panimate.obj
 0002:0000665c       ??_C@_0BE@EHHEBFGH@BOTH_DISMEMBER_LLEG?$AA@ 3005265c     bg_panimate.obj
 0002:00006670       ??_C@_0BG@CFOELION@BOTH_DISMEMBER_TORSO1?$AA@ 30052670     bg_panimate.obj
 0002:00006688       ??_C@_0BF@OGJIODF@BOTH_DISMEMBER_HEAD1?$AA@ 30052688     bg_panimate.obj
 0002:000066a0       ??_C@_0BE@LPNGJLG@BOTH_FALLDEAD1_FLOP?$AA@ 300526a0     bg_panimate.obj
 0002:000066b4       ??_C@_0BH@MJEDBPGD@BOTH_STUMBLEDEAD1_FLOP?$AA@ 300526b4     bg_panimate.obj
 0002:000066cc       ??_C@_0BF@KCOGMEFO@BOTH_LYINGDEAD1_FLOP?$AA@ 300526cc     bg_panimate.obj
 0002:000066e4       ??_C@_0BI@GGNKAAPL@BOTH_DEADBACKWARD2_FLOP?$AA@ 300526e4     bg_panimate.obj
 0002:000066fc       ??_C@_0BI@FHDCBKGG@BOTH_DEADBACKWARD1_FLOP?$AA@ 300526fc     bg_panimate.obj
 0002:00006714       ??_C@_0BH@JEOBPPGI@BOTH_DEADFORWARD2_FLOP?$AA@ 30052714     bg_panimate.obj
 0002:0000672c       ??_C@_0BH@KFAJOFPF@BOTH_DEADFORWARD1_FLOP?$AA@ 3005272c     bg_panimate.obj
 0002:00006744       ??_C@_0P@FGLJEKCH@BOTH_DEADFLOP5?$AA@ 30052744     bg_panimate.obj
 0002:00006754       ??_C@_0P@EPKCHLGG@BOTH_DEADFLOP4?$AA@ 30052754     bg_panimate.obj
 0002:00006764       ??_C@_0P@ODONKB@BOTH_DEADFLOP3?$AA@ 30052764     bg_panimate.obj
 0002:00006774       ??_C@_0P@BJPINMOA@BOTH_DEADFLOP2?$AA@ 30052774     bg_panimate.obj
 0002:00006784       ??_C@_0P@DCNFIPCD@BOTH_DEADFLOP1?$AA@ 30052784     bg_panimate.obj
 0002:00006794       ??_C@_0BD@BHDKBOHF@BOTH_FALLDEAD1LAND?$AA@ 30052794     bg_panimate.obj
 0002:000067a8       ??_C@_0BC@DDLFNCPA@BOTH_STUMBLEDEAD1?$AA@ 300527a8     bg_panimate.obj
 0002:000067bc       ??_C@_0BA@HDEKJGIF@BOTH_LYINGDEAD1?$AA@ 300527bc     bg_panimate.obj
 0002:000067cc       ??_C@_0BD@OGHNINBL@BOTH_DEADBACKWARD2?$AA@ 300527cc     bg_panimate.obj
 0002:000067e0       ??_C@_0BD@MNFANONI@BOTH_DEADBACKWARD1?$AA@ 300527e0     bg_panimate.obj
 0002:000067f4       ??_C@_0BC@OHBPMGIK@BOTH_DEADFORWARD2?$AA@ 300527f4     bg_panimate.obj
 0002:00006808       ??_C@_0BC@MMDCJFEJ@BOTH_DEADFORWARD1?$AA@ 30052808     bg_panimate.obj
 0002:0000681c       ??_C@_0M@FPJLBMPP@BOTH_DEAD25?$AA@ 3005281c     bg_panimate.obj
 0002:00006828       ??_C@_0M@EGIACNLO@BOTH_DEAD24?$AA@ 30052828     bg_panimate.obj
 0002:00006834       ??_C@_0M@JMBLLHJ@BOTH_DEAD23?$AA@ 30052834     bg_panimate.obj
 0002:00006840       ??_C@_0M@BANKIKDI@BOTH_DEAD22?$AA@ 30052840     bg_panimate.obj
 0002:0000684c       ??_C@_0M@DLPHNJPL@BOTH_DEAD21?$AA@ 3005284c     bg_panimate.obj
 0002:00006858       ??_C@_0M@CCOMOILK@BOTH_DEAD20?$AA@ 30052858     bg_panimate.obj
 0002:00006864       ??_C@_0M@PBGIONKK@BOTH_DEAD19?$AA@ 30052864     bg_panimate.obj
 0002:00006870       ??_C@_0M@OIHDNMOL@BOTH_DEAD18?$AA@ 30052870     bg_panimate.obj
 0002:0000687c       ??_C@_0M@GPOLMACE@BOTH_DEAD17?$AA@ 3005287c     bg_panimate.obj
 0002:00006888       ??_C@_0M@HGPAPBGF@BOTH_DEAD16?$AA@ 30052888     bg_panimate.obj
 0002:00006894       ??_C@_0M@FNNNKCKG@BOTH_DEAD15?$AA@ 30052894     bg_panimate.obj
 0002:000068a0       ??_C@_0M@EEMGJDOH@BOTH_DEAD14?$AA@ 300528a0     bg_panimate.obj
 0002:000068ac       ??_C@_0M@LIHAFCA@BOTH_DEAD13?$AA@ 300528ac     bg_panimate.obj
 0002:000068b8       ??_C@_0M@BCJMDEGB@BOTH_DEAD12?$AA@ 300528b8     bg_panimate.obj
 0002:000068c4       ??_C@_0M@DJLBGHKC@BOTH_DEAD11?$AA@ 300528c4     bg_panimate.obj
 0002:000068d0       ??_C@_0M@CAKKFGOD@BOTH_DEAD10?$AA@ 300528d0     bg_panimate.obj
 0002:000068dc       ??_C@_0L@CLNDOKNB@BOTH_DEAD9?$AA@ 300528dc     bg_panimate.obj
 0002:000068e8       ??_C@_0L@DCMINLJA@BOTH_DEAD8?$AA@ 300528e8     bg_panimate.obj
 0002:000068f4       ??_C@_0L@LFFAMHFP@BOTH_DEAD7?$AA@ 300528f4     bg_panimate.obj
 0002:00006900       ??_C@_0L@KMELPGBO@BOTH_DEAD6?$AA@ 30052900     bg_panimate.obj
 0002:0000690c       ??_C@_0L@IHGGKFNN@BOTH_DEAD5?$AA@ 3005290c     bg_panimate.obj
 0002:00006918       ??_C@_0L@JOHNJEJM@BOTH_DEAD4?$AA@ 30052918     bg_panimate.obj
 0002:00006924       ??_C@_0L@NBDMACFL@BOTH_DEAD3?$AA@ 30052924     bg_panimate.obj
 0002:00006930       ??_C@_0L@MICHDDBK@BOTH_DEAD2?$AA@ 30052930     bg_panimate.obj
 0002:0000693c       ??_C@_0L@ODAKGANJ@BOTH_DEAD1?$AA@ 3005293c     bg_panimate.obj
 0002:00006948       ??_C@_0BE@CACMPNDI@BOTH_DEATH_CROUCHED?$AA@ 30052948     bg_panimate.obj
 0002:0000695c       ??_C@_0BG@GMBJBMLI@BOTH_DEATH_FALLING_UP?$AA@ 3005295c     bg_panimate.obj
 0002:00006974       ??_C@_0BG@KFLMOKCA@BOTH_DEATH_FALLING_DN?$AA@ 30052974     bg_panimate.obj
 0002:0000698c       ??_C@_0BE@GLFNKCIG@BOTH_DEATH_LYING_DN?$AA@ 3005298c     bg_panimate.obj
 0002:000069a0       ??_C@_0BE@KCPIFEBO@BOTH_DEATH_LYING_UP?$AA@ 300529a0     bg_panimate.obj
 0002:000069b4       ??_C@_0BE@GAFFKNDC@BOTH_DEATH_SPIN_180?$AA@ 300529b4     bg_panimate.obj
 0002:000069c8       ??_C@_0BF@CCDEOLBH@BOTH_DEATH_SPIN_90_L?$AA@ 300529c8     bg_panimate.obj
 0002:000069e0       ??_C@_0BF@PGHFNEMI@BOTH_DEATH_SPIN_90_R?$AA@ 300529e0     bg_panimate.obj
 0002:000069f8       ??_C@_0BA@PMBFHAFE@BOTH_DEATH_FLIP?$AA@ 300529f8     bg_panimate.obj
 0002:00006a08       ??_C@_0BA@JLHMHBEO@BOTH_DEATH_ROLL?$AA@ 30052a08     bg_panimate.obj
 0002:00006a18       ??_C@_0BE@KLPONOFB@BOTH_FALLDEATH1LAND?$AA@ 30052a18     bg_panimate.obj
 0002:00006a2c       ??_C@_0BF@BGGMCFAN@BOTH_FALLDEATH1INAIR?$AA@ 30052a2c     bg_panimate.obj
 0002:00006a44       ??_C@_0BA@MMMHHMBO@BOTH_FALLDEATH1?$AA@ 30052a44     bg_panimate.obj
 0002:00006a54       ??_C@_0BD@HAOKEEDM@BOTH_STUMBLEDEATH1?$AA@ 30052a54     bg_panimate.obj
 0002:00006a68       ??_C@_0BB@FAMFDOML@BOTH_LYINGDEATH1?$AA@ 30052a68     bg_panimate.obj
 0002:00006a7c       ??_C@_0BA@LIHBIFLP@BOTH_DEATH1IDLE?$AA@ 30052a7c     bg_panimate.obj
 0002:00006a8c       ??_C@_0BE@OINPDLJH@BOTH_DEATHBACKWARD2?$AA@ 30052a8c     bg_panimate.obj
 0002:00006aa0       ??_C@_0BE@MDPCGIFE@BOTH_DEATHBACKWARD1?$AA@ 30052aa0     bg_panimate.obj
 0002:00006ab4       ??_C@_0BD@IHDKEJMD@BOTH_DEATHFORWARD3?$AA@ 30052ab4     bg_panimate.obj
 0002:00006ac8       ??_C@_0BD@JOCBHIIC@BOTH_DEATHFORWARD2?$AA@ 30052ac8     bg_panimate.obj
 0002:00006adc       ??_C@_0BD@LFAMCLEB@BOTH_DEATHFORWARD1?$AA@ 30052adc     bg_panimate.obj
 0002:00006af0       ??_C@_0N@OOEBHHNI@BOTH_DEATH25?$AA@ 30052af0     bg_panimate.obj
 0002:00006b00       ??_C@_0N@PHFKEGJJ@BOTH_DEATH24?$AA@ 30052b00     bg_panimate.obj
 0002:00006b10       ??_C@_0N@LIBLNAFO@BOTH_DEATH23?$AA@ 30052b10     bg_panimate.obj
 0002:00006b20       ??_C@_0N@KBAAOBBP@BOTH_DEATH22?$AA@ 30052b20     bg_panimate.obj
 0002:00006b30       ??_C@_0N@IKCNLCNM@BOTH_DEATH21?$AA@ 30052b30     bg_panimate.obj
 0002:00006b40       ??_C@_0N@JDDGIDJN@BOTH_DEATH20?$AA@ 30052b40     bg_panimate.obj
 0002:00006b50       ??_C@_0N@EALCIGIN@BOTH_DEATH19?$AA@ 30052b50     bg_panimate.obj
 0002:00006b60       ??_C@_0N@FJKJLHMM@BOTH_DEATH18?$AA@ 30052b60     bg_panimate.obj
 0002:00006b70       ??_C@_0N@NODBKLAD@BOTH_DEATH17?$AA@ 30052b70     bg_panimate.obj
 0002:00006b80       ??_C@_0N@MHCKJKEC@BOTH_DEATH16?$AA@ 30052b80     bg_panimate.obj
 0002:00006b90       ??_C@_0N@OMAHMJIB@BOTH_DEATH15?$AA@ 30052b90     bg_panimate.obj
 0002:00006ba0       ??_C@_0N@PFBMPIMA@BOTH_DEATH14?$AA@ 30052ba0     bg_panimate.obj
 0002:00006bb0       ??_C@_0N@LKFNGOAH@BOTH_DEATH13?$AA@ 30052bb0     bg_panimate.obj
 0002:00006bc0       ??_C@_0N@KDEGFPEG@BOTH_DEATH12?$AA@ 30052bc0     bg_panimate.obj
 0002:00006bd0       ??_C@_0N@IIGLAMIF@BOTH_DEATH11?$AA@ 30052bd0     bg_panimate.obj
 0002:00006be0       ??_C@_0N@JBHADNME@BOTH_DEATH10?$AA@ 30052be0     bg_panimate.obj
 0002:00006bf0       ??_C@_0M@PKFBOJOK@BOTH_DEATH9?$AA@ 30052bf0     bg_panimate.obj
 0002:00006bfc       ??_C@_0M@ODEKNIKL@BOTH_DEATH8?$AA@ 30052bfc     bg_panimate.obj
 0002:00006c08       ??_C@_0M@GENCMEGE@BOTH_DEATH7?$AA@ 30052c08     bg_panimate.obj
 0002:00006c14       ??_C@_0M@HNMJPFCF@BOTH_DEATH6?$AA@ 30052c14     bg_panimate.obj
 0002:00006c20       ??_C@_0M@FGOEKGOG@BOTH_DEATH5?$AA@ 30052c20     bg_panimate.obj
 0002:00006c2c       ??_C@_0M@EPPPJHKH@BOTH_DEATH4?$AA@ 30052c2c     bg_panimate.obj
 0002:00006c38       ??_C@_0M@LOABGA@BOTH_DEATH3?$AA@ 30052c38     bg_panimate.obj
 0002:00006c44       ??_C@_0M@BJKFDACB@BOTH_DEATH2?$AA@ 30052c44     bg_panimate.obj
 0002:00006c50       ??_C@_0M@DCIIGDOC@BOTH_DEATH1?$AA@ 30052c50     bg_panimate.obj
 0002:00006c5c       ??_C@_0BC@PEKHHMGD@BOTH_1CRUFTFORGIL?$AA@ 30052c5c     bg_panimate.obj
 0002:00006c70       __real@408f400000000000    30052c70     bg_panimate.obj
 0002:00006c78       __real@447a0000            30052c78     bg_panimate.obj
 0002:00006c7c       ??_C@_0CF@HPEJFMOD@?$CFd?3?5?5StartLegsAnim?5?$CFd?0?5on?5client@ 30052c7c     bg_panimate.obj
 0002:00006ca8       __real@3fe8000000000000    30052ca8     bg_panimate.obj
 0002:00006cb0       __real@3ff8000000000000    30052cb0     bg_panimate.obj
 0002:00006cb8       __real@3fe89d89d89d89d8    30052cb8     bg_panimate.obj
 0002:00006cc0       __real@3fe2d2d2d2d2d2d3    30052cc0     bg_panimate.obj
 0002:00006cc8       __real@3fb999999999999a    30052cc8     bg_pmove.obj
 0002:00006cd0       __real@3f800000            30052cd0     bg_pmove.obj
 0002:00006cd8       __real@405fc00000000000    30052cd8     bg_pmove.obj
 0002:00006ce0       __real@43360b61            30052ce0     bg_pmove.obj
 0002:00006ce4       __real@437a0000            30052ce4     bg_pmove.obj
 0002:00006ce8       __real@42c80000            30052ce8     bg_pmove.obj
 0002:00006cec       __real@43c80000            30052cec     bg_pmove.obj
 0002:00006cf0       __real@42a00000            30052cf0     bg_pmove.obj
 0002:00006cf4       __real@43480000            30052cf4     bg_pmove.obj
 0002:00006cf8       __real@3fe6666666666666    30052cf8     bg_pmove.obj
 0002:00006d00       __real@41800000            30052d00     bg_pmove.obj
 0002:00006d04       __real@43000000            30052d04     bg_pmove.obj
 0002:00006d08       __real@3ee38e39            30052d08     bg_pmove.obj
 0002:00006d0c       __real@3f000000            30052d0c     bg_pmove.obj
 0002:00006d10       __real@42000000            30052d10     bg_pmove.obj
 0002:00006d14       __real@43fa0000            30052d14     bg_pmove.obj
 0002:00006d18       __real@43e10000            30052d18     bg_pmove.obj
 0002:00006d1c       __real@41000000            30052d1c     bg_pmove.obj
 0002:00006d20       __real@43610000            30052d20     bg_pmove.obj
 0002:00006d24       __real@3dcccccd            30052d24     bg_pmove.obj
 0002:00006d28       __real@c3160000            30052d28     bg_pmove.obj
 0002:00006d2c       __real@43160000            30052d2c     bg_pmove.obj
 0002:00006d30       __real@40800000            30052d30     bg_pmove.obj
 0002:00006d34       __real@41f00000            30052d34     bg_pmove.obj
 0002:00006d38       __real@3c010204            30052d38     bg_pmove.obj
 0002:00006d3c       __real@41200000            30052d3c     bg_pmove.obj
 0002:00006d40       __real@3f7fbe87            30052d40     bg_pmove.obj
 0002:00006d44       __real@3f8020c5            30052d44     bg_pmove.obj
 0002:00006d48       __real@3ff0000000000000    30052d48     bg_pmove.obj
 0002:00006d50       __real@3fd5555555555555    30052d50     bg_pmove.obj
 0002:00006d58       __real@41a00000            30052d58     bg_pmove.obj
 0002:00006d5c       __real@42800000            30052d5c     bg_pmove.obj
 0002:00006d60       __real@41900000            30052d60     bg_pmove.obj
 0002:00006d68       __real@3fd3333333333333    30052d68     bg_pmove.obj
 0002:00006d70       __real@40e00000            30052d70     bg_pmove.obj
 0002:00006d74       __real@3eaaaaab            30052d74     bg_pmove.obj
 0002:00006d78       __real@40000000            30052d78     bg_pmove.obj
 0002:00006d80       __real@3fd0000000000000    30052d80     bg_pmove.obj
 0002:00006d88       __real@3f1a36e2eb1c432d    30052d88     bg_pmove.obj
 0002:00006d90       ??_C@_0N@KJCNHCBK@?$CFi?3allsolid?6?$AA@ 30052d90     bg_pmove.obj
 0002:00006da0       ??_C@_08EOGJDHPF@?$CFi?3lift?6?$AA@ 30052da0     bg_pmove.obj
 0002:00006dac       __real@c3480000            30052dac     bg_pmove.obj
 0002:00006db0       ??_C@_08KACHPCJN@?$CFi?3Land?6?$AA@ 30052db0     bg_pmove.obj
 0002:00006dbc       ??_C@_09OPMLNNOA@?$CFi?3steep?6?$AA@ 30052dbc     bg_pmove.obj
 0002:00006dc8       __real@3f333333            30052dc8     bg_pmove.obj
 0002:00006dcc       ??_C@_0M@CKJFDFGH@?$CFi?3kickoff?6?$AA@ 30052dcc     bg_pmove.obj
 0002:00006dd8       __real@41c00000            30052dd8     bg_pmove.obj
 0002:00006ddc       __real@41b80000            30052ddc     bg_pmove.obj
 0002:00006de0       __real@40a00000            30052de0     bg_pmove.obj
 0002:00006de4       __real@42700000            30052de4     bg_pmove.obj
 0002:00006de8       __real@45000000            30052de8     bg_pmove.obj
 0002:00006dec       __real@45800000            30052dec     bg_pmove.obj
 0002:00006df0       __real@3feccccccccccccd    30052df0     bg_pmove.obj
 0002:00006df8       __real@3f76800000000000    30052df8     bg_pmove.obj
 0002:00006e00       __real@42480000            30052e00     bg_pmove.obj
 0002:00006e04       __real@3d0f5c29            30052e04     bg_pmove.obj
 0002:00006e08       __real@3fe5555555555555    30052e08     bg_pmove.obj
 0002:00006e10       __real@3f19999a            30052e10     bg_pmove.obj
 0002:00006e14       __real@3ecccccd            30052e14     bg_pmove.obj
 0002:00006e18       __real@3f59999a            30052e18     bg_pmove.obj
 0002:00006e1c       __real@3f0ccccd            30052e1c     bg_pmove.obj
 0002:00006e20       __real@3e99999a            30052e20     bg_pmove.obj
 0002:00006e24       __real@3f400000            30052e24     bg_pmove.obj
 0002:00006e28       __real@3ee66666            30052e28     bg_pmove.obj
 0002:00006e30       __real@3fc999999999999a    30052e30     bg_pmove.obj
 0002:00006e38       __real@3ff4cccccccccccd    30052e38     bg_pmove.obj
 0002:00006e40       __real@3ba3d70a            30052e40     bg_pmove.obj
 0002:00006e48       __real@3ff3333333333333    30052e48     bg_pmove.obj
 0002:00006e50       __real@3fe999999999999a    30052e50     bg_pmove.obj
 0002:00006e58       __real@3fe3333333333333    30052e58     bg_pmove.obj
 0002:00006e60       __real@3fd999999999999a    30052e60     bg_pmove.obj
 0002:00006e68       ??_C@_0L@PFJLCLDC@Reflect?5LL?$AA@ 30052e68     bg_saber.obj
 0002:00006e74       ??_C@_0L@CBNKBEON@Reflect?5LR?$AA@ 30052e74     bg_saber.obj
 0002:00006e80       ??_C@_0L@OGGMLDMN@Reflect?5UL?$AA@ 30052e80     bg_saber.obj
 0002:00006e8c       ??_C@_0L@DCCNIMBC@Reflect?5UR?$AA@ 30052e8c     bg_saber.obj
 0002:00006e98       ??_C@_0M@EILLDEJE@Reflect?5Top?$AA@ 30052e98     bg_saber.obj
 0002:00006ea4       ??_C@_08DLEEDOOH@Parry?5LL?$AA@ 30052ea4     bg_saber.obj
 0002:00006eb0       ??_C@_08OPAFABDI@Parry?5LR?$AA@ 30052eb0     bg_saber.obj
 0002:00006ebc       ??_C@_08CILDKGBI@Parry?5UL?$AA@ 30052ebc     bg_saber.obj
 0002:00006ec8       ??_C@_08PMPCJJMH@Parry?5UR?$AA@ 30052ec8     bg_saber.obj
 0002:00006ed4       ??_C@_09LOMMMNNK@Parry?5Top?$AA@ 30052ed4     bg_saber.obj
 0002:00006ee0       ??_C@_08BIFCBIDF@Knock?5LL?$AA@ 30052ee0     bg_saber.obj
 0002:00006eec       ??_C@_08MMBDCHOK@Knock?5LR?$AA@ 30052eec     bg_saber.obj
 0002:00006ef8       ??_C@_08LKFIAMK@Knock?5UL?$AA@ 30052ef8     bg_saber.obj
 0002:00006f04       ??_C@_08NPOELPBF@Knock?5UR?$AA@ 30052f04     bg_saber.obj
 0002:00006f10       ??_C@_09NGDCGIAE@Knock?5Top?$AA@ 30052f10     bg_saber.obj
 0002:00006f1c       ??_C@_09KEIIJFKC@BParry?5LL?$AA@ 30052f1c     bg_saber.obj
 0002:00006f28       ??_C@_0L@KJPLHJCJ@BParry?5Bot?$AA@ 30052f28     bg_saber.obj
 0002:00006f34       ??_C@_09HAMJKKHN@BParry?5LR?$AA@ 30052f34     bg_saber.obj
 0002:00006f40       ??_C@_09LHHPANFN@BParry?5UL?$AA@ 30052f40     bg_saber.obj
 0002:00006f4c       ??_C@_09GDDODCIC@BParry?5UR?$AA@ 30052f4c     bg_saber.obj
 0002:00006f58       ??_C@_0L@LIOFLEGO@BParry?5Top?$AA@ 30052f58     bg_saber.obj
 0002:00006f64       ??_C@_0M@LODFIFIA@Reflected?5B?$AA@ 30052f64     bg_saber.obj
 0002:00006f70       ??_C@_0N@LBMKLGKM@Reflected?5BL?$AA@ 30052f70     bg_saber.obj
 0002:00006f80       ??_C@_0M@CALGKIAO@Reflected?5L?$AA@ 30052f80     bg_saber.obj
 0002:00006f8c       ??_C@_0N@KJGBGJGO@Reflected?5TL?$AA@ 30052f8c     bg_saber.obj
 0002:00006f9c       ??_C@_0M@KCKNDAFH@Reflected?5T?$AA@ 30052f9c     bg_saber.obj
 0002:00006fa8       ??_C@_0N@HNCAFGLB@Reflected?5TR?$AA@ 30052fa8     bg_saber.obj
 0002:00006fb8       ??_C@_0M@PEPHJHNB@Reflected?5R?$AA@ 30052fb8     bg_saber.obj
 0002:00006fc4       ??_C@_0N@GFILIJHD@Reflected?5BR?$AA@ 30052fc4     bg_saber.obj
 0002:00006fd4       ??_C@_09FPLGLEMN@Deflect?5B?$AA@ 30052fd4     bg_saber.obj
 0002:00006fe0       ??_C@_0L@LJEGAILA@Deflect?5BL?$AA@ 30052fe0     bg_saber.obj
 0002:00006fec       ??_C@_09MBDFJJED@Deflect?5L?$AA@ 30052fec     bg_saber.obj
 0002:00006ff8       ??_C@_0L@KBONNHHC@Deflect?5TL?$AA@ 30052ff8     bg_saber.obj
 0002:00007004       ??_C@_09EDCOABBK@Deflect?5T?$AA@ 30053004     bg_saber.obj
 0002:00007010       ??_C@_0L@HFKMOIKN@Deflect?5TR?$AA@ 30053010     bg_saber.obj
 0002:0000701c       ??_C@_09BFHEKGJM@Deflect?5R?$AA@ 3005301c     bg_saber.obj
 0002:00007028       ??_C@_0L@GNAHDHGP@Deflect?5BR?$AA@ 30053028     bg_saber.obj
 0002:00007034       ??_C@_09GKILNFHN@Bounce?5BL?$AA@ 30053034     bg_saber.obj
 0002:00007040       ??_C@_08NKBMKPCE@Bounce?5L?$AA@ 30053040     bg_saber.obj
 0002:0000704c       ??_C@_09HCCAAKLP@Bounce?5TL?$AA@ 3005304c     bg_saber.obj
 0002:00007058       ??_C@_08FIAHDHHN@Bounce?5T?$AA@ 30053058     bg_saber.obj
 0002:00007064       ??_C@_09KGGBDFGA@Bounce?5TR?$AA@ 30053064     bg_saber.obj
 0002:00007070       ??_C@_08OFNJAPL@Bounce?5R?$AA@ 30053070     bg_saber.obj
 0002:0000707c       ??_C@_09LOMKOKKC@Bounce?5BR?$AA@ 3005307c     bg_saber.obj
 0002:00007088       ??_C@_0L@POFOKKEO@BL2L?5Trans?$AA@ 30053088     bg_saber.obj
 0002:00007094       ??_C@_0M@KHNLJCKB@BL2TL?5Trans?$AA@ 30053094     bg_saber.obj
 0002:000070a0       ??_C@_0L@FBAAIANA@BL2T?5Trans?$AA@ 300530a0     bg_saber.obj
 0002:000070ac       ??_C@_0M@MOOKLBLI@BL2TR?5Trans?$AA@ 300530ac     bg_saber.obj
 0002:000070b8       ??_C@_0L@JHGPIJFH@BL2R?5Trans?$AA@ 300530b8     bg_saber.obj
 0002:000070c4       ??_C@_0M@BBDAIKED@BL2BR?5Trans?$AA@ 300530c4     bg_saber.obj
 0002:000070d0       ??_C@_0L@LEALPHLG@L2BL?5Trans?$AA@ 300530d0     bg_saber.obj
 0002:000070dc       ??_C@_0L@GLNBMMEN@L2TL?5Trans?$AA@ 300530dc     bg_saber.obj
 0002:000070e8       ??_C@_09FHCJPJGE@L2T?5Trans?$AA@ 300530e8     bg_saber.obj
 0002:000070f4       ??_C@_0L@COAOPFE@L2TR?5Trans?$AA@ 300530f4     bg_saber.obj
 0002:00007100       ??_C@_09JBEGPAOD@L2R?5Trans?$AA@ 30053100     bg_saber.obj
 0002:0000710c       ??_C@_0L@NNDKNEKP@L2BR?5Trans?$AA@ 3005310c     bg_saber.obj
 0002:00007118       ??_C@_0M@JLCEOBEG@TL2BL?5Trans?$AA@ 30053118     bg_saber.obj
 0002:00007124       ??_C@_0L@LIBNKEMG@TL2L?5Trans?$AA@ 30053124     bg_saber.obj
 0002:00007130       ??_C@_0L@BHEDIOFI@TL2T?5Trans?$AA@ 30053130     bg_saber.obj
 0002:0000713c       ??_C@_0M@CNMPPJKE@TL2TR?5Trans?$AA@ 3005313c     bg_saber.obj
 0002:00007148       ??_C@_0L@NBCMIHNP@TL2R?5Trans?$AA@ 30053148     bg_saber.obj
 0002:00007154       ??_C@_0M@PCBFMCFP@TL2BR?5Trans?$AA@ 30053154     bg_saber.obj
 0002:00007160       ??_C@_0L@KADONCDI@T2BL?5Trans?$AA@ 30053160     bg_saber.obj
 0002:0000716c       ??_C@_09MMAOBCOG@T2L?5Trans?$AA@ 3005316c     bg_saber.obj
 0002:00007178       ??_C@_0L@HPOEOJMD@T2TL?5Trans?$AA@ 30053178     bg_saber.obj
 0002:00007184       ??_C@_0L@BGNFMKNK@T2TR?5Trans?$AA@ 30053184     bg_saber.obj
 0002:00007190       ??_C@_09KFDPDBPP@T2R?5Trans?$AA@ 30053190     bg_saber.obj
 0002:0000719c       ??_C@_0L@MJAPPBCB@T2BR?5Trans?$AA@ 3005319c     bg_saber.obj
 0002:000071a8       ??_C@_0M@GHKEAOIL@TR2BL?5Trans?$AA@ 300531a8     bg_saber.obj
 0002:000071b4       ??_C@_0L@IBHKBFJN@TR2L?5Trans?$AA@ 300531b4     bg_saber.obj
 0002:000071c0       ??_C@_0M@LIHODFHA@TR2TL?5Trans?$AA@ 300531c0     bg_saber.obj
 0002:000071cc       ??_C@_0L@COCEDPAD@TR2T?5Trans?$AA@ 300531cc     bg_saber.obj
 0002:000071d8       ??_C@_0L@OIELDGIE@TR2R?5Trans?$AA@ 300531d8     bg_saber.obj
 0002:000071e4       ??_C@_0M@OJFCNJC@TR2BR?5Trans?$AA@ 300531e4     bg_saber.obj
 0002:000071f0       ??_C@_0L@EIILBIHL@R2BL?5Trans?$AA@ 300531f0     bg_saber.obj
 0002:000071fc       ??_C@_09MBBAGCKB@R2L?5Trans?$AA@ 300531fc     bg_saber.obj
 0002:00007208       ??_C@_0L@JHFBCDIA@R2TL?5Trans?$AA@ 30053208     bg_saber.obj
 0002:00007214       ??_C@_09GOEOEIDP@R2T?5Trans?$AA@ 30053214     bg_saber.obj
 0002:00007220       ??_C@_0L@POGAAAJJ@R2TR?5Trans?$AA@ 30053220     bg_saber.obj
 0002:0000722c       ??_C@_0L@CBLKDLGC@R2BR?5Trans?$AA@ 3005322c     bg_saber.obj
 0002:00007238       ??_C@_0M@IEIBEGJH@BR2BL?5Trans?$AA@ 30053238     bg_saber.obj
 0002:00007244       ??_C@_0L@MHDJBLBF@BR2L?5Trans?$AA@ 30053244     bg_saber.obj
 0002:00007250       ??_C@_0M@FLFLHNGM@BR2TL?5Trans?$AA@ 30053250     bg_saber.obj
 0002:0000725c       ??_C@_0L@GIGHDBIL@BR2T?5Trans?$AA@ 3005325c     bg_saber.obj
 0002:00007268       ??_C@_0M@DCGKFOHF@BR2TR?5Trans?$AA@ 30053268     bg_saber.obj
 0002:00007274       ??_C@_0L@KOAIDIAM@BR2R?5Trans?$AA@ 30053274     bg_saber.obj
 0002:00007280       ??_C@_07JDFHJPKC@T2B?5Ret?$AA@ 30053280     bg_saber.obj
 0002:00007288       ??_C@_09DJECHPBI@TR2BL?5Ret?$AA@ 30053288     bg_saber.obj
 0002:00007294       ??_C@_07GPDCPHFF@R2L?5Ret?$AA@ 30053294     bg_saber.obj
 0002:0000729c       ??_C@_09BHPMCHED@BR2TL?5Ret?$AA@ 3005329c     bg_saber.obj
 0002:000072a8       ??_C@_09EKCCNNEL@BL2TR?5Ret?$AA@ 300532a8     bg_saber.obj
 0002:000072b4       ??_C@_07DPNPLHKH@L2R?5Ret?$AA@ 300532b4     bg_saber.obj
 0002:000072bc       ??_C@_09GEJMIFBA@TL2BR?5Ret?$AA@ 300532bc     bg_saber.obj
 0002:000072c8       ??_C@_06FLBDMDIP@T2B?5St?$AA@ 300532c8     bg_saber.obj
 0002:000072d0       ??_C@_08EELPCGOB@TR2BL?5St?$AA@ 300532d0     bg_saber.obj
 0002:000072dc       ??_C@_06IHPDEINE@R2L?5St?$AA@ 300532dc     bg_saber.obj
 0002:000072e4       ??_C@_08EOOKPMJM@BR2TL?5St?$AA@ 300532e4     bg_saber.obj
 0002:000072f0       ??_C@_08PIALPGGG@BL2TR?5St?$AA@ 300532f0     bg_saber.obj
 0002:000072fc       ??_C@_06GPMCIGKE@L2R?5St?$AA@ 300532fc     bg_saber.obj
 0002:00007304       ??_C@_08PCFOCMBL@TL2BR?5St?$AA@ 30053304     bg_saber.obj
 0002:00007310       ??_C@_0L@FMKCKBGH@Flip?5Slash?$AA@ 30053310     bg_saber.obj
 0002:0000731c       ??_C@_09JENGNGLB@Flip?5Stab?$AA@ 3005331c     bg_saber.obj
 0002:00007328       ??_C@_08KNHLLBPK@Jump?5Att?$AA@ 30053328     bg_saber.obj
 0002:00007334       ??_C@_09LEMMEBE@Lunge?5Att?$AA@ 30053334     bg_saber.obj
 0002:00007340       ??_C@_0M@GCNCHFMC@CR?5Back?5Att?$AA@ 30053340     bg_saber.obj
 0002:0000734c       ??_C@_08NHHMKFDG@Back?5Att?$AA@ 3005334c     bg_saber.obj
 0002:00007358       ??_C@_09JIGLEFGA@Back?5Stab?$AA@ 30053358     bg_saber.obj
 0002:00007364       ??_C@_07MMBPKOJE@T2B?5Att?$AA@ 30053364     bg_saber.obj
 0002:0000736c       ??_C@_09GGAKEOCO@TR2BL?5Att?$AA@ 3005336c     bg_saber.obj
 0002:00007378       ??_C@_07DAHKMGGD@R2L?5Att?$AA@ 30053378     bg_saber.obj
 0002:00007380       ??_C@_09EILEBGHF@BR2TL?5Att?$AA@ 30053380     bg_saber.obj
 0002:0000738c       ??_C@_09BFGKOMHN@BL2TR?5Att?$AA@ 3005338c     bg_saber.obj
 0002:00007398       ??_C@_07GAJHIGJB@L2R?5Att?$AA@ 30053398     bg_saber.obj
 0002:000073a0       ??_C@_09DLNELECG@TL2BR?5Att?$AA@ 300533a0     bg_saber.obj
 0002:000073ac       ??_C@_07EEKMGHL@Putaway?$AA@ 300533ac     bg_saber.obj
 0002:000073b4       ??_C@_04HMPDNAFK@Draw?$AA@ 300533b4     bg_saber.obj
 0002:000073bc       ??_C@_05GMBADOLI@Ready?$AA@ 300533bc     bg_saber.obj
 0002:000073c4       ??_C@_04OHJIHAFH@None?$AA@ 300533c4     bg_saber.obj
 0002:000073cc       __real@43200000            300533cc     bg_saber.obj
 0002:000073d0       __real@43a00000            300533d0     bg_saber.obj
 0002:000073d8       __real@4054000000000000    300533d8     bg_saber.obj
 0002:000073e0       __real@45c80000            300533e0     bg_saber.obj
 0002:000073e4       __real@3fc00000            300533e4     bg_saber.obj
 0002:000073e8       __real@43960000            300533e8     bg_saber.obj
 0002:000073f0       __real@3fefae147ae147ae    300533f0     bg_slidemove.obj
 0002:000073f8       ??_C@_0M@CDHDENEF@?$CFi?3stepped?6?$AA@ 300533f8     bg_slidemove.obj
 0002:00007404       __real@41700000            30053404     bg_slidemove.obj
 0002:00007408       __real@41300000            30053408     bg_slidemove.obj
 0002:00007410       __real@3fa47ae147ae147b    30053410     bg_slidemove.obj
 0002:00007418       __real@43f00000            30053418     bg_slidemove.obj
 0002:0000741c       ??_C@_0BE@FLPNHHPN@?$CFi?3bend?5can?8t?5step?6?$AA@ 3005341c     bg_slidemove.obj
 0002:00007430       ??_C@_09EANJKMNE@forceprev?$AA@ 30053430     cg_consolecmds.obj
 0002:0000743c       ??_C@_09HEAPLILA@forcenext?$AA@ 3005343c     cg_consolecmds.obj
 0002:00007448       ??_C@_07FMBGBNAB@invprev?$AA@ 30053448     cg_consolecmds.obj
 0002:00007450       ??_C@_07GIMAAJGF@invnext?$AA@ 30053450     cg_consolecmds.obj
 0002:00007458       ??_C@_0N@FDCACBMC@loaddeferred?$AA@ 30053458     cg_consolecmds.obj
 0002:00007468       ??_C@_0L@FBDGNAPC@startOrbit?$AA@ 30053468     cg_consolecmds.obj
 0002:00007474       ??_C@_08NILIEBDN@scoresUp?$AA@ 30053474     cg_consolecmds.obj
 0002:00007480       ??_C@_0L@JEAJCAAH@scoresDown?$AA@ 30053480     cg_consolecmds.obj
 0002:0000748c       ??_C@_06EEKPMAA@spLose?$AA@ 3005348c     cg_consolecmds.obj
 0002:00007494       ??_C@_05NAPLEAGB@spWin?$AA@ 30053494     cg_consolecmds.obj
 0002:0000749c       ??_C@_0O@BNPKDDEF@tauntGauntlet?$AA@ 3005349c     cg_consolecmds.obj
 0002:000074ac       ??_C@_0BB@DHLHLJJP@tauntDeathInsult?$AA@ 300534ac     cg_consolecmds.obj
 0002:000074c0       ??_C@_0L@OFGCNOGN@tauntTaunt?$AA@ 300534c0     cg_consolecmds.obj
 0002:000074cc       ??_C@_0M@FHJJKLIB@tauntPraise?$AA@ 300534cc     cg_consolecmds.obj
 0002:000074d8       ??_C@_0BA@LAKLAIKA@tauntKillInsult?$AA@ 300534d8     cg_consolecmds.obj
 0002:000074e8       ??_C@_0M@NPBCACOK@taskOwnFlag?$AA@ 300534e8     cg_consolecmds.obj
 0002:000074f4       ??_C@_0M@HEJOPHDA@taskSuicide?$AA@ 300534f4     cg_consolecmds.obj
 0002:00007500       ??_C@_0L@JKHNIMGE@taskEscort?$AA@ 30053500     cg_consolecmds.obj
 0002:0000750c       ??_C@_0N@DNLIECKN@taskRetrieve?$AA@ 3005350c     cg_consolecmds.obj
 0002:0000751c       ??_C@_0L@HALHAPMG@taskFollow?$AA@ 3005351c     cg_consolecmds.obj
 0002:00007528       ??_C@_08OELCHPPI@taskCamp?$AA@ 30053528     cg_consolecmds.obj
 0002:00007534       ??_C@_0L@HNDPADH@taskPatrol?$AA@ 30053534     cg_consolecmds.obj
 0002:00007540       ??_C@_0M@JPJGJJPF@taskDefense?$AA@ 30053540     cg_consolecmds.obj
 0002:0000754c       ??_C@_0M@PDBEJPDO@taskOffense?$AA@ 3005354c     cg_consolecmds.obj
 0002:00007558       ??_C@_09PEFBKJOE@denyOrder?$AA@ 30053558     cg_consolecmds.obj
 0002:00007564       ??_C@_0N@KJLGMAFH@confirmOrder?$AA@ 30053564     cg_consolecmds.obj
 0002:00007574       ??_C@_09DIHAGAEB@nextOrder?$AA@ 30053574     cg_consolecmds.obj
 0002:00007580       ??_C@_0P@NMPIEJIB@prevTeamMember?$AA@ 30053580     cg_consolecmds.obj
 0002:00007590       ??_C@_0P@GJIGAACM@nextTeamMember?$AA@ 30053590     cg_consolecmds.obj
 0002:000075a0       ??_C@_04FNICOANA@tcmd?$AA@ 300535a0     cg_consolecmds.obj
 0002:000075a8       ??_C@_0P@KDBBCIM@vtell_attacker?$AA@ 300535a8     cg_consolecmds.obj
 0002:000075b8       ??_C@_0N@OKPMAMBK@vtell_target?$AA@ 300535b8     cg_consolecmds.obj
 0002:000075c8       ??_C@_0O@CIPPGGPC@tell_attacker?$AA@ 300535c8     cg_consolecmds.obj
 0002:000075d8       ??_C@_0M@IEEMCPKO@tell_target?$AA@ 300535d8     cg_consolecmds.obj
 0002:000075e4       ??_C@_06GEPNGEJI@weapon?$AA@ 300535e4     cg_consolecmds.obj
 0002:000075ec       ??_C@_08DMEBPOGB@weapprev?$AA@ 300535ec     cg_consolecmds.obj
 0002:000075f8       ??_C@_08IJHOKAF@weapnext?$AA@ 300535f8     cg_consolecmds.obj
 0002:00007604       ??_C@_08KKGKLAHJ@sizedown?$AA@ 30053604     cg_consolecmds.obj
 0002:00007610       ??_C@_06FCHHJILH@sizeup?$AA@ 30053610     cg_consolecmds.obj
 0002:00007618       ??_C@_07DLBEELCG@?9scores?$AA@ 30053618     cg_consolecmds.obj
 0002:00007620       ??_C@_07PNHLECKB@?$CLscores?$AA@ 30053620     cg_consolecmds.obj
 0002:00007628       ??_C@_07NBKBBFDF@viewpos?$AA@ 30053628     cg_consolecmds.obj
 0002:00007630       ??_C@_08ONPIGPGM@prevskin?$AA@ 30053630     cg_consolecmds.obj
 0002:0000763c       ??_C@_08LEEFJCLI@nextskin?$AA@ 3005363c     cg_consolecmds.obj
 0002:00007648       ??_C@_09KFHKLKJD@prevframe?$AA@ 30053648     cg_consolecmds.obj
 0002:00007654       ??_C@_09CEJNBBKD@nextframe?$AA@ 30053654     cg_consolecmds.obj
 0002:00007660       ??_C@_09FDMDKFOH@testmodel?$AA@ 30053660     cg_consolecmds.obj
 0002:0000766c       ??_C@_07OFBIMGPG@testgun?$AA@ 3005366c     cg_consolecmds.obj
 0002:00007674       ??_C@_08FJOFODJK@gc?5?$CFi?5?$CFi?$AA@ 30053674     cg_consolecmds.obj
 0002:00007680       ??_C@_0M@NABCNGBA@cg_viewsize?$AA@ 30053680     cg_consolecmds.obj
 0002:0000768c       ??_C@_0BE@LIFMFIFG@?$CFs?5?$CI?$CFi?5?$CFi?5?$CFi?$CJ?5?3?5?$CFi?6?$AA@ 3005368c     cg_consolecmds.obj
 0002:000076a0       ??_C@_05DBKDOICH@score?$AA@ 300536a0     cg_consolecmds.obj
 0002:000076a8       ??_C@_08NLEPLOFO@YOU?5WIN?$CB?$AA@ 300536a8     cg_consolecmds.obj
 0002:000076b4       ??_C@_0BE@FKFEAA@cg_thirdPersonRange?$AA@ 300536b4     cg_consolecmds.obj
 0002:000076c8       ??_C@_03GNABGMEE@100?$AA@  300536c8     cg_consolecmds.obj
 0002:000076cc       ??_C@_0BE@HGBFBDIP@cg_thirdPersonAngle?$AA@ 300536cc     cg_consolecmds.obj
 0002:000076e0       ??_C@_01GBGANLPD@0?$AA@    300536e0     cg_consolecmds.obj
 0002:000076e4       ??_C@_0P@OPFJLCMG@cg_thirdPerson?$AA@ 300536e4     cg_consolecmds.obj
 0002:000076f4       ??_C@_01HIHLOKLC@1?$AA@    300536f4     cg_consolecmds.obj
 0002:000076f8       ??_C@_0BE@EKDKKKAP@cg_cameraOrbitDelay?$AA@ 300536f8     cg_consolecmds.obj
 0002:0000770c       ??_C@_02IEKCLPJC@35?$AA@   3005370c     cg_consolecmds.obj
 0002:00007710       ??_C@_0P@GDCMABHL@cg_cameraOrbit?$AA@ 30053710     cg_consolecmds.obj
 0002:00007720       ??_C@_01FDFGLJHB@2?$AA@    30053720     cg_consolecmds.obj
 0002:00007724       ??_C@_0M@BCMFLOBC@YOU?5LOSE?4?4?4?$AA@ 30053724     cg_consolecmds.obj
 0002:00007730       ??_C@_0L@EGAGNODH@tell?5?$CFi?5?$CFs?$AA@ 30053730     cg_consolecmds.obj
 0002:0000773c       ??_C@_0M@JNCDINKA@vtell?5?$CFi?5?$CFs?$AA@ 3005373c     cg_consolecmds.obj
 0002:00007748       ??_C@_0N@GCNFIOOC@teamtask?5?$CFd?6?$AA@ 30053748     cg_consolecmds.obj
 0002:00007758       ??_C@_0BJ@CIHFDIFK@?$CLbutton5?$DL?5wait?$DL?5?9button5?$AA@ 30053758     cg_consolecmds.obj
 0002:00007774       ??_C@_0BB@EDPDFHAC@cmd?5vtell?5?$CFd?5?$CFs?6?$AA@ 30053774     cg_consolecmds.obj
 0002:00007788       ??_C@_03ICICOMAL@yes?$AA@  30053788     cg_consolecmds.obj
 0002:0000778c       ??_C@_0BJ@OJNOLGPL@?$CLbutton6?$DL?5wait?$DL?5?9button6?$AA@ 3005378c     cg_consolecmds.obj
 0002:000077a8       ??_C@_02KAJCLHKP@no?$AA@   300537a8     cg_consolecmds.obj
 0002:000077ac       ??_C@_0BC@KMMJHODH@cmd?5vsay_team?5?$CFs?6?$AA@ 300537ac     cg_consolecmds.obj
 0002:000077c0       ??_C@_09DPAAIBFE@ongetflag?$AA@ 300537c0     cg_consolecmds.obj
 0002:000077cc       ??_C@_09FDCOIECL@onoffense?$AA@ 300537cc     cg_consolecmds.obj
 0002:000077d8       ??_C@_09DPKMICOA@ondefense?$AA@ 300537d8     cg_consolecmds.obj
 0002:000077e4       ??_C@_08DHCKJNNH@onpatrol?$AA@ 300537e4     cg_consolecmds.obj
 0002:000077f0       ??_C@_06BPKLMONJ@oncamp?$AA@ 300537f0     cg_consolecmds.obj
 0002:000077f8       ??_C@_08EAEOGCCG@onfollow?$AA@ 300537f8     cg_consolecmds.obj
 0002:00007804       ??_C@_0N@INDGBJCC@onreturnflag?$AA@ 30053804     cg_consolecmds.obj
 0002:00007814       ??_C@_0BA@DGOAEJLI@onfollowcarrier?$AA@ 30053814     cg_consolecmds.obj
 0002:00007824       ??_C@_09BJNHNGHD@ihaveflag?$AA@ 30053824     cg_consolecmds.obj
 0002:00007830       ??_C@_0BG@GKMCGMMB@cmd?5vsay?5kill_insult?6?$AA@ 30053830     cg_consolecmds.obj
 0002:00007848       ??_C@_0BB@DOCEHHHI@cmd?5vsay?5praise?6?$AA@ 30053848     cg_consolecmds.obj
 0002:0000785c       ??_C@_0M@OIDHANKH@cmd?5vtaunt?6?$AA@ 3005385c     cg_consolecmds.obj
 0002:00007868       ??_C@_0BH@PLPBAJGH@cmd?5vsay?5death_insult?6?$AA@ 30053868     cg_consolecmds.obj
 0002:00007880       ??_C@_0BI@IILJCACF@cmd?5vsay?5kill_guantlet?6?$AA@ 30053880     cg_consolecmds.obj
 0002:00007898       ??_C@_0BA@GHKOOGOO@tell?5?$CFi?5suicide?$AA@ 30053898     cg_consolecmds.obj
 0002:000078a8       ??_C@_01BMBHCPLG@5?$AA@    300538a8     cg_consolecmds.obj
 0002:000078ac       ??_C@_09DNECJBKD@developer?$AA@ 300538ac     cg_consolecmds.obj
 0002:000078b8       ??_C@_0M@NJBPNDAH@loaddefered?$AA@ 300538b8     cg_consolecmds.obj
 0002:000078c4       ??_C@_08OKGPDOIO@teamtask?$AA@ 300538c4     cg_consolecmds.obj
 0002:000078d0       ??_C@_05BLKJBNOD@stats?$AA@ 300538d0     cg_consolecmds.obj
 0002:000078d8       ??_C@_08OLLMCBNG@teamvote?$AA@ 300538d8     cg_consolecmds.obj
 0002:000078e4       ??_C@_0N@JDBKAFAM@callteamvote?$AA@ 300538e4     cg_consolecmds.obj
 0002:000078f4       ??_C@_04GHHIKFLG@vote?$AA@ 300538f4     cg_consolecmds.obj
 0002:000078fc       ??_C@_08NNMLCPB@callvote?$AA@ 300538fc     cg_consolecmds.obj
 0002:00007908       ??_C@_0L@CCEFBCKP@setviewpos?$AA@ 30053908     cg_consolecmds.obj
 0002:00007914       ??_C@_06CJHCPEHG@addbot?$AA@ 30053914     cg_consolecmds.obj
 0002:0000791c       ??_C@_09EFOFPGPE@levelshot?$AA@ 3005391c     cg_consolecmds.obj
 0002:00007928       ??_C@_06HNJAFFAK@follow?$AA@ 30053928     cg_consolecmds.obj
 0002:00007930       ??_C@_04KADBPNCB@team?$AA@ 30053930     cg_consolecmds.obj
 0002:00007938       ??_C@_06IHODGGMJ@noclip?$AA@ 30053938     cg_consolecmds.obj
 0002:00007940       ??_C@_08HPLPOCJL@notarget?$AA@ 30053940     cg_consolecmds.obj
 0002:0000794c       ??_C@_03DKFAMNOH@god?$AA@  3005394c     cg_consolecmds.obj
 0002:00007950       ??_C@_04BMBHJADG@give?$AA@ 30053950     cg_consolecmds.obj
 0002:00007958       ??_C@_06JMKGCPMO@votell?$AA@ 30053958     cg_consolecmds.obj
 0002:00007960       ??_C@_0L@GKKIAMHC@vosay_team?$AA@ 30053960     cg_consolecmds.obj
 0002:0000796c       ??_C@_05EGEGDMMG@vosay?$AA@ 3005396c     cg_consolecmds.obj
 0002:00007974       ??_C@_06IMDBNOMM@vtaunt?$AA@ 30053974     cg_consolecmds.obj
 0002:0000797c       ??_C@_05BLGJOHFB@vtell?$AA@ 3005397c     cg_consolecmds.obj
 0002:00007984       ??_C@_09CPIJOHHK@vsay_team?$AA@ 30053984     cg_consolecmds.obj
 0002:00007990       ??_C@_04IBCNHBFH@vsay?$AA@ 30053990     cg_consolecmds.obj
 0002:00007998       ??_C@_04LBPCFPDD@tell?$AA@ 30053998     cg_consolecmds.obj
 0002:000079a0       ??_C@_08NBFNGOHN@say_team?$AA@ 300539a0     cg_consolecmds.obj
 0002:000079ac       ??_C@_03BANJEMDJ@say?$AA@  300539ac     cg_consolecmds.obj
 0002:000079b0       ??_C@_04BJJEOANI@kill?$AA@ 300539b0     cg_consolecmds.obj
 0002:000079b8       ??_C@_0BB@CFPBIBMB@saberAttackCycle?$AA@ 300539b8     cg_consolecmds.obj
 0002:000079cc       ??_C@_09CKNLHHEO@bot_order?$AA@ 300539cc     cg_consolecmds.obj
 0002:000079d8       ??_C@_0L@HCOPHPIB@use_sentry?$AA@ 300539d8     cg_consolecmds.obj
 0002:000079e4       ??_C@_04HKCCIOCO@zoom?$AA@ 300539e4     cg_consolecmds.obj
 0002:000079ec       ??_C@_0BG@OOGFIKBA@use_electrobinoculars?$AA@ 300539ec     cg_consolecmds.obj
 0002:00007a04       ??_C@_09GPEOCDOP@use_bacta?$AA@ 30053a04     cg_consolecmds.obj
 0002:00007a10       ??_C@_09IOIGHDGJ@use_field?$AA@ 30053a10     cg_consolecmds.obj
 0002:00007a1c       ??_C@_0L@PHNIGFGH@use_seeker?$AA@ 30053a1c     cg_consolecmds.obj
 0002:00007a28       ??_C@_0N@PIIHDBOG@force_seeing?$AA@ 30053a28     cg_consolecmds.obj
 0002:00007a38       ??_C@_0BG@IPJAFHDH@force_forcepowerother?$AA@ 30053a38     cg_consolecmds.obj
 0002:00007a50       ??_C@_0BA@FAEJBFDN@force_healother?$AA@ 30053a50     cg_consolecmds.obj
 0002:00007a60       ??_C@_0N@LHEDBPBG@force_absorb?$AA@ 30053a60     cg_consolecmds.obj
 0002:00007a70       ??_C@_0O@MHNHIGKF@force_protect?$AA@ 30053a70     cg_consolecmds.obj
 0002:00007a80       ??_C@_0L@PNAILJHA@force_rage?$AA@ 30053a80     cg_consolecmds.obj
 0002:00007a8c       ??_C@_0P@PMALMCEF@force_distract?$AA@ 30053a8c     cg_consolecmds.obj
 0002:00007a9c       ??_C@_0L@IFCEHOHA@force_pull?$AA@ 30053a9c     cg_consolecmds.obj
 0002:00007aa8       ??_C@_0M@IBJPDFKD@force_throw?$AA@ 30053aa8     cg_consolecmds.obj
 0002:00007ab4       ??_C@_0M@GNLMHCDK@force_speed?$AA@ 30053ab4     cg_consolecmds.obj
 0002:00007ac0       ??_C@_0L@INHFGGPP@force_heal?$AA@ 30053ac0     cg_consolecmds.obj
 0002:00007acc       ??_C@_0M@HCFMJNJ@engage_duel?$AA@ 30053acc     cg_consolecmds.obj
 0002:00007ad8       ??_C@_0P@LACKILCD@sv_saberswitch?$AA@ 30053ad8     cg_consolecmds.obj
 0002:00007ae8       ??_C@_0N@ILCIJPJM@sv_forceprev?$AA@ 30053ae8     cg_consolecmds.obj
 0002:00007af8       ??_C@_0N@LPPOILPI@sv_forcenext?$AA@ 30053af8     cg_consolecmds.obj
 0002:00007b08       ??_C@_0L@GDMPDMAO@sv_invprev?$AA@ 30053b08     cg_consolecmds.obj
 0002:00007b14       ??_C@_0L@FHBJCIGK@sv_invnext?$AA@ 30053b14     cg_consolecmds.obj
 0002:00007b20       ??_C@_0N@GENKAHPG@forcechanged?$AA@ 30053b20     cg_consolecmds.obj
 0002:00007b30       ??_C@_0N@PIKOAACM@SABER_THROW2?$AA@ 30053b30     cg_draw.obj
 0002:00007b40       ??_C@_0P@EJLFCBNE@SABER_DEFENSE2?$AA@ 30053b40     cg_draw.obj
 0002:00007b50       ??_C@_0P@EFGPLIOK@SABER_OFFENSE2?$AA@ 30053b50     cg_draw.obj
 0002:00007b60       ??_C@_07LOFPMPLA@SEEING2?$AA@ 30053b60     cg_draw.obj
 0002:00007b68       ??_C@_06IHGKEKOC@DRAIN2?$AA@ 30053b68     cg_draw.obj
 0002:00007b70       ??_C@_0BA@PGEKMKPK@TEAM_REPLENISH2?$AA@ 30053b70     cg_draw.obj
 0002:00007b80       ??_C@_0L@EOCADFMC@TEAM_HEAL2?$AA@ 30053b80     cg_draw.obj
 0002:00007b8c       ??_C@_07DKNPJIC@ABSORB2?$AA@ 30053b8c     cg_draw.obj
 0002:00007b94       ??_C@_08MGIMODBK@PROTECT2?$AA@ 30053b94     cg_draw.obj
 0002:00007ba0       ??_C@_0L@MHGIMFCO@DARK_RAGE2?$AA@ 30053ba0     cg_draw.obj
 0002:00007bac       ??_C@_0L@DOELCCHN@LIGHTNING2?$AA@ 30053bac     cg_draw.obj
 0002:00007bb8       ??_C@_05HJGDJFFF@GRIP2?$AA@ 30053bb8     cg_draw.obj
 0002:00007bc0       ??_C@_0L@ILKNLNPA@MINDTRICK2?$AA@ 30053bc0     cg_draw.obj
 0002:00007bcc       ??_C@_05PHHCNBEA@PULL2?$AA@ 30053bcc     cg_draw.obj
 0002:00007bd4       ??_C@_05PIABDOFF@PUSH2?$AA@ 30053bd4     cg_draw.obj
 0002:00007bdc       ??_C@_06NKBKNFAH@SPEED2?$AA@ 30053bdc     cg_draw.obj
 0002:00007be4       ??_C@_05PILPMNMM@JUMP2?$AA@ 30053be4     cg_draw.obj
 0002:00007bec       ??_C@_05IKHNBOOJ@HEAL2?$AA@ 30053bec     cg_draw.obj
 0002:00007bf4       __real@43060000            30053bf4     cg_draw.obj
 0002:00007bf8       __real@3a2ec33e            30053bf8     cg_draw.obj
 0002:00007c00       __real@4074000000000000    30053c00     cg_draw.obj
 0002:00007c08       __real@406e000000000000    30053c08     cg_draw.obj
 0002:00007c10       __real@4067c00000000000    30053c10     cg_draw.obj
 0002:00007c18       __real@3c8efa11            30053c18     cg_draw.obj
 0002:00007c1c       __real@41940000            30053c1c     cg_draw.obj
 0002:00007c20       __real@42680000            30053c20     cg_draw.obj
 0002:00007c24       __real@3e19999a            30053c24     cg_draw.obj
 0002:00007c28       __real@3fd3333340000000    30053c28     cg_draw.obj
 0002:00007c30       __real@42c60000            30053c30     cg_draw.obj
 0002:00007c34       __real@42ce0000            30053c34     cg_draw.obj
 0002:00007c38       __real@3ca3d70a            30053c38     cg_draw.obj
 0002:00007c3c       __real@3f7ae148            30053c3c     cg_draw.obj
 0002:00007c40       __real@438d0000            30053c40     cg_draw.obj
 0002:00007c48       __real@3fe99999a0000000    30053c48     cg_draw.obj
 0002:00007c50       __real@3fe6666660000000    30053c50     cg_draw.obj
 0002:00007c58       __real@3fb99999a0000000    30053c58     cg_draw.obj
 0002:00007c60       __real@38000100            30053c60     cg_draw.obj
 0002:00007c64       __real@3c23d70a            30053c64     cg_draw.obj
 0002:00007c68       __real@40400000            30053c68     cg_draw.obj
 0002:00007c6c       __real@43340000            30053c6c     cg_draw.obj
 0002:00007c70       __real@43220000            30053c70     cg_draw.obj
 0002:00007c74       __real@3c4ccccd            30053c74     cg_draw.obj
 0002:00007c78       __real@404e000000000000    30053c78     cg_draw.obj
 0002:00007c80       __real@3f40624dd2f1a9fc    30053c80     cg_draw.obj
 0002:00007c88       __real@400dd9ca81e9131a    30053c88     cg_draw.obj
 0002:00007c90       __real@bfe0000000000000    30053c90     cg_draw.obj
 0002:00007c98       __real@3d924925            30053c98     cg_draw.obj
 0002:00007c9c       __real@3e0f5c29            30053c9c     cg_draw.obj
 0002:00007ca0       __real@40e49249            30053ca0     cg_draw.obj
 0002:00007ca4       ??_C@_08DNKNJDF@righthud?$AA@ 30053ca4     cg_draw.obj
 0002:00007cb0       ??_C@_09MAKHKBKD@Score?3?5?$CFi?$AA@ 30053cb0     cg_draw.obj
 0002:00007cbc       ??_C@_0N@FGHILDJH@Score?3?5?$CFi?1?$CFi?$AA@ 30053cbc     cg_draw.obj
 0002:00007ccc       ??_C@_07LLNBIHJM@lefthud?$AA@ 30053ccc     cg_draw.obj
 0002:00007cd4       ??_C@_02DKCKIIND@?$CFs?$AA@ 30053cd4     cg_draw.obj
 0002:00007cd8       ??_C@_04HNOLJCOK@FAST?$AA@ 30053cd8     cg_draw.obj
 0002:00007ce0       ??_C@_06HMBFJLMK@MEDIUM?$AA@ 30053ce0     cg_draw.obj
 0002:00007ce8       ??_C@_06KDCJDEIC@STRONG?$AA@ 30053ce8     cg_draw.obj
 0002:00007cf0       ??_C@_06LKGFGFOF@INGAME?$AA@ 30053cf0     cg_draw.obj
 0002:00007cf8       __real@44af0000            30053cf8     cg_draw.obj
 0002:00007cfc       ??_C@_09CDIBKJAO@INGAME_?$CFs?$AA@ 30053cfc     cg_draw.obj
 0002:00007d08       ??_C@_0BA@HGJCONNI@EMPTY?5INVENTORY?$AA@ 30053d08     cg_draw.obj
 0002:00007d18       ??_C@_07EOLLMFNL@?5Blue?3?5?$AA@ 30053d18     cg_draw.obj
 0002:00007d20       ??_C@_01JOAMLHOP@?9?$AA@   30053d20     cg_draw.obj
 0002:00007d24       ??_C@_05FGJFCLCN@Red?3?5?$AA@ 30053d24     cg_draw.obj
 0002:00007d2c       ??_C@_05PPJGDEGI@?$CFi?1?$CFi?$AA@ 30053d2c     cg_draw.obj
 0002:00007d34       ??_C@_06LDLKBCCJ@?$CFs?3?5?$CFi?$AA@ 30053d34     cg_draw.obj
 0002:00007d3c       ??_C@_06DBJEGKDN@LEADER?$AA@ 30053d3c     cg_draw.obj
 0002:00007d44       ??_C@_07KHFBGKLJ@DUELING?$AA@ 30053d44     cg_draw.obj
 0002:00007d4c       ??_C@_09NAKPECJB@GET_SABER?$AA@ 30053d4c     cg_draw.obj
 0002:00007d58       ??_C@_0L@EBKCFLON@INGAMETEXT?$AA@ 30053d58     cg_draw.obj
 0002:00007d64       ??_C@_0BH@OGHHEKME@time?3?$CFi?5snap?3?$CFi?5cmd?3?$CFi?$AA@ 30053d64     cg_draw.obj
 0002:00007d7c       ??_C@_05MDNADFFP@?$CFifps?$AA@ 30053d7c     cg_draw.obj
 0002:00007d84       ??_C@_07FFDCCNEB@?$CFi?3?$CFi?$CFi?$AA@ 30053d84     cg_draw.obj
 0002:00007d8c       ??_C@_07FJAEFGNG@?$CF3i?5?$CF3i?$AA@ 30053d8c     cg_draw.obj
 0002:00007d94       ??_C@_07CIFAGBMG@unknown?$AA@ 30053d94     cg_draw.obj
 0002:00007d9c       ??_C@_0BF@IAOLIPJ@gfx?1hud?1mpi_rflag_ys?$AA@ 30053d9c     cg_draw.obj
 0002:00007db4       ??_C@_0BF@KEMOPKII@gfx?1hud?1mpi_bflag_ys?$AA@ 30053db4     cg_draw.obj
 0002:00007dcc       ??_C@_0P@NNJCDNEK@gfx?12d?1net?4tga?$AA@ 30053dcc     cg_draw.obj
 0002:00007ddc       ??_C@_0BH@FMIOKFKB@CONNECTION_INTERRUPTED?$AA@ 30053ddc     cg_draw.obj
 0002:00007df4       ??_C@_0M@ONDMCFFB@PLEASE_WAIT?$AA@ 30053df4     cg_draw.obj
 0002:00007e00       ??_C@_0BF@CNEFMHOP@SERVER_CHANGING_MAPS?$AA@ 30053e00     cg_draw.obj
 0002:00007e18       ??_C@_03KLKIPBNP@snc?$AA@  30053e18     cg_draw.obj
 0002:00007e1c       __real@43c00000            30053e1c     cg_draw.obj
 0002:00007e20       __real@3cda740e            30053e20     cg_draw.obj
 0002:00007e24       __real@42400000            30053e24     cg_draw.obj
 0002:00007e28       __real@44200000            30053e28     cg_draw.obj
 0002:00007e2c       __real@43b00000            30053e2c     cg_draw.obj
 0002:00007e30       __real@3d5a740e            30053e30     cg_draw.obj
 0002:00007e34       __real@43700000            30053e34     cg_draw.obj
 0002:00007e38       __real@4056800000000000    30053e38     cg_draw.obj
 0002:00007e40       __real@3f847ae147ae147b    30053e40     cg_draw.obj
 0002:00007e48       ??_C@_0BH@MAPMCHKH@gfx?1effects?1saberFlare?$AA@ 30053e48     cg_draw.obj
 0002:00007e60       __real@44160000            30053e60     cg_draw.obj
 0002:00007e64       __real@3bda740e            30053e64     cg_draw.obj
 0002:00007e68       __real@3eb33333            30053e68     cg_draw.obj
 0002:00007e6c       __real@3aa3d70a            30053e6c     cg_draw.obj
 0002:00007e70       ??_C@_0M@GFKDFJGL@gfx?12d?1lock?$AA@ 30053e70     cg_draw.obj
 0002:00007e7c       __real@3d4ccccd            30053e7c     cg_draw.obj
 0002:00007e80       __real@42340000            30053e80     cg_draw.obj
 0002:00007e84       ??_C@_0N@HFODKPEP@gfx?12d?1wedge?$AA@ 30053e84     cg_draw.obj
 0002:00007e94       __real@3e4ccccd            30053e94     cg_draw.obj
 0002:00007e98       ??_C@_0BO@NPGLCAPC@sound?1weapons?1rocket?1tick?4wav?$AA@ 30053e98     cg_draw.obj
 0002:00007eb8       ??_C@_0BO@OBMMJBM@sound?1weapons?1rocket?1lock?4wav?$AA@ 30053eb8     cg_draw.obj
 0002:00007ed8       __real@40c00000            30053ed8     cg_draw.obj
 0002:00007edc       __real@3a800000            30053edc     cg_draw.obj
 0002:00007ee0       __real@3c5a740e            30053ee0     cg_draw.obj
 0002:00007ee4       ??_C@_0BA@EJICBNBF@SPEC_CHOOSEJOIN?$AA@ 30053ee4     cg_draw.obj
 0002:00007ef4       ??_C@_0BA@OGEGDHKE@WAITING_TO_PLAY?$AA@ 30053ef4     cg_draw.obj
 0002:00007f04       ??_C@_08EPEHIMMI@?$CFs?5?$CFs?5?$CFs?$AA@ 30053f04     cg_draw.obj
 0002:00007f10       ??_C@_0P@DEEIGBMI@SPECHUD_VERSUS?$AA@ 30053f10     cg_draw.obj
 0002:00007f20       ??_C@_09GNDCBOBP@SPECTATOR?$AA@ 30053f20     cg_draw.obj
 0002:00007f2c       ??_C@_0BN@JCPMKMDP@OR_PRESS_ESC_THEN_CLICK_VOTE?$AA@ 30053f2c     cg_draw.obj
 0002:00007f4c       ??_C@_0BI@HIAJCEGA@VOTE?$CI?$CFi?$CJ?3?$CFs?5?$CFs?3?$CFi?5?$CFs?3?$CFi?$AA@ 30053f4c     cg_draw.obj
 0002:00007f64       ??_C@_09BLHOGFDF@MENUS0_NO?$AA@ 30053f64     cg_draw.obj
 0002:00007f70       ??_C@_0L@HGHFOCB@MENUS0_YES?$AA@ 30053f70     cg_draw.obj
 0002:00007f7c       ??_C@_0BN@CPIJHJOL@TEAMVOTE?$CI?$CFi?$CJ?3?$CFs?5yes?3?$CFi?5no?3?$CFi?$AA@ 30053f7c     cg_draw.obj
 0002:00007f9c       ??_C@_0DI@OLEEFICH@TEAMVOTE?$CI?$CFi?$CJ?3?$CIMake?5?$CFs?5the?5new?5te@ 30053f9c     cg_draw.obj
 0002:00007fd4       ??_C@_06DFLPLEOP@leader?$AA@ 30053fd4     cg_draw.obj
 0002:00007fdc       ??_C@_09CEHOCBMK@FOLLOWING?$AA@ 30053fdc     cg_draw.obj
 0002:00007fe8       ??_C@_09FKOGLEJP@STARTS_IN?$AA@ 30053fe8     cg_draw.obj
 0002:00007ff4       ??_C@_0BG@BKPINHAJ@Capture?5the?5Ysalamiri?$AA@ 30053ff4     cg_draw.obj
 0002:0000800c       ??_C@_0BB@OOIHNFAG@Capture?5the?5Flag?$AA@ 3005400c     cg_draw.obj
 0002:00008020       ??_C@_03HPADHAHE@N?1A?$AA@ 30054020     cg_draw.obj
 0002:00008024       ??_C@_08NFCDKJPC@Team?5FFA?$AA@ 30054024     cg_draw.obj
 0002:00008030       ??_C@_0M@EBAJNKPF@Jedi?5Master?$AA@ 30054030     cg_draw.obj
 0002:0000803c       ??_C@_0N@BBLBINLJ@Holocron?5FFA?$AA@ 3005403c     cg_draw.obj
 0002:0000804c       ??_C@_0N@PCEMCJC@Free?5For?5All?$AA@ 3005404c     cg_draw.obj
 0002:0000805c       ??_C@_08MFFNPGJB@?$CFs?5vs?5?$CFs?$AA@ 3005405c     cg_draw.obj
 0002:00008068       ??_C@_0BE@ECCNBCF@WAITING_FOR_PLAYERS?$AA@ 30054068     cg_draw.obj
 0002:0000807c       ??_C@_0O@PJLPEGOC@cl_conXOffset?$AA@ 3005407c     cg_draw.obj
 0002:0000808c       ??_C@_09PFKBKPHC@voiceMenu?$AA@ 3005408c     cg_draw.obj
 0002:00008098       ??_C@_0BE@MPCJPEKB@gfx?1hud?1mpi_bflag_x?$AA@ 30054098     cg_draw.obj
 0002:000080ac       ??_C@_0BE@LDJCMFIK@gfx?1hud?1mpi_rflag_x?$AA@ 300540ac     cg_draw.obj
 0002:000080c0       __real@48000000            300540c0     cg_draw.obj
 0002:000080c4       __real@42200000            300540c4     cg_draw.obj
 0002:000080c8       __real@3ed4f8b588e368f1    300540c8     cg_draw.obj
 0002:000080d0       __real@3fc3333333333333    300540d0     cg_draw.obj
 0002:000080d8       __real@38e90453            300540d8     cg_draw.obj
 0002:000080dc       __real@bf000000            300540dc     cg_draw.obj
 0002:000080e0       ??_C@_0CE@GNKHIBFA@CG_DrawActive?3?5Undefined?5stereoV@ 300540e0     cg_draw.obj
 0002:00008108       __real@3fa1111111111111    30054108     cg_drawtools.obj
 0002:00008110       __real@3f9f07c1f07c1f08    30054110     cg_drawtools.obj
 0002:00008118       __real@3d000000            30054118     cg_drawtools.obj
 0002:0000811c       __real@3d800000            3005411c     cg_drawtools.obj
 0002:00008120       __real@3fb0000000000000    30054120     cg_drawtools.obj
 0002:00008128       __real@3f90000000000000    30054128     cg_drawtools.obj
 0002:00008130       __real@3f747ae147ae147b    30054130     cg_drawtools.obj
 0002:00008138       __real@3f555555            30054138     cg_drawtools.obj
 0002:00008140       __real@4018000000000000    30054140     cg_effects.obj
 0002:00008148       __real@4014000000000000    30054148     cg_effects.obj
 0002:00008150       __real@3a83126f            30054150     cg_effects.obj
 0002:00008154       __real@437f0000            30054154     cg_effects.obj
 0002:00008158       __real@453b8000            30054158     cg_effects.obj
 0002:00008160       __real@4044000000000000    30054160     cg_effects.obj
 0002:00008168       __real@4028000000000000    30054168     cg_effects.obj
 0002:00008170       __real@3f9eb851e0000000    30054170     cg_effects.obj
 0002:00008178       __real@3f2a36e2eb1c432d    30054178     cg_effects.obj
 0002:00008180       __real@3d23d70a            30054180     cg_effects.obj
 0002:00008184       __real@3c1374bc            30054184     cg_effects.obj
 0002:00008188       __real@435c0000            30054188     cg_effects.obj
 0002:0000818c       ??_C@_0BO@IMOAEHBH@sound?1effects?1glassbreak1?4wav?$AA@ 3005418c     cg_effects.obj
 0002:000081b0       __real@4052c00000000000    300541b0     cg_effects.obj
 0002:000081b8       __real@4062c00000000000    300541b8     cg_effects.obj
 0002:000081c0       ??_C@_0BP@OGDGHGEO@models?1chunks?1rock?1rock1_4?4md3?$AA@ 300541c0     cg_effects.obj
 0002:000081e0       ??_C@_0BP@PLDDEGPG@models?1chunks?1rock?1rock1_3?4md3?$AA@ 300541e0     cg_effects.obj
 0002:00008200       ??_C@_0BP@DAGPJFFD@models?1chunks?1rock?1rock1_2?4md3?$AA@ 30054200     cg_effects.obj
 0002:00008220       ??_C@_0BP@LGPLOHPN@models?1chunks?1rock?1rock1_1?4md3?$AA@ 30054220     cg_effects.obj
 0002:00008240       ??_C@_0CD@DPCKFCBM@models?1chunks?1generic?1chunks_2?4m@ 30054240     cg_effects.obj
 0002:00008264       ??_C@_0CD@LJLOCALC@models?1chunks?1generic?1chunks_1?4m@ 30054264     cg_effects.obj
 0002:00008288       ??_C@_0CB@EGDBHPAN@models?1chunks?1crate?1crate2_4?4md3@ 30054288     cg_effects.obj
 0002:000082ac       ??_C@_0CB@FLDEEPLF@models?1chunks?1crate?1crate2_3?4md3@ 300542ac     cg_effects.obj
 0002:000082d0       ??_C@_0CB@JAGIJMBA@models?1chunks?1crate?1crate2_2?4md3@ 300542d0     cg_effects.obj
 0002:000082f4       ??_C@_0CB@BGPMOOLO@models?1chunks?1crate?1crate2_1?4md3@ 300542f4     cg_effects.obj
 0002:00008318       ??_C@_0CB@MILOHIOO@models?1chunks?1crate?1crate1_4?4md3@ 30054318     cg_effects.obj
 0002:0000833c       ??_C@_0CB@NFLLEIFG@models?1chunks?1crate?1crate1_3?4md3@ 3005433c     cg_effects.obj
 0002:00008360       ??_C@_0CB@BOOHJLPD@models?1chunks?1crate?1crate1_2?4md3@ 30054360     cg_effects.obj
 0002:00008384       ??_C@_0CB@JIHDOJFN@models?1chunks?1crate?1crate1_1?4md3@ 30054384     cg_effects.obj
 0002:000083a8       ??_C@_0CB@CENBCCEM@models?1chunks?1metal?1metal2_4?4md3@ 300543a8     cg_effects.obj
 0002:000083cc       ??_C@_0CB@DJNEBCPE@models?1chunks?1metal?1metal2_3?4md3@ 300543cc     cg_effects.obj
 0002:000083f0       ??_C@_0CB@PCIIMBFB@models?1chunks?1metal?1metal2_2?4md3@ 300543f0     cg_effects.obj
 0002:00008414       ??_C@_0CB@HEBMLDPP@models?1chunks?1metal?1metal2_1?4md3@ 30054414     cg_effects.obj
 0002:00008438       ??_C@_0CB@KKFOCFKP@models?1chunks?1metal?1metal1_4?4md3@ 30054438     cg_effects.obj
 0002:0000845c       ??_C@_0CB@LHFLBFBH@models?1chunks?1metal?1metal1_3?4md3@ 3005445c     cg_effects.obj
 0002:00008480       ??_C@_0CB@HMAHMGLC@models?1chunks?1metal?1metal1_2?4md3@ 30054480     cg_effects.obj
 0002:000084a4       ??_C@_0CB@PKJDLEBM@models?1chunks?1metal?1metal1_1?4md3@ 300544a4     cg_effects.obj
 0002:000084c8       __real@4030000000000000    300544c8     cg_effects.obj
 0002:000084d0       __real@4020000000000000    300544d0     cg_effects.obj
 0002:000084d8       ??_C@_0CG@PIHMAPBC@models?1map_objects?1mp?1saber_thro@ 300544d8     cg_ents.obj
 0002:00008500       ??_C@_0CH@GLODINII@models?1map_objects?1mp?1saber_defe@ 30054500     cg_ents.obj
 0002:00008528       ??_C@_0CH@EECFHMAE@models?1map_objects?1mp?1saber_atta@ 30054528     cg_ents.obj
 0002:00008550       ??_C@_0CG@LFGJGPHI@models?1map_objects?1mp?1force_sigh@ 30054550     cg_ents.obj
 0002:00008578       ??_C@_0CD@GJNKCFIP@models?1map_objects?1mp?1dk_drain?4m@ 30054578     cg_ents.obj
 0002:0000859c       ??_C@_0CI@BGHKIJBN@models?1map_objects?1mp?1dk_powerot@ 3005459c     cg_ents.obj
 0002:000085c4       ??_C@_0CH@PGCLJJGA@models?1map_objects?1mp?1lt_healoth@ 300545c4     cg_ents.obj
 0002:000085ec       ??_C@_0CE@OIMHGLCM@models?1map_objects?1mp?1lt_absorb?4@ 300545ec     cg_ents.obj
 0002:00008610       ??_C@_0CF@JKKDFLBL@models?1map_objects?1mp?1lt_protect@ 30054610     cg_ents.obj
 0002:00008638       ??_C@_0CC@HBLCLHHB@models?1map_objects?1mp?1dk_rage?4md@ 30054638     cg_ents.obj
 0002:0000865c       ??_C@_0CH@NPBCBKGE@models?1map_objects?1mp?1dk_lightni@ 3005465c     cg_ents.obj
 0002:00008684       ??_C@_0CC@GGPFGOPC@models?1map_objects?1mp?1dk_grip?4md@ 30054684     cg_ents.obj
 0002:000086a8       ??_C@_0CH@EPHIGDHG@models?1map_objects?1mp?1lt_telepat@ 300546a8     cg_ents.obj
 0002:000086d0       ??_C@_0CF@IMFGPGED@models?1map_objects?1mp?1force_pull@ 300546d0     cg_ents.obj
 0002:000086f8       ??_C@_0CF@IGFBFIHC@models?1map_objects?1mp?1force_push@ 300546f8     cg_ents.obj
 0002:00008720       ??_C@_0CG@JFCOPPHE@models?1map_objects?1mp?1force_spee@ 30054720     cg_ents.obj
 0002:00008748       ??_C@_0CF@GHNLPHPI@models?1map_objects?1mp?1force_jump@ 30054748     cg_ents.obj
 0002:00008770       ??_C@_0CC@LDMLFDGF@models?1map_objects?1mp?1lt_heal?4md@ 30054770     cg_ents.obj
 0002:00008794       ??_C@_0BK@KHIMODAF@gfx?1misc?1blue_portashield?$AA@ 30054794     cg_ents.obj
 0002:000087b0       ??_C@_0BI@JOPMALJL@gfx?1misc?1blue_dmgshield?$AA@ 300547b0     cg_ents.obj
 0002:000087c8       ??_C@_0BJ@BMIANOGO@gfx?1misc?1red_portashield?$AA@ 300547c8     cg_ents.obj
 0002:000087e4       ??_C@_0BH@IJFAKHJP@gfx?1misc?1red_dmgshield?$AA@ 300547e4     cg_ents.obj
 0002:000087fc       ??_C@_09DIABHAFB@cl_paused?$AA@ 300547fc     cg_ents.obj
 0002:00008808       __real@40d33333            30054808     cg_ents.obj
 0002:0000880c       __real@41400000            3005480c     cg_ents.obj
 0002:00008810       __real@42f00000            30054810     cg_ents.obj
 0002:00008814       __real@3b03126f            30054814     cg_ents.obj
 0002:00008818       __real@3fb47ae140000000    30054818     cg_ents.obj
 0002:00008820       __real@3b449ba6            30054820     cg_ents.obj
 0002:00008824       ??_C@_0DB@JMBCFHFK@models?1map_objects?1imp_mine?1turr@ 30054824     cg_ents.obj
 0002:00008858       __real@406fe00000000000    30054858     cg_ents.obj
 0002:00008860       __real@3fd99999a0000000    30054860     cg_ents.obj
 0002:00008868       __real@39a3d70a            30054868     cg_ents.obj
 0002:0000886c       ??_C@_0BL@MCJIELFO@gfx?1effects?1turretflashdie?$AA@ 3005486c     cg_ents.obj
 0002:00008888       ??_C@_0N@DPOICHCI@lower_lumbar?$AA@ 30054888     cg_ents.obj
 0002:00008898       ??_C@_06IHEANBNF@pelvis?$AA@ 30054898     cg_ents.obj
 0002:000088a0       __real@428c0000            300548a0     cg_ents.obj
 0002:000088a4       ??_C@_06KLEEIGKC@Bone02?$AA@ 300548a4     cg_ents.obj
 0002:000088ac       ??_C@_0BF@BPNBJBAC@blaster?1smoke_bolton?$AA@ 300548ac     cg_ents.obj
 0002:000088c4       ??_C@_06EMGELNAF@Motion?$AA@ 300548c4     cg_ents.obj
 0002:000088cc       ??_C@_0L@OPBBEMAA@model_root?$AA@ 300548cc     cg_ents.obj
 0002:000088d8       ??_C@_0N@FLMNOMBE@upper_lumbar?$AA@ 300548d8     cg_ents.obj
 0002:000088e8       ??_C@_06LHDKCOKJ@rtibia?$AA@ 300548e8     cg_ents.obj
 0002:000088f0       ??_C@_05KHMEBGJM@r_leg?$AA@ 300548f0     cg_ents.obj
 0002:000088f8       ??_C@_0BD@BPFAKJEO@r_leg_cap_hips_off?$AA@ 300548f8     cg_ents.obj
 0002:0000890c       ??_C@_0BD@EOFLHIDG@hips_cap_r_leg_off?$AA@ 3005490c     cg_ents.obj
 0002:00008920       ??_C@_0BA@ONFFPGED@?$CKr_leg_cap_hips?$AA@ 30054920     cg_ents.obj
 0002:00008930       ??_C@_0BA@LMGOOAAO@?$CKhips_cap_r_leg?$AA@ 30054930     cg_ents.obj
 0002:00008940       ??_C@_0BA@IFLCIDOF@?$CKhips_cap_l_leg?$AA@ 30054940     cg_ents.obj
 0002:00008950       ??_C@_0BA@EEEEHBHJ@?$CKl_leg_cap_hips?$AA@ 30054950     cg_ents.obj
 0002:00008960       ??_C@_0BD@HHDMMJGN@hips_cap_l_leg_off?$AA@ 30054960     cg_ents.obj
 0002:00008974       ??_C@_0BD@JIGPIENC@l_leg_cap_hips_off?$AA@ 30054974     cg_ents.obj
 0002:00008988       ??_C@_05JOBIHFHH@l_leg?$AA@ 30054988     cg_ents.obj
 0002:00008990       ??_C@_06IANLMJDK@ltibia?$AA@ 30054990     cg_ents.obj
 0002:00008998       ??_C@_0BC@LCHBAINC@?$CKr_arm_cap_r_hand?$AA@ 30054998     cg_ents.obj
 0002:000089ac       ??_C@_0BC@HJGOBMJP@?$CKr_hand_cap_r_arm?$AA@ 300549ac     cg_ents.obj
 0002:000089c0       ??_C@_0BF@MBFPHHGJ@r_arm_cap_r_hand_off?$AA@ 300549c0     cg_ents.obj
 0002:000089d8       ??_C@_0BF@HCOCOJID@r_hand_cap_r_arm_off?$AA@ 300549d8     cg_ents.obj
 0002:000089f0       ??_C@_06INLMLPMC@r_hand?$AA@ 300549f0     cg_ents.obj
 0002:000089f8       ??_C@_05GBNHBGPF@rhand?$AA@ 300549f8     cg_ents.obj
 0002:00008a00       ??_C@_0BB@HKNBMIAA@?$CKtorso_cap_r_arm?$AA@ 30054a00     cg_ents.obj
 0002:00008a14       ??_C@_0BB@MILJPFMH@?$CKr_arm_cap_torso?$AA@ 30054a14     cg_ents.obj
 0002:00008a28       ??_C@_0BE@JJLBMKN@torso_cap_r_arm_off?$AA@ 30054a28     cg_ents.obj
 0002:00008a3c       ??_C@_0BE@EGPJIPNO@r_arm_cap_torso_off?$AA@ 30054a3c     cg_ents.obj
 0002:00008a50       ??_C@_05LGCIJDDO@r_arm?$AA@ 30054a50     cg_ents.obj
 0002:00008a58       ??_C@_07LAEDECAM@rradius?$AA@ 30054a58     cg_ents.obj
 0002:00008a60       ??_C@_0BB@EDANKLOL@?$CKtorso_cap_l_arm?$AA@ 30054a60     cg_ents.obj
 0002:00008a74       ??_C@_0BB@OBMDNPC@?$CKl_arm_cap_torso?$AA@ 30054a74     cg_ents.obj
 0002:00008a88       ??_C@_0BE@DAPMKNPG@torso_cap_l_arm_off?$AA@ 30054a88     cg_ents.obj
 0002:00008a9c       ??_C@_0BE@LPMHGPJM@l_arm_cap_torso_off?$AA@ 30054a9c     cg_ents.obj
 0002:00008ab0       ??_C@_05IPPEPANF@l_arm?$AA@ 30054ab0     cg_ents.obj
 0002:00008ab8       ??_C@_07NJHCGBBF@lradius?$AA@ 30054ab8     cg_ents.obj
 0002:00008ac0       ??_C@_0BA@KLKCMOPD@?$CKhips_cap_torso?$AA@ 30054ac0     cg_ents.obj
 0002:00008ad0       ??_C@_0BA@HDHOGFDG@?$CKtorso_cap_hips?$AA@ 30054ad0     cg_ents.obj
 0002:00008ae0       ??_C@_0BD@OMBIMACD@hips_cap_torso_off?$AA@ 30054ae0     cg_ents.obj
 0002:00008af4       ??_C@_0BD@NNCDLMGD@torso_cap_hips_off?$AA@ 30054af4     cg_ents.obj
 0002:00008b08       ??_C@_05LAAIDIGB@torso?$AA@ 30054b08     cg_ents.obj
 0002:00008b10       ??_C@_08ILEJMJL@thoracic?$AA@ 30054b10     cg_ents.obj
 0002:00008b1c       ??_C@_0BA@CBMPJHFP@?$CKtorso_cap_head?$AA@ 30054b1c     cg_ents.obj
 0002:00008b2c       ??_C@_0BA@JAEGCEPC@?$CKhead_cap_torso?$AA@ 30054b2c     cg_ents.obj
 0002:00008b3c       ??_C@_0BD@FFPGAMHF@torso_cap_head_off?$AA@ 30054b3c     cg_ents.obj
 0002:00008b50       ??_C@_0BD@HLMICNPM@head_cap_torso_off?$AA@ 30054b50     cg_ents.obj
 0002:00008b64       ??_C@_04NEODDMOL@head?$AA@ 30054b64     cg_ents.obj
 0002:00008b6c       ??_C@_07JOKDFEMH@cranium?$AA@ 30054b6c     cg_ents.obj
 0002:00008b74       __real@ba800000            30054b74     cg_ents.obj
 0002:00008b78       __real@41500000            30054b78     cg_ents.obj
 0002:00008b80       __real@4010000000000000    30054b80     cg_ents.obj
 0002:00008b88       __real@3ee4f8b588e368f1    30054b88     cg_ents.obj
 0002:00008b90       ??_C@_0CB@EEJJHDFD@gfx?1misc?1mp_dark_enlight_disable@ 30054b90     cg_ents.obj
 0002:00008bb4       ??_C@_0CC@EKOKLPLD@gfx?1misc?1mp_light_enlight_disabl@ 30054bb4     cg_ents.obj
 0002:00008bd8       __real@403e000000000000    30054bd8     cg_ents.obj
 0002:00008be0       ??_C@_0BA@CDHDMGGO@mp?1itemcone?4efx?$AA@ 30054be0     cg_ents.obj
 0002:00008bf0       ??_C@_0BM@DFPOGHOF@Bad?5item?5index?5?$CFi?5on?5entity?$AA@ 30054bf0     cg_ents.obj
 0002:00008c0c       ??_C@_0BD@BEOLDAGA@tripMine?1laser?4efx?$AA@ 30054c0c     cg_ents.obj
 0002:00008c20       __real@3e800000            30054c20     cg_ents.obj
 0002:00008c28       __real@3ff6800000000000    30054c28     cg_ents.obj
 0002:00008c30       ??_C@_0DB@OLDIELNC@CG_InterpoateEntityPosition?3?5cg?4@ 30054c30     cg_ents.obj
 0002:00008c64       ??_C@_0BF@NGFHFBLN@Bad?5entity?5type?3?5?$CFi?6?$AA@ 30054c64     cg_ents.obj
 0002:00008c80       __real@3f40000000000000    30054c80     cg_ents.obj
 0002:00008c88       ??_C@_0DL@LDBLCIHM@?$FO3Warning?3?5Notetrack?5is?5missing?5@ 30054c88     cg_ents.obj
 0002:00008cc4       ??_C@_0DH@BKFOMJJG@?$FO3Warning?3?5?$CC?$CFs?$CC?5is?5an?5invalid?5RO@ 30054cc4     cg_ents.obj
 0002:00008cfc       ??_C@_04GKOOIABA@loop?$AA@ 30054cfc     cg_ents.obj
 0002:00008d04       ??_C@_05MHNANJII@sound?$AA@ 30054d04     cg_ents.obj
 0002:00008d0c       ??_C@_06HOPIODND@effect?$AA@ 30054d0c     cg_ents.obj
 0002:00008d14       ??_C@_04HDOCAJNK@?$CFs?$CFs?$AA@ 30054d14     cg_event.obj
 0002:00008d1c       ??_C@_04EMEGLOCB@?$CFi?$CFs?$AA@ 30054d1c     cg_event.obj
 0002:00008d24       ??_C@_04HNJGGAKF@13?$CFs?$AA@ 30054d24     cg_event.obj
 0002:00008d2c       ??_C@_04MFCKAHMA@12?$CFs?$AA@ 30054d2c     cg_event.obj
 0002:00008d34       ??_C@_04NHJPKICO@11?$CFs?$AA@ 30054d34     cg_event.obj
 0002:00008d3c       ??_C@_03GLBNJJC@3?$CFs?$AA@ 30054d3c     cg_event.obj
 0002:00008d40       ??_C@_03LOANLOPH@2?$CFs?$AA@ 30054d40     cg_event.obj
 0002:00008d44       ??_C@_03KMLIBBBJ@1?$CFs?$AA@ 30054d44     cg_event.obj
 0002:00008d48       ??_C@_01CLKCMJKC@?5?$AA@   30054d48     cg_event.obj
 0002:00008d4c       ??_C@_0BE@PDPLDOKP@INGAMETEXT_TIED_FOR?$AA@ 30054d4c     cg_event.obj
 0002:00008d60       ??_C@_0BF@NHMODFBD@INGAMETEXT_NUMBER_TH?$AA@ 30054d60     cg_event.obj
 0002:00008d78       ??_C@_0BF@HPPGAGKN@INGAMETEXT_NUMBER_RD?$AA@ 30054d78     cg_event.obj
 0002:00008d90       ??_C@_0BF@GKMKFMLJ@INGAMETEXT_NUMBER_ND?$AA@ 30054d90     cg_event.obj
 0002:00008da8       ??_C@_0BF@DEPGHOML@INGAMETEXT_NUMBER_ST?$AA@ 30054da8     cg_event.obj
 0002:00008dc0       ??_C@_09GPBPOFIE@?$CFs?5?$CFs?5?$CFs?6?$AA@ 30054dc0     cg_event.obj
 0002:00008dcc       ??_C@_0P@JAGCHHE@KILLED_GENERIC?$AA@ 30054dcc     cg_event.obj
 0002:00008ddc       ??_C@_0BB@OPGILALH@KILLED_FORCETOSS?$AA@ 30054ddc     cg_event.obj
 0002:00008df0       ??_C@_0BA@PLHHDAOP@KILLED_TELEFRAG?$AA@ 30054df0     cg_event.obj
 0002:00008e00       ??_C@_0O@GOEINFFA@KILLED_SENTRY?$AA@ 30054e00     cg_event.obj
 0002:00008e10       ??_C@_0BB@CDNJLIKH@KILLED_DARKFORCE?$AA@ 30054e10     cg_event.obj
 0002:00008e24       ??_C@_0P@KCGOODH@KILLED_DETPACK?$AA@ 30054e24     cg_event.obj
 0002:00008e34       ??_C@_0BG@HOAJDDCM@KILLED_TRIPMINE_TIMED?$AA@ 30054e34     cg_event.obj
 0002:00008e4c       ??_C@_0BA@EFIIHAGC@KILLED_TRIPMINE?$AA@ 30054e4c     cg_event.obj
 0002:00008e5c       ??_C@_0P@KDBDMBJD@KILLED_THERMAL?$AA@ 30054e5c     cg_event.obj
 0002:00008e6c       ??_C@_0BF@GEDPKMGM@KILLED_ROCKET_HOMING?$AA@ 30054e6c     cg_event.obj
 0002:00008e84       ??_C@_0O@DFIJLFEC@KILLED_ROCKET?$AA@ 30054e84     cg_event.obj
 0002:00008e94       ??_C@_0BG@PKKJJLAL@KILLED_FLECHETTE_MINE?$AA@ 30054e94     cg_event.obj
 0002:00008eac       ??_C@_0BB@NPEKGKGA@KILLED_FLECHETTE?$AA@ 30054eac     cg_event.obj
 0002:00008ec0       ??_C@_0N@FPPGAAHB@KILLED_DEMP2?$AA@ 30054ec0     cg_event.obj
 0002:00008ed0       ??_C@_0BD@LPENDEOH@KILLED_REPEATERALT?$AA@ 30054ed0     cg_event.obj
 0002:00008ee4       ??_C@_0BA@IPOEHCNL@KILLED_REPEATER?$AA@ 30054ee4     cg_event.obj
 0002:00008ef4       ??_C@_0BB@BHKLOLC@KILLED_BOWCASTER?$AA@ 30054ef4     cg_event.obj
 0002:00008f08       ??_C@_0BG@FEEEOEOP@KILLED_DISRUPTORSNIPE?$AA@ 30054f08     cg_event.obj
 0002:00008f20       ??_C@_0BB@OIONJBHE@KILLED_DISRUPTOR?$AA@ 30054f20     cg_event.obj
 0002:00008f34       ??_C@_0P@LFCADJJM@KILLED_BLASTER?$AA@ 30054f34     cg_event.obj
 0002:00008f44       ??_C@_0N@PMANMKNG@KILLED_BRYAR?$AA@ 30054f44     cg_event.obj
 0002:00008f54       ??_C@_0N@JDNGIOPI@KILLED_SABER?$AA@ 30054f54     cg_event.obj
 0002:00008f64       ??_C@_0N@LKNGLIHG@KILLED_MELEE?$AA@ 30054f64     cg_event.obj
 0002:00008f74       ??_C@_0M@MHEOJOMG@KILLED_STUN?$AA@ 30054f74     cg_event.obj
 0002:00008f80       ??_C@_06LNKFDEGN@noname?$AA@ 30054f80     cg_event.obj
 0002:00008f88       ??_C@_05DNIIFBMG@?$CFs?5?$CFs?$AA@ 30054f88     cg_event.obj
 0002:00008f90       ??_C@_0BB@FMBDAKNB@?$CFs?5?$CFs?4?6?$CFs?5?$CFs?5?$CFi?4?$AA@ 30054f90     cg_event.obj
 0002:00008fa4       ??_C@_0BG@IKMNHBMK@INGAMETEXT_PLACE_WITH?$AA@ 30054fa4     cg_event.obj
 0002:00008fbc       ??_C@_06IINFAHFO@?$CFs?5?$CFs?6?$AA@ 30054fbc     cg_event.obj
 0002:00008fc4       ??_C@_09OEGONCCB@?$CFs?5?$CFs?6?$CFs?6?$AA@ 30054fc4     cg_event.obj
 0002:00008fd0       ??_C@_0BK@INFPOAMM@INGAMETEXT_JMKILLED_NOTJM?$AA@ 30054fd0     cg_event.obj
 0002:00008fec       ??_C@_0BK@PINDHOHC@INGAMETEXT_KILLED_MESSAGE?$AA@ 30054fec     cg_event.obj
 0002:00009008       ??_C@_0BK@LDDEAKKE@SUICIDE_GENERICDEATH_MALE?$AA@ 30055008     cg_event.obj
 0002:00009024       ??_C@_0CA@OAKEMEBL@SUICIDE_GENERICDEATH_GENDERLESS?$AA@ 30055024     cg_event.obj
 0002:00009044       ??_C@_0BM@PFKEEECI@SUICIDE_GENERICDEATH_FEMALE?$AA@ 30055044     cg_event.obj
 0002:00009060       ??_C@_0BH@BDIIPDGM@SUICIDE_FALLDEATH_MALE?$AA@ 30055060     cg_event.obj
 0002:00009078       ??_C@_0BN@NGOHMGKM@SUICIDE_FALLDEATH_GENDERLESS?$AA@ 30055078     cg_event.obj
 0002:00009098       ??_C@_0BJ@DCOGPDGK@SUICIDE_FALLDEATH_FEMALE?$AA@ 30055098     cg_event.obj
 0002:000090b4       ??_C@_0BK@JOACMNGP@SUICIDE_ELECTROCUTED_MALE?$AA@ 300550b4     cg_event.obj
 0002:000090d0       ??_C@_0CA@CFGLGMGJ@SUICIDE_ELECTROCUTED_GENDERLESS?$AA@ 300550d0     cg_event.obj
 0002:000090f0       ??_C@_0BM@NIKKDAII@SUICIDE_ELECTROCUTED_FEMALE?$AA@ 300550f0     cg_event.obj
 0002:0000910c       ??_C@_0BI@LOIGJPMB@SUICIDE_EXPLOSIVES_MALE?$AA@ 3005510c     cg_event.obj
 0002:00009124       ??_C@_0BO@BONIOHNA@SUICIDE_EXPLOSIVES_GENDERLESS?$AA@ 30055124     cg_event.obj
 0002:00009144       ??_C@_0BK@GNELLBLD@SUICIDE_EXPLOSIVES_FEMALE?$AA@ 30055144     cg_event.obj
 0002:00009160       ??_C@_0BC@DLPIHFNE@SUICIDE_SHOT_MALE?$AA@ 30055160     cg_event.obj
 0002:00009174       ??_C@_0BI@EDLJKFEC@SUICIDE_SHOT_GENDERLESS?$AA@ 30055174     cg_event.obj
 0002:0000918c       ??_C@_0BE@BKCBNJLP@SUICIDE_SHOT_FEMALE?$AA@ 3005518c     cg_event.obj
 0002:000091a0       ??_C@_0N@OIOBBDFO@DIED_GENERIC?$AA@ 300551a0     cg_event.obj
 0002:000091b0       ??_C@_02PGJLIFGD@?$FO7?$AA@ 300551b0     cg_event.obj
 0002:000091b4       ??_C@_01EFFIKLCJ@n?$AA@    300551b4     cg_event.obj
 0002:000091b8       ??_C@_0CB@LLKCBBGA@CG_Obituary?3?5target?5out?5of?5range@ 300551b8     cg_event.obj
 0002:000091dc       ??_C@_0L@OMPHCJLG@PICKUPLINE?$AA@ 300551dc     cg_event.obj
 0002:000091e8       ??_C@_0N@CIPOKOBF@?$CKpain100?4wav?$AA@ 300551e8     cg_event.obj
 0002:000091f8       ??_C@_0M@CJAMJCH@?$CKpain75?4wav?$AA@ 300551f8     cg_event.obj
 0002:00009204       ??_C@_0M@MFMCEJLN@?$CKpain50?4wav?$AA@ 30055204     cg_event.obj
 0002:00009210       ??_C@_0M@FAKIOGIA@?$CKpain25?4wav?$AA@ 30055210     cg_event.obj
 0002:0000921c       ??_C@_04HEDFJGEJ@FREE?$AA@ 3005521c     cg_event.obj
 0002:00009224       ??_C@_04CNFFLDFF@BLUE?$AA@ 30055224     cg_event.obj
 0002:0000922c       ??_C@_03FNPLCCOA@RED?$AA@  3005522c     cg_event.obj
 0002:00009230       ??_C@_03OFAPEBGM@?$CFs?6?$AA@ 30055230     cg_event.obj
 0002:00009234       ??_C@_03IKGEINEE@?$CFs?5?$AA@ 30055234     cg_event.obj
 0002:00009238       ??_C@_0BA@GOKKEBNJ@PLAYER_GOT_FLAG?$AA@ 30055238     cg_event.obj
 0002:00009248       ??_C@_0BF@GDEBPKGL@PLAYER_CAPTURED_FLAG?$AA@ 30055248     cg_event.obj
 0002:00009260       ??_C@_0BF@DCOFADEE@PLAYER_RETURNED_FLAG?$AA@ 30055260     cg_event.obj
 0002:00009278       ??_C@_0O@MBPOLPAP@FLAG_RETURNED?$AA@ 30055278     cg_event.obj
 0002:00009288       ??_C@_0BF@MKAEEDCG@FRAGGED_FLAG_CARRIER?$AA@ 30055288     cg_event.obj
 0002:000092a0       __real@c2000000            300552a0     cg_event.obj
 0002:000092a4       ??_C@_0L@LNFPJAAJ@?$CKland1?4wav?$AA@ 300552a4     cg_event.obj
 0002:000092b0       ??_C@_0CD@PBPAMPHJ@sound?1movers?1objects?1objectHit?4w@ 300552b0     cg_event.obj
 0002:000092d4       ??_C@_0BC@OKELKAPM@Unknown?5event?3?5?$CFi?$AA@ 300552d4     cg_event.obj
 0002:000092e8       ??_C@_08GCOIMFOL@UNKNOWN?6?$AA@ 300552e8     cg_event.obj
 0002:000092f4       ??_C@_0BE@NKDAFDGM@EV_BODY_QUEUE_COPY?6?$AA@ 300552f4     cg_event.obj
 0002:00009308       ??_C@_0N@JKOMGMLA@EV_TESTLINE?6?$AA@ 30055308     cg_event.obj
 0002:00009318       ??_C@_0P@DKFKJLCN@EV_DEBUG_LINE?6?$AA@ 30055318     cg_event.obj
 0002:00009328       ??_C@_0P@NNMMBHMG@EV_SHIELD_HIT?6?$AA@ 30055328     cg_event.obj
 0002:00009338       ??_C@_0BG@LPILCDGP@EV_WEAPON_CHARGE_ALT?6?$AA@ 30055338     cg_event.obj
 0002:00009350       ??_C@_0BC@FFJFINLG@EV_WEAPON_CHARGE?6?$AA@ 30055350     cg_event.obj
 0002:00009364       ??_C@_0BF@JEGDHJFI@EV_STOPLOOPINGSOUND?6?$AA@ 30055364     cg_event.obj
 0002:0000937c       ??_C@_0BG@LDMGNCJJ@EV_STARTLOOPINGSOUND?6?$AA@ 3005537c     cg_event.obj
 0002:00009394       ??_C@_0P@OAKOFJEN@EV_GIB_PLAYER?6?$AA@ 30055394     cg_event.obj
 0002:000093a4       ??_C@_0BC@MLCHKGFI@EV_FORCE_DRAINED?6?$AA@ 300553a4     cg_event.obj
 0002:000093b8       ??_C@_0BH@DMMEDNOI@EV_POWERUP_BATTLESUIT?6?$AA@ 300553b8     cg_event.obj
 0002:000093d0       ??_C@_0BB@BAEBNJML@EV_POWERUP_QUAD?6?$AA@ 300553d0     cg_event.obj
 0002:000093e4       ??_C@_0N@NHOCPMCE@EV_OBITUARY?6?$AA@ 300553e4     cg_event.obj
 0002:000093f4       ??_C@_0N@OJAOIBLE@?$CKdeath?$CFi?4wav?$AA@ 300553f4     cg_event.obj
 0002:00009404       ??_C@_0L@GGFIAEKN@EV_DEATHx?6?$AA@ 30055404     cg_event.obj
 0002:00009410       ??_C@_08MEMNOIPP@EV_PAIN?6?$AA@ 30055410     cg_event.obj
 0002:0000941c       ??_C@_0L@ODCIENMH@EV_DEBRIS?6?$AA@ 3005541c     cg_event.obj
 0002:00009428       ??_C@_0BC@OFECDCPE@EV_GLASS_SHATTER?6?$AA@ 30055428     cg_event.obj
 0002:0000943c       ??_C@_0O@NJJBGPF@EV_PLAY_ROFF?6?$AA@ 3005543c     cg_event.obj
 0002:0000944c       ??_C@_0BB@MGFHJKEO@EV_ENTITY_SOUND?6?$AA@ 3005544c     cg_event.obj
 0002:00009460       ??_C@_0BG@DDNACAKH@EV_GLOBAL_TEAM_SOUND?6?$AA@ 30055460     cg_event.obj
 0002:00009478       ??_C@_0BB@DOBOGIIM@EV_GLOBAL_SOUND?6?$AA@ 30055478     cg_event.obj
 0002:0000948c       ??_C@_0BC@BJDFIFFI@EV_GENERAL_SOUND?6?$AA@ 3005548c     cg_event.obj
 0002:000094a0       ??_C@_0P@MFMNPEFJ@EV_MUTE_SOUND?6?$AA@ 300554a0     cg_event.obj
 0002:000094b0       ??_C@_0BD@NADCCPEN@EV_PLAY_EFFECT_ID?6?$AA@ 300554b0     cg_event.obj
 0002:000094c4       ??_C@_0BG@JJPEKAJ@demp2?1altDetonate?4efx?$AA@ 300554c4     cg_event.obj
 0002:000094dc       ??_C@_0BL@ENBMGPII@stunBaton?1flesh_impact?4efx?$AA@ 300554dc     cg_event.obj
 0002:000094f8       ??_C@_0BH@IGPEPEKB@flechette?1alt_blow?4efx?$AA@ 300554f8     cg_event.obj
 0002:00009510       ??_C@_0BG@OPKCOLIH@detpack?1explosion?4efx?$AA@ 30055510     cg_event.obj
 0002:00009528       ??_C@_0BH@LGEKJMJF@tripMine?1explosion?4efx?$AA@ 30055528     cg_event.obj
 0002:00009540       ??_C@_0BE@MPMLCCOD@spark_explosion?4efx?$AA@ 30055540     cg_event.obj
 0002:00009554       ??_C@_0BD@CIEJDHGF@turret?1explode?4efx?$AA@ 30055554     cg_event.obj
 0002:00009568       ??_C@_0BF@JBOEDKLA@emplaced?1explode?4efx?$AA@ 30055568     cg_event.obj
 0002:00009580       ??_C@_0BI@DFPFFJME@emplaced?1dead_smoke?4efx?$AA@ 30055580     cg_event.obj
 0002:00009598       ??_C@_0BA@EOBPNDFA@EV_PLAY_EFFECT?6?$AA@ 30055598     cg_event.obj
 0002:000095a8       ??_C@_0BH@JAOAMPDI@EV_MISSILE_MISS_METAL?6?$AA@ 300555a8     cg_event.obj
 0002:000095c0       ??_C@_0BB@PNKCFMCO@EV_MISSILE_MISS?6?$AA@ 300555c0     cg_event.obj
 0002:000095d4       ??_C@_0BA@IGKGMCOM@EV_MISSILE_HIT?6?$AA@ 300555d4     cg_event.obj
 0002:000095e4       ??_C@_0BC@KFHMIOIE@EV_MISSILE_STICK?6?$AA@ 300555e4     cg_event.obj
 0002:000095f8       ??_C@_0BF@LBOIACLJ@ui_forcePowerDisable?$AA@ 300555f8     cg_event.obj
 0002:00009610       ??_C@_0BG@MIJCAGDM@EV_SET_FORCE_DISABLE?6?$AA@ 30055610     cg_event.obj
 0002:00009628       ??_C@_0N@KGLGFCPL@ui_freeSaber?$AA@ 30055628     cg_event.obj
 0002:00009638       ??_C@_0BD@BKAJJBKD@EV_SET_FREE_SABER?6?$AA@ 30055638     cg_event.obj
 0002:0000964c       ??_C@_09CPHDILCP@ui_myteam?$AA@ 3005564c     cg_event.obj
 0002:00009658       ??_C@_0O@LNLHFCCF@ui_rankChange?$AA@ 30055658     cg_event.obj
 0002:00009668       ??_C@_0BC@HOMJNHOI@EV_GIVE_NEW_RANK?6?$AA@ 30055668     cg_event.obj
 0002:0000967c       ??_C@_0BJ@BCHDFDJB@EV_DESTROY_WEAPON_MODEL?6?$AA@ 3005567c     cg_event.obj
 0002:00009698       ??_C@_0BM@PCLPFHBH@EV_DESTROY_GHOUL2_INSTANCE?6?$AA@ 30055698     cg_event.obj
 0002:000096b4       ??_C@_0BL@OJBCLMB@EV_SAGA_OBJECTIVECOMPLETE?6?$AA@ 300556b4     cg_event.obj
 0002:000096d0       ??_C@_0BD@FDBGIBAP@EV_SAGA_ROUNDOVER?6?$AA@ 300556d0     cg_event.obj
 0002:000096e4       ??_C@_0P@FDEPALG@EV_CTFMESSAGE?6?$AA@ 300556e4     cg_event.obj
 0002:000096f4       ??_C@_0O@HHOHODHG@EV_SCOREPLUM?6?$AA@ 300556f4     cg_event.obj
 0002:00009704       ??_C@_0BD@EIBAGLKH@EV_GRENADE_BOUNCE?6?$AA@ 30055704     cg_event.obj
 0002:00009718       ??_C@_0BB@JFDGENII@EV_ITEM_RESPAWN?6?$AA@ 30055718     cg_event.obj
 0002:0000972c       ??_C@_0N@PBHGFCFD@EV_ITEM_POP?6?$AA@ 3005572c     cg_event.obj
 0002:0000973c       ??_C@_0BI@GJLLMPKI@EV_PLAYER_TELEPORT_OUT?6?$AA@ 3005573c     cg_event.obj
 0002:00009754       ??_C@_0N@LLGCPGGE@mp?1spawn?4efx?$AA@ 30055754     cg_event.obj
 0002:00009764       ??_C@_0BH@EMPINMBK@EV_PLAYER_TELEPORT_IN?6?$AA@ 30055764     cg_event.obj
 0002:0000977c       ??_C@_0BH@LIEHOCMA@SEEKER_ALREADYDEPLOYED?$AA@ 3005577c     cg_event.obj
 0002:00009794       ??_C@_0O@EGAENPND@SHIELD_NOROOM?$AA@ 30055794     cg_event.obj
 0002:000097a4       ??_C@_0BF@BCPBOCCJ@SENTRY_ALREADYPLACED?$AA@ 300557a4     cg_event.obj
 0002:000097bc       ??_C@_0O@HOCAFJFE@SENTRY_NOROOM?$AA@ 300557bc     cg_event.obj
 0002:000097cc       ??_C@_0BA@HPBPKKLD@EV_ITEMUSEFAIL?6?$AA@ 300557cc     cg_event.obj
 0002:000097dc       ??_C@_0P@DPDLKGLM@EV_USE_ITEM14?6?$AA@ 300557dc     cg_event.obj
 0002:000097ec       ??_C@_0P@DKHELADJ@EV_USE_ITEM13?6?$AA@ 300557ec     cg_event.obj
 0002:000097fc       ??_C@_0P@DLLGNKAO@EV_USE_ITEM12?6?$AA@ 300557fc     cg_event.obj
 0002:0000980c       ??_C@_0P@DJPAGEFH@EV_USE_ITEM11?6?$AA@ 3005580c     cg_event.obj
 0002:0000981c       ??_C@_0P@DIDCAOGA@EV_USE_ITEM10?6?$AA@ 3005581c     cg_event.obj
 0002:0000982c       ??_C@_0O@CBKDMCHN@EV_USE_ITEM9?6?$AA@ 3005582c     cg_event.obj
 0002:0000983c       ??_C@_0O@CAGBKIEK@EV_USE_ITEM8?6?$AA@ 3005583c     cg_event.obj
 0002:0000984c       ??_C@_0O@CLDNOPHH@EV_USE_ITEM7?6?$AA@ 3005584c     cg_event.obj
 0002:0000985c       ??_C@_0O@CKPPIFEA@EV_USE_ITEM6?6?$AA@ 3005585c     cg_event.obj
 0002:0000986c       ??_C@_0O@CILJDLBJ@EV_USE_ITEM5?6?$AA@ 3005586c     cg_event.obj
 0002:0000987c       ??_C@_0O@CJHLFBCO@EV_USE_ITEM4?6?$AA@ 3005587c     cg_event.obj
 0002:0000988c       ??_C@_0O@CMDEEHKL@EV_USE_ITEM3?6?$AA@ 3005588c     cg_event.obj
 0002:0000989c       ??_C@_0O@CNPGCNJM@EV_USE_ITEM2?6?$AA@ 3005589c     cg_event.obj
 0002:000098ac       ??_C@_0O@CPLAJDMF@EV_USE_ITEM1?6?$AA@ 300558ac     cg_event.obj
 0002:000098bc       ??_C@_0O@COHCPJPC@EV_USE_ITEM0?6?$AA@ 300558bc     cg_event.obj
 0002:000098cc       ??_C@_0BA@MNHPKCIL@EV_SCREENSHAKE?6?$AA@ 300558cc     cg_event.obj
 0002:000098dc       ??_C@_0P@EFHBOHF@EV_TEAM_POWER?6?$AA@ 300558dc     cg_event.obj
 0002:000098ec       ??_C@_0BN@OAMJLKID@sound?1weapons?1force?1grip?4mp3?$AA@ 300558ec     cg_event.obj
 0002:0000990c       ??_C@_0BN@OPAMHANO@sound?1weapons?1force?1jump?4mp3?$AA@ 3005590c     cg_event.obj
 0002:0000992c       ??_C@_0BP@HBDMOEFN@sound?1weapons?1force?1absorb?4mp3?$AA@ 3005592c     cg_event.obj
 0002:0000994c       ??_C@_0CC@JDCLBP@sound?1weapons?1force?1absorbhit?4mp@ 3005594c     cg_event.obj
 0002:00009970       ??_C@_0CA@HJGMCKFK@sound?1weapons?1force?1protect?4mp3?$AA@ 30055970     cg_event.obj
 0002:00009990       ??_C@_0CD@DLMOJGKG@sound?1weapons?1force?1protecthit?4m@ 30055990     cg_event.obj
 0002:000099b4       ??_C@_0BA@OCJLFFOK@EV_PREDEFSOUND?6?$AA@ 300559b4     cg_event.obj
 0002:000099c4       ??_C@_0CE@PIBAGMCN@sound?1weapons?1disruptor?1zoomend?4@ 300559c4     cg_event.obj
 0002:000099e8       ??_C@_0CG@PBOJOFP@sound?1weapons?1disruptor?1zoomstar@ 300559e8     cg_event.obj
 0002:00009a10       ??_C@_0BI@GNFPMMKN@EV_DISRUPTOR_ZOOMSOUND?6?$AA@ 30055a10     cg_event.obj
 0002:00009a28       ??_C@_0BC@JPMCFDBJ@EV_DISRUPTOR_HIT?6?$AA@ 30055a28     cg_event.obj
 0002:00009a3c       ??_C@_0BK@GPKOGJOH@EV_DISRUPTOR_SNIPER_MISS?6?$AA@ 30055a3c     cg_event.obj
 0002:00009a58       ??_C@_0BK@HEJCNNBO@EV_DISRUPTOR_SNIPER_SHOT?6?$AA@ 30055a58     cg_event.obj
 0002:00009a74       ??_C@_0BI@IGJAGMIN@EV_DISRUPTOR_MAIN_SHOT?6?$AA@ 30055a74     cg_event.obj
 0002:00009a8c       ??_C@_0BB@CKIDHIKN@mp?1jedispawn?4efx?$AA@ 30055a8c     cg_event.obj
 0002:00009aa0       ??_C@_0CA@IHKBIIAM@sound?1weapons?1saber?1saberon?4wav?$AA@ 30055aa0     cg_event.obj
 0002:00009ac0       ??_C@_0BE@LHAIBFCE@EV_SABER_UNHOLSTER?6?$AA@ 30055ac0     cg_event.obj
 0002:00009ad4       ??_C@_0BE@EDNJGAOC@blaster?1deflect?4efx?$AA@ 30055ad4     cg_event.obj
 0002:00009ae8       ??_C@_0BG@NKEPHOMN@saber?1saber_block?4efx?$AA@ 30055ae8     cg_event.obj
 0002:00009b00       ??_C@_0CF@KPADFJEL@sound?1weapons?1saber?1saberblock?$CFd@ 30055b00     cg_event.obj
 0002:00009b28       ??_C@_0BA@NNCAIIDK@EV_SABER_BLOCK?6?$AA@ 30055b28     cg_event.obj
 0002:00009b38       ??_C@_0BA@IMLINKDB@saber?1spark?4efx?$AA@ 30055b38     cg_event.obj
 0002:00009b48       ??_C@_0BH@BAIIAANF@saber?1blood_sparks?4efx?$AA@ 30055b48     cg_event.obj
 0002:00009b60       ??_C@_0CB@ELDLDPNJ@sound?1weapons?1saber?1saberhit?4wav@ 30055b60     cg_event.obj
 0002:00009b84       ??_C@_0O@FLLECKKD@EV_SABER_HIT?6?$AA@ 30055b84     cg_event.obj
 0002:00009b94       ??_C@_0CD@EBJGEHEE@sound?1weapons?1saber?1saberhup?$CFi?4w@ 30055b94     cg_event.obj
 0002:00009bb8       ??_C@_0BB@EBLNKKNK@EV_SABER_ATTACK?6?$AA@ 30055bb8     cg_event.obj
 0002:00009bcc       ??_C@_0N@EEFOAGOF@EV_ALT_FIRE?6?$AA@ 30055bcc     cg_event.obj
 0002:00009bdc       ??_C@_0CA@HGFMJEIC@effects?1turret?1muzzle_flash?4efx?$AA@ 30055bdc     cg_event.obj
 0002:00009bfc       ??_C@_08BOOIEECM@?$CKflash02?$AA@ 30055bfc     cg_event.obj
 0002:00009c08       ??_C@_08DFMFBHOP@?$CKflash01?$AA@ 30055c08     cg_event.obj
 0002:00009c14       ??_C@_0CB@PHAPEPNK@effects?1blaster?1flesh_impact?4efx@ 30055c14     cg_event.obj
 0002:00009c38       ??_C@_0CA@JPEAOPNB@effects?1blaster?1wall_impact?4efx?$AA@ 30055c38     cg_event.obj
 0002:00009c58       ??_C@_0BA@CJMMIDHE@EV_FIRE_WEAPON?6?$AA@ 30055c58     cg_event.obj
 0002:00009c68       ??_C@_0BC@KBHMOJOO@EV_CHANGE_WEAPON?6?$AA@ 30055c68     cg_event.obj
 0002:00009c7c       ??_C@_0L@CIOCLBPP@EV_NOAMMO?6?$AA@ 30055c7c     cg_event.obj
 0002:00009c88       ??_C@_0BH@BPJPNNOH@EV_GLOBAL_ITEM_PICKUP?6?$AA@ 30055c88     cg_event.obj
 0002:00009ca0       ??_C@_0BA@LGJAHGJL@EV_ITEM_PICKUP?6?$AA@ 30055ca0     cg_event.obj
 0002:00009cb0       ??_C@_09OICPJII@?$CKgasp?4wav?$AA@ 30055cb0     cg_event.obj
 0002:00009cbc       ??_C@_0BA@OODKPEF@EV_WATER_CLEAR?6?$AA@ 30055cbc     cg_event.obj
 0002:00009ccc       ??_C@_0BA@PFCHBJFN@EV_WATER_UNDER?6?$AA@ 30055ccc     cg_event.obj
 0002:00009cdc       ??_C@_0BA@POIDPCHH@EV_WATER_LEAVE?6?$AA@ 30055cdc     cg_event.obj
 0002:00009cec       ??_C@_0BA@PBFGAGAE@EV_WATER_TOUCH?6?$AA@ 30055cec     cg_event.obj
 0002:00009cfc       ??_C@_0BB@JPOBDFNJ@EV_TAUNT_PATROL?6?$AA@ 30055cfc     cg_event.obj
 0002:00009d10       ??_C@_0BE@PKJDLCKD@EV_TAUNT_GUARDBASE?6?$AA@ 30055d10     cg_event.obj
 0002:00009d24       ??_C@_0BC@BMFLLOJO@EV_TAUNT_GETFLAG?6?$AA@ 30055d24     cg_event.obj
 0002:00009d38       ??_C@_08LJGLPHPA@followme?$AA@ 30055d38     cg_event.obj
 0002:00009d44       ??_C@_0BD@OBMJKDBC@EV_TAUNT_FOLLOWME?6?$AA@ 30055d44     cg_event.obj
 0002:00009d58       ??_C@_0N@MPHDJALJ@EV_TAUNT_NO?6?$AA@ 30055d58     cg_event.obj
 0002:00009d68       ??_C@_0O@JGINCOPL@EV_TAUNT_YES?6?$AA@ 30055d68     cg_event.obj
 0002:00009d78       ??_C@_0L@FDBCLIPJ@?$CKtaunt?4wav?$AA@ 30055d78     cg_event.obj
 0002:00009d84       ??_C@_09OAFEJHMF@EV_TAUNT?6?$AA@ 30055d84     cg_event.obj
 0002:00009d90       ??_C@_08CGPNDMJ@EV_ROLL?6?$AA@ 30055d90     cg_event.obj
 0002:00009d9c       ??_C@_0L@FMHDEMAN@?$CKjump1?4wav?$AA@ 30055d9c     cg_event.obj
 0002:00009da8       ??_C@_08GKDKOBGN@EV_JUMP?6?$AA@ 30055da8     cg_event.obj
 0002:00009db4       ??_C@_0BC@BIOHEDAP@music?1mp?1duel?4mp3?$AA@ 30055db4     cg_event.obj
 0002:00009dc8       ??_C@_08BJJGCJMH@SVINGAME?$AA@ 30055dc8     cg_event.obj
 0002:00009dd4       ??_C@_0L@HMDPGPOM@BEGIN_DUEL?$AA@ 30055dd4     cg_event.obj
 0002:00009de0       ??_C@_0BB@MIEMHGH@EV_PRIVATE_DUEL?6?$AA@ 30055de0     cg_event.obj
 0002:00009df4       ??_C@_0N@CDCGGHDH@EV_JUMP_PAD?6?$AA@ 30055df4     cg_event.obj
 0002:00009e04       ??_C@_08LGDHLDGB@EV_STEP?6?$AA@ 30055e04     cg_event.obj
 0002:00009e10       ??_C@_08CFBICNCF@EV_FALL?6?$AA@ 30055e10     cg_event.obj
 0002:00009e1c       ??_C@_08KPLPEGCK@EV_SWIM?6?$AA@ 30055e1c     cg_event.obj
 0002:00009e28       ??_C@_0N@DBFBMKGC@EV_FOOTWADE?6?$AA@ 30055e28     cg_event.obj
 0002:00009e38       ??_C@_0P@ECCJNKCN@EV_FOOTSPLASH?6?$AA@ 30055e38     cg_event.obj
 0002:00009e48       ??_C@_0BD@GPGIDOAE@EV_FOOTSTEP_METAL?6?$AA@ 30055e48     cg_event.obj
 0002:00009e5c       ??_C@_0N@KAJBJGHI@EV_FOOTSTEP?6?$AA@ 30055e5c     cg_event.obj
 0002:00009e6c       ??_C@_0P@LEHMHLJF@EV_CLIENTJOIN?6?$AA@ 30055e6c     cg_event.obj
 0002:00009e7c       ??_C@_0L@GMIFJJAD@ZEROEVENT?6?$AA@ 30055e7c     cg_event.obj
 0002:00009e88       ??_C@_0BE@HGIJDIOP@ent?3?$CF3i?5?5event?3?$CF3i?5?$AA@ 30055e88     cg_event.obj
 0002:00009e9c       ??_C@_0M@DLPOCMGF@RULES_CTY_2?$AA@ 30055e9c     cg_info.obj
 0002:00009ea8       ??_C@_0M@BANDHPKG@RULES_CTY_1?$AA@ 30055ea8     cg_info.obj
 0002:00009eb4       ??_C@_0M@DDIEGLKM@RULES_CTF_2?$AA@ 30055eb4     cg_info.obj
 0002:00009ec0       ??_C@_0M@BIKJDIGP@RULES_CTF_1?$AA@ 30055ec0     cg_info.obj
 0002:00009ecc       ??_C@_0N@FAOPFHNA@RULES_TEAM_2?$AA@ 30055ecc     cg_info.obj
 0002:00009edc       ??_C@_0N@HLMCAEBD@RULES_TEAM_1?$AA@ 30055edc     cg_info.obj
 0002:00009eec       ??_C@_0N@HJNLAICA@RULES_DUEL_2?$AA@ 30055eec     cg_info.obj
 0002:00009efc       ??_C@_0N@FCPGFLOD@RULES_DUEL_1?$AA@ 30055efc     cg_info.obj
 0002:00009f0c       ??_C@_0N@CAIMKIGE@RULES_JEDI_2?$AA@ 30055f0c     cg_info.obj
 0002:00009f1c       ??_C@_0N@LKBPLKH@RULES_JEDI_1?$AA@ 30055f1c     cg_info.obj
 0002:00009f2c       ??_C@_0N@DJDIODG@RULES_HOLO_2?$AA@ 30055f2c     cg_info.obj
 0002:00009f3c       ??_C@_0N@CILONNPF@RULES_HOLO_1?$AA@ 30055f3c     cg_info.obj
 0002:00009f4c       ??_C@_0M@MPJDFFIH@RULES_FFA_1?$AA@ 30055f4c     cg_info.obj
 0002:00009f58       ??_C@_07IEKFKEFE@NOFPSET?$AA@ 30055f58     cg_info.obj
 0002:00009f60       ??_C@_0N@JNDANCJI@SABERONLYSET?$AA@ 30055f60     cg_info.obj
 0002:00009f70       ??_C@_0BA@DKHOJHPN@g_weaponDisable?$AA@ 30055f70     cg_info.obj
 0002:00009f80       ??_C@_0BE@OBOCPLPN@g_duelWeaponDisable?$AA@ 30055f80     cg_info.obj
 0002:00009f94       ??_C@_0BI@DJLIGJCE@INGAMETEXT_MAXFORCERANK?$AA@ 30055f94     cg_info.obj
 0002:00009fac       ??_C@_0P@CHCANPBO@g_maxForceRank?$AA@ 30055fac     cg_info.obj
 0002:00009fbc       ??_C@_0BE@EDCPOKDI@g_forcePowerDisable?$AA@ 30055fbc     cg_info.obj
 0002:00009fd0       ??_C@_0BA@DGPADPIF@FORCEBASEDTEAMS?$AA@ 30055fd0     cg_info.obj
 0002:00009fe0       ??_C@_0BC@PJKMCDAC@g_forceBasedTeams?$AA@ 30055fe0     cg_info.obj
 0002:00009ff4       ??_C@_0N@EPCFLABN@CAPTURELIMIT?$AA@ 30055ff4     cg_info.obj
 0002:0000a004       ??_C@_0N@FCAHJCDA@capturelimit?$AA@ 30056004     cg_info.obj
 0002:0000a014       ??_C@_08MILIEONM@WINLIMIT?$AA@ 30056014     cg_info.obj
 0002:0000a020       ??_C@_0P@CFJBJECC@duel_fraglimit?$AA@ 30056020     cg_info.obj
 0002:0000a030       ??_C@_09FCHFFOMK@FRAGLIMIT?$AA@ 30056030     cg_info.obj
 0002:0000a03c       ??_C@_09GCIEGDDN@fraglimit?$AA@ 3005603c     cg_info.obj
 0002:0000a048       ??_C@_05INKFKLBN@?$CFs?5?$CFi?$AA@ 30056048     cg_info.obj
 0002:0000a050       ??_C@_09JPILNHNF@TIMELIMIT?$AA@ 30056050     cg_info.obj
 0002:0000a05c       ??_C@_09KPHKOKCC@timelimit?$AA@ 3005605c     cg_info.obj
 0002:0000a068       ??_C@_0BB@DMLMKGKN@Unknown?5Gametype?$AA@ 30056068     cg_info.obj
 0002:0000a07c       ??_C@_0BG@NHJMKPNB@Capture?5The?5Ysalamiri?$AA@ 3005607c     cg_info.obj
 0002:0000a094       ??_C@_0BB@GMHGFHKF@Capture?5The?5Flag?$AA@ 30056094     cg_info.obj
 0002:0000a0a8       ??_C@_04EPBLILKF@Duel?$AA@ 300560a8     cg_info.obj
 0002:0000a0b0       ??_C@_0O@NNAOEDOE@Single?5Player?$AA@ 300560b0     cg_info.obj
 0002:0000a0c0       ??_C@_0BB@FMGHLLBN@CHEATSAREENABLED?$AA@ 300560c0     cg_info.obj
 0002:0000a0d4       ??_C@_09NFOPKLIK@sv_cheats?$AA@ 300560d4     cg_info.obj
 0002:0000a0e0       ??_C@_0O@GJFLJONJ@cl_motdString?$AA@ 300560e0     cg_info.obj
 0002:0000a0f0       ??_C@_0M@LJLDHHA@PURE_SERVER?$AA@ 300560f0     cg_info.obj
 0002:0000a0fc       ??_C@_07CAKOHKGL@sv_pure?$AA@ 300560fc     cg_info.obj
 0002:0000a104       ??_C@_0M@NHCIKFPA@sv_hostname?$AA@ 30056104     cg_info.obj
 0002:0000a110       ??_C@_0L@MPAGGMDN@sv_running?$AA@ 30056110     cg_info.obj
 0002:0000a11c       ??_C@_0BC@OMJIFLDI@AWAITING_SNAPSHOT?$AA@ 3005611c     cg_info.obj
 0002:0000a130       ??_C@_06JJFLEDIG@MENUS3?$AA@ 30056130     cg_info.obj
 0002:0000a138       ??_C@_0BA@DANNDEJB@LOADING_MAPNAME?$AA@ 30056138     cg_info.obj
 0002:0000a148       ??_C@_0BE@JCMNICLJ@menu?1art?1unknownmap?$AA@ 30056148     cg_info.obj
 0002:0000a15c       ??_C@_0O@OBEFLHGN@levelshots?1?$CFs?$AA@ 3005615c     cg_info.obj
 0002:0000a16c       ??_C@_07KMNEBLH@mapname?$AA@ 3005616c     cg_info.obj
 0002:0000a174       ??_C@_0BJ@JHLHMDHN@svc_lightstyle?5length?$DN?$CFi?$AA@ 30056174     cg_light.obj
 0002:0000a190       ??_C@_0BP@HOJADAKE@CG_FreeLocalEntity?3?5not?5active?$AA@ 30056190     cg_localents.obj
 0002:0000a1b0       __real@c0000000            300561b0     cg_localents.obj
 0002:0000a1b4       __real@3a03126f            300561b4     cg_localents.obj
 0002:0000a1b8       __real@4045000000000000    300561b8     cg_localents.obj
 0002:0000a1c0       __real@3fd51eb851eb851f    300561c0     cg_localents.obj
 0002:0000a1c8       __real@4024000000000000    300561c8     cg_localents.obj
 0002:0000a1d0       __real@4034000000000000    300561d0     cg_localents.obj
 0002:0000a1d8       __real@42dc0000            300561d8     cg_localents.obj
 0002:0000a1dc       __real@447f0000            300561dc     cg_localents.obj
 0002:0000a1e0       ??_C@_0P@JBCHHKP@Bad?5leType?3?5?$CFi?$AA@ 300561e0     cg_localents.obj
 0002:0000a1f0       ??_C@_0BD@NKPDMEGC@gfx?1hud?1ammo_tick1?$AA@ 300561f0     cg_main.obj
 0002:0000a204       ??_C@_0BD@PBNOJHKB@gfx?1hud?1ammo_tick2?$AA@ 30056204     cg_main.obj
 0002:0000a218       ??_C@_0BD@OIMFKGOA@gfx?1hud?1ammo_tick3?$AA@ 30056218     cg_main.obj
 0002:0000a22c       ??_C@_0BD@KHIEDACH@gfx?1hud?1ammo_tick4?$AA@ 3005622c     cg_main.obj
 0002:0000a240       ??_C@_0BD@LOJPABGG@gfx?1hud?1ammo_tick5?$AA@ 30056240     cg_main.obj
 0002:0000a254       ??_C@_0BD@JFLCFCKF@gfx?1hud?1ammo_tick6?$AA@ 30056254     cg_main.obj
 0002:0000a268       ??_C@_0BD@IMKJGDOE@gfx?1hud?1ammo_tick7?$AA@ 30056268     cg_main.obj
 0002:0000a27c       ??_C@_0BE@KHNEICAF@gfx?1hud?1force_tick7?$AA@ 3005627c     cg_main.obj
 0002:0000a290       ??_C@_0BE@LOMPLDEE@gfx?1hud?1force_tick6?$AA@ 30056290     cg_main.obj
 0002:0000a2a4       ??_C@_0BE@JFOCOAIH@gfx?1hud?1force_tick5?$AA@ 300562a4     cg_main.obj
 0002:0000a2b8       ??_C@_0BE@IMPJNBMG@gfx?1hud?1force_tick4?$AA@ 300562b8     cg_main.obj
 0002:0000a2cc       ??_C@_0BE@MDLIEHAB@gfx?1hud?1force_tick3?$AA@ 300562cc     cg_main.obj
 0002:0000a2e0       ??_C@_0BE@NKKDHGEA@gfx?1hud?1force_tick2?$AA@ 300562e0     cg_main.obj
 0002:0000a2f4       ??_C@_0BE@PBIOCFID@gfx?1hud?1force_tick1?$AA@ 300562f4     cg_main.obj
 0002:0000a308       ??_C@_0BG@DGNIOOMC@gfx?12d?1numbers?1c_nine?$AA@ 30056308     cg_main.obj
 0002:0000a320       ??_C@_0BH@CBBIOLJK@gfx?12d?1numbers?1c_eight?$AA@ 30056320     cg_main.obj
 0002:0000a338       ??_C@_0BH@GBDHLOGP@gfx?12d?1numbers?1c_seven?$AA@ 30056338     cg_main.obj
 0002:0000a350       ??_C@_0BF@FIJHJLOI@gfx?12d?1numbers?1c_six?$AA@ 30056350     cg_main.obj
 0002:0000a368       ??_C@_0BG@BEJNFHML@gfx?12d?1numbers?1c_five?$AA@ 30056368     cg_main.obj
 0002:0000a380       ??_C@_0BG@DGDDDCNI@gfx?12d?1numbers?1c_four?$AA@ 30056380     cg_main.obj
 0002:0000a398       ??_C@_0BH@OIDEAEPK@gfx?12d?1numbers?1c_three?$AA@ 30056398     cg_main.obj
 0002:0000a3b0       ??_C@_0BF@NGHLKJLN@gfx?12d?1numbers?1c_two?$AA@ 300563b0     cg_main.obj
 0002:0000a3c8       ??_C@_0BF@LIHLAJFG@gfx?12d?1numbers?1c_one?$AA@ 300563c8     cg_main.obj
 0002:0000a3e0       ??_C@_0BG@GLNNCKG@gfx?12d?1numbers?1c_zero?$AA@ 300563e0     cg_main.obj
 0002:0000a3f8       ??_C@_0BH@JNICLIKL@gfx?12d?1numbers?1t_minus?$AA@ 300563f8     cg_main.obj
 0002:0000a410       ??_C@_0BG@JEKBEMIC@gfx?12d?1numbers?1t_nine?$AA@ 30056410     cg_main.obj
 0002:0000a428       ??_C@_0BH@FHGGNDKI@gfx?12d?1numbers?1t_eight?$AA@ 30056428     cg_main.obj
 0002:0000a440       ??_C@_0BH@BHEJIGFN@gfx?12d?1numbers?1t_seven?$AA@ 30056440     cg_main.obj
 0002:0000a458       ??_C@_0BF@EGEEKJML@gfx?12d?1numbers?1t_six?$AA@ 30056458     cg_main.obj
 0002:0000a470       ??_C@_0BG@LGOEPFIL@gfx?12d?1numbers?1t_five?$AA@ 30056470     cg_main.obj
 0002:0000a488       ??_C@_0BG@JEEKJAJI@gfx?12d?1numbers?1t_four?$AA@ 30056488     cg_main.obj
 0002:0000a4a0       ??_C@_0BH@JOEKDMMI@gfx?12d?1numbers?1t_three?$AA@ 300564a0     cg_main.obj
 0002:0000a4b8       ??_C@_0BF@MIKIJLJO@gfx?12d?1numbers?1t_two?$AA@ 300564b8     cg_main.obj
 0002:0000a4d0       ??_C@_0BF@KGKIDLHF@gfx?12d?1numbers?1t_one?$AA@ 300564d0     cg_main.obj
 0002:0000a4e8       ??_C@_0BG@KEMEHAOG@gfx?12d?1numbers?1t_zero?$AA@ 300564e8     cg_main.obj
 0002:0000a500       ??_C@_0BF@BIEHLLCD@gfx?12d?1numbers?1minus?$AA@ 30056500     cg_main.obj
 0002:0000a518       ??_C@_0BE@DEJCBMNA@gfx?12d?1numbers?1nine?$AA@ 30056518     cg_main.obj
 0002:0000a52c       ??_C@_0BF@NCKDNACA@gfx?12d?1numbers?1eight?$AA@ 3005652c     cg_main.obj
 0002:0000a544       ??_C@_0BF@JCIMIFNF@gfx?12d?1numbers?1seven?$AA@ 30056544     cg_main.obj
 0002:0000a55c       ??_C@_0BD@HPPGIDCL@gfx?12d?1numbers?1six?$AA@ 3005655c     cg_main.obj
 0002:0000a570       ??_C@_0BE@BGNHKFNJ@gfx?12d?1numbers?1five?$AA@ 30056570     cg_main.obj
 0002:0000a584       ??_C@_0BE@DEHJMAMK@gfx?12d?1numbers?1four?$AA@ 30056584     cg_main.obj
 0002:0000a598       ??_C@_0BF@BLIPDPEA@gfx?12d?1numbers?1three?$AA@ 30056598     cg_main.obj
 0002:0000a5b0       ??_C@_0BD@PBBKLBHO@gfx?12d?1numbers?1two?$AA@ 300565b0     cg_main.obj
 0002:0000a5c4       ??_C@_0BD@JPBKBBJF@gfx?12d?1numbers?1one?$AA@ 300565c4     cg_main.obj
 0002:0000a5d8       ??_C@_0BE@EPHCALE@gfx?12d?1numbers?1zero?$AA@ 300565d8     cg_main.obj
 0002:0000a5ec       ??_C@_07HEFMJHOI@debugBB?$AA@ 300565ec     cg_main.obj
 0002:0000a5f4       ??_C@_03MDAFIFFL@0?40?$AA@ 300565f4     cg_main.obj
 0002:0000a5f8       ??_C@_0BB@DCJMDHFD@cg_trueLightning?$AA@ 300565f8     cg_main.obj
 0002:0000a60c       ??_C@_0L@LPOJJAMJ@ui_bigFont?$AA@ 3005660c     cg_main.obj
 0002:0000a618       ??_C@_04FNMPJLCB@0?425?$AA@ 30056618     cg_main.obj
 0002:0000a620       ??_C@_0N@CLDCAIAI@ui_smallFont?$AA@ 30056620     cg_main.obj
 0002:0000a630       ??_C@_0BF@IHAIMPIG@cg_noProjectileTrail?$AA@ 30056630     cg_main.obj
 0002:0000a648       ??_C@_0L@BNLHLPGL@cg_noTaunt?$AA@ 30056648     cg_main.obj
 0002:0000a654       ??_C@_01KJLJFBPL@8?$AA@    30056654     cg_main.obj
 0002:0000a658       ??_C@_0L@JLBEBBAD@pmove_msec?$AA@ 30056658     cg_main.obj
 0002:0000a664       ??_C@_0M@HOGKGHBI@pmove_fixed?$AA@ 30056664     cg_main.obj
 0002:0000a670       ??_C@_0P@EIAPFKBF@com_cameraMode?$AA@ 30056670     cg_main.obj
 0002:0000a680       ??_C@_0BB@EPNKMEEL@cg_smoothClients?$AA@ 30056680     cg_main.obj
 0002:0000a694       ??_C@_0M@OADJJKKA@cg_hudFiles?$AA@ 30056694     cg_main.obj
 0002:0000a6a0       ??_C@_0O@ECBGLFLJ@cg_scorePlums?$AA@ 300566a0     cg_main.obj
 0002:0000a6b0       ??_C@_09IIOBMIO@timescale?$AA@ 300566b0     cg_main.obj
 0002:0000a6bc       ??_C@_0BG@HODAAIBP@cg_timescaleFadeSpeed?$AA@ 300566bc     cg_main.obj
 0002:0000a6d4       ??_C@_0BE@INLNOCBP@cg_timescaleFadeEnd?$AA@ 300566d4     cg_main.obj
 0002:0000a6e8       ??_C@_02PNFIDHGF@50?$AA@   300566e8     cg_main.obj
 0002:0000a6ec       ??_C@_0BE@CELIAELA@ui_recordSPDemoName?$AA@ 300566ec     cg_main.obj
 0002:0000a700       ??_C@_0BA@OHINOCDN@ui_recordSPDemo?$AA@ 30056700     cg_main.obj
 0002:0000a710       ??_C@_0P@INMNNPOJ@g_enableBreath?$AA@ 30056710     cg_main.obj
 0002:0000a720       ??_C@_0N@CMGOADK@g_enableDust?$AA@ 30056720     cg_main.obj
 0002:0000a730       ??_C@_0BG@JDIGCOKJ@ui_singlePlayerActive?$AA@ 30056730     cg_main.obj
 0002:0000a748       ??_C@_0BN@HANLGBBD@cg_currentSelectedPlayerName?$AA@ 30056748     cg_main.obj
 0002:0000a768       ??_C@_0BJ@CEJCFKCN@cg_currentSelectedPlayer?$AA@ 30056768     cg_main.obj
 0002:0000a784       ??_C@_09CBAPOGED@Rebellion?$AA@ 30056784     cg_main.obj
 0002:0000a790       ??_C@_0L@CPNMJIBN@g_blueteam?$AA@ 30056790     cg_main.obj
 0002:0000a79c       ??_C@_06DAMJBNEB@Empire?$AA@ 3005679c     cg_main.obj
 0002:0000a7a4       ??_C@_09LPNHELAH@g_redteam?$AA@ 300567a4     cg_main.obj
 0002:0000a7b0       ??_C@_0BF@LICFCALK@g_synchronousClients?$AA@ 300567b0     cg_main.obj
 0002:0000a7c8       ??_C@_09DKNLLEN@com_blood?$AA@ 300567c8     cg_main.obj
 0002:0000a7d4       ??_C@_0BA@MOHNLIKA@com_buildScript?$AA@ 300567d4     cg_main.obj
 0002:0000a7e4       ??_C@_0P@HEADOJJM@cg_noVoiceText?$AA@ 300567e4     cg_main.obj
 0002:0000a7f4       ??_C@_0BA@DGINBIDE@cg_noVoiceChats?$AA@ 300567f4     cg_main.obj
 0002:0000a804       ??_C@_0BB@GFOCPFOA@cg_teamChatsOnly?$AA@ 30056804     cg_main.obj
 0002:0000a818       ??_C@_0O@KGJIDOMN@cg_drawFriend?$AA@ 30056818     cg_main.obj
 0002:0000a828       ??_C@_08CGDPCFHD@cg_stats?$AA@ 30056828     cg_main.obj
 0002:0000a834       ??_C@_0M@IKKMOBIP@teamoverlay?$AA@ 30056834     cg_main.obj
 0002:0000a840       ??_C@_0BD@BNGDPIGC@cg_drawTeamOverlay?$AA@ 30056840     cg_main.obj
 0002:0000a854       ??_C@_0BA@PFOJHBKN@cg_deferPlayers?$AA@ 30056854     cg_main.obj
 0002:0000a864       ??_C@_0BA@PKAEEJJB@cg_predictItems?$AA@ 30056864     cg_main.obj
 0002:0000a874       ??_C@_0O@LJBBKNGE@cg_forceModel?$AA@ 30056874     cg_main.obj
 0002:0000a884       ??_C@_0BC@JPKKPJNB@cg_teamChatHeight?$AA@ 30056884     cg_main.obj
 0002:0000a898       ??_C@_04NEFKOBHG@3000?$AA@ 30056898     cg_main.obj
 0002:0000a8a0       ??_C@_0BA@FOMJOJCG@cg_teamChatTime?$AA@ 300568a0     cg_main.obj
 0002:0000a8b0       ??_C@_03HLLJOCDO@1?40?$AA@ 300568b0     cg_main.obj
 0002:0000a8b4       ??_C@_0BE@KCHOECBB@cg_thirdPersonAlpha?$AA@ 300568b4     cg_main.obj
 0002:0000a8c8       ??_C@_0BJ@FEJLIMD@cg_thirdPersonHorzOffset?$AA@ 300568c8     cg_main.obj
 0002:0000a8e4       ??_C@_03LOHCHBBO@0?45?$AA@ 300568e4     cg_main.obj
 0002:0000a8e8       ??_C@_0BJ@FGGPEIAI@cg_thirdPersonTargetDamp?$AA@ 300568e8     cg_main.obj
 0002:0000a904       ??_C@_03OICINGJI@0?43?$AA@ 30056904     cg_main.obj
 0002:0000a908       ??_C@_0BJ@BBJMCCPF@cg_thirdPersonCameraDamp?$AA@ 30056908     cg_main.obj
 0002:0000a924       ??_C@_02KMALDIDP@16?$AA@   30056924     cg_main.obj
 0002:0000a928       ??_C@_0BJ@PLGBNFPF@cg_thirdPersonVertOffset?$AA@ 30056928     cg_main.obj
 0002:0000a944       ??_C@_0BK@MPOHHNJK@cg_thirdPersonPitchOffset?$AA@ 30056944     cg_main.obj
 0002:0000a960       ??_C@_0N@OPONILAJ@cg_dismember?$AA@ 30056960     cg_main.obj
 0002:0000a970       ??_C@_0N@CKANHONG@cg_animBlend?$AA@ 30056970     cg_main.obj
 0002:0000a980       ??_C@_0N@BELOMMOL@cg_auraShell?$AA@ 30056980     cg_main.obj
 0002:0000a990       ??_C@_0O@JKMBDLDF@cg_speedTrail?$AA@ 30056990     cg_main.obj
 0002:0000a9a0       ??_C@_0BC@JMPFMIDA@cg_duelHeadAngles?$AA@ 300569a0     cg_main.obj
 0002:0000a9b4       ??_C@_0O@DCMCBFNO@cg_saberTrail?$AA@ 300569b4     cg_main.obj
 0002:0000a9c4       ??_C@_0BA@JIJPALDE@cg_saberContact?$AA@ 300569c4     cg_main.obj
 0002:0000a9d4       ??_C@_05DGDJCJKI@60000?$AA@ 300569d4     cg_main.obj
 0002:0000a9dc       ??_C@_0BI@OHDIIEFC@cg_saberDynamicMarkTime?$AA@ 300569dc     cg_main.obj
 0002:0000a9f4       ??_C@_0BF@NABJAOEA@cg_saberDynamicMarks?$AA@ 300569f4     cg_main.obj
 0002:0000aa0c       ??_C@_07EPOCHFIH@cg_fpls?$AA@ 30056a0c     cg_main.obj
 0002:0000aa14       ??_C@_0BJ@MEKKLEGB@cg_saberModelTraceEffect?$AA@ 30056a14     cg_main.obj
 0002:0000aa30       ??_C@_0BB@FEDAIAGH@cg_oldPainSounds?$AA@ 30056a30     cg_main.obj
 0002:0000aa44       ??_C@_0P@JLFLAMIK@cg_swingAngles?$AA@ 30056a44     cg_main.obj
 0002:0000aa54       ??_C@_0BA@CAFKIKHE@cg_tracerlength?$AA@ 30056a54     cg_main.obj
 0002:0000aa64       ??_C@_0P@ENCNJBFG@cg_tracerwidth?$AA@ 30056a64     cg_main.obj
 0002:0000aa74       ??_C@_0BA@DJBDPKKA@cg_tracerchance?$AA@ 30056a74     cg_main.obj
 0002:0000aa84       ??_C@_0N@GHAOKDNB@cg_footsteps?$AA@ 30056a84     cg_main.obj
 0002:0000aa94       ??_C@_0M@DOMGGLDE@cg_showmiss?$AA@ 30056a94     cg_main.obj
 0002:0000aaa0       ??_C@_0BB@HOMHKKFN@cg_noplayeranims?$AA@ 30056aa0     cg_main.obj
 0002:0000aab4       ??_C@_0N@BMAKLHMK@cg_nopredict?$AA@ 30056ab4     cg_main.obj
 0002:0000aac4       ??_C@_0O@MAANEMBM@cg_errordecay?$AA@ 30056ac4     cg_main.obj
 0002:0000aad4       ??_C@_0P@NKGOJNHN@cg_debugevents?$AA@ 30056ad4     cg_main.obj
 0002:0000aae4       ??_C@_0BB@PNGPLJB@cg_debugposition?$AA@ 30056ae4     cg_main.obj
 0002:0000aaf8       ??_C@_0O@HLOFHCH@cg_debugsaber?$AA@ 30056af8     cg_main.obj
 0002:0000ab08       ??_C@_0N@OLFHJPEJ@cg_debuganim?$AA@ 30056b08     cg_main.obj
 0002:0000ab18       ??_C@_0N@EMGODPLM@cg_animspeed?$AA@ 30056b18     cg_main.obj
 0002:0000ab28       ??_C@_0L@BEAFIAK@cg_bobroll?$AA@ 30056b28     cg_main.obj
 0002:0000ab34       ??_C@_0M@BBIJCEAP@cg_bobpitch?$AA@ 30056b34     cg_main.obj
 0002:0000ab40       ??_C@_08MBNPMEME@cg_bobup?$AA@ 30056b40     cg_main.obj
 0002:0000ab4c       ??_C@_05ECMHBHBD@0?4005?$AA@ 30056b4c     cg_main.obj
 0002:0000ab54       ??_C@_0L@MJJHGKNK@cg_runroll?$AA@ 30056b54     cg_main.obj
 0002:0000ab60       ??_C@_05NIGIBNE@0?4002?$AA@ 30056b60     cg_main.obj
 0002:0000ab68       ??_C@_0M@JHJCCBOJ@cg_runpitch?$AA@ 30056b68     cg_main.obj
 0002:0000ab74       ??_C@_01EKENIIDA@3?$AA@    30056b74     cg_main.obj
 0002:0000ab78       ??_C@_0O@CMEJDJHP@cg_centertime?$AA@ 30056b78     cg_main.obj
 0002:0000ab88       ??_C@_07CJOOHIA@cg_gunZ?$AA@ 30056b88     cg_main.obj
 0002:0000ab90       ??_C@_07CJLDLEED@cg_gunY?$AA@ 30056b90     cg_main.obj
 0002:0000ab98       ??_C@_07DAKIIFAC@cg_gunX?$AA@ 30056b98     cg_main.obj
 0002:0000aba0       ??_C@_0N@IBNNIGPC@cg_lagometer?$AA@ 30056ba0     cg_main.obj
 0002:0000abb0       ??_C@_08OCDFECFG@cg_marks?$AA@ 30056bb0     cg_main.obj
 0002:0000abbc       ??_C@_0P@CCFIBNOJ@cg_simpleItems?$AA@ 30056bbc     cg_main.obj
 0002:0000abcc       ??_C@_0O@JOEPLDPN@cg_crosshairY?$AA@ 30056bcc     cg_main.obj
 0002:0000abdc       ??_C@_0O@IHFEICLM@cg_crosshairX?$AA@ 30056bdc     cg_main.obj
 0002:0000abec       ??_C@_0BD@JJIJCGAH@cg_crosshairHealth?$AA@ 30056bec     cg_main.obj
 0002:0000ac00       ??_C@_02JMHLOEOE@24?$AA@   30056c00     cg_main.obj
 0002:0000ac04       ??_C@_0BB@NJOFJDCL@cg_crosshairSize?$AA@ 30056c04     cg_main.obj
 0002:0000ac18       ??_C@_0P@GNHKLMJL@cg_drawRewards?$AA@ 30056c18     cg_main.obj
 0002:0000ac28       ??_C@_0BE@DIOLLFIC@cg_dynamicCrosshair?$AA@ 30056c28     cg_main.obj
 0002:0000ac3c       ??_C@_0O@BAKMKNGL@cg_drawScores?$AA@ 30056c3c     cg_main.obj
 0002:0000ac4c       ??_C@_0BG@PFLNOEEN@cg_drawCrosshairNames?$AA@ 30056c4c     cg_main.obj
 0002:0000ac64       ??_C@_0BB@KBADOJHA@cg_drawCrosshair?$AA@ 30056c64     cg_main.obj
 0002:0000ac78       ??_C@_0BB@LBKBMNKM@cg_drawEnemyInfo?$AA@ 30056c78     cg_main.obj
 0002:0000ac8c       ??_C@_0BD@FJPGADGN@cg_drawAmmoWarning?$AA@ 30056c8c     cg_main.obj
 0002:0000aca0       ??_C@_0N@BEDCNPCC@cg_drawIcons?$AA@ 30056ca0     cg_main.obj
 0002:0000acb0       ??_C@_0P@DMBICICD@cg_draw3dIcons?$AA@ 30056cb0     cg_main.obj
 0002:0000acc0       ??_C@_0BA@MIPMDAEB@cg_drawSnapshot?$AA@ 30056cc0     cg_main.obj
 0002:0000acd0       ??_C@_0L@CHMHIHCB@cg_drawFPS?$AA@ 30056cd0     cg_main.obj
 0002:0000acdc       ??_C@_0N@FOINMAON@cg_drawTimer?$AA@ 30056cdc     cg_main.obj
 0002:0000acec       ??_C@_0O@IIACNNIF@cg_drawStatus?$AA@ 30056cec     cg_main.obj
 0002:0000acfc       ??_C@_09EKPCJMOG@cg_draw2D?$AA@ 30056cfc     cg_main.obj
 0002:0000ad08       ??_C@_0L@MAOLAFLC@cg_shadows?$AA@ 30056d08     cg_main.obj
 0002:0000ad14       ??_C@_03KHGJEAFP@0?44?$AA@ 30056d14     cg_main.obj
 0002:0000ad18       ??_C@_0BE@EMBJACLB@cg_stereoSeparation?$AA@ 30056d18     cg_main.obj
 0002:0000ad2c       ??_C@_02PFIAKEDG@80?$AA@   30056d2c     cg_main.obj
 0002:0000ad30       ??_C@_06FDNMOLLD@cg_fov?$AA@ 30056d30     cg_main.obj
 0002:0000ad38       ??_C@_04HAMCLDBM@40?40?$AA@ 30056d38     cg_main.obj
 0002:0000ad40       ??_C@_0L@DPFDGKBB@cg_zoomfov?$AA@ 30056d40     cg_main.obj
 0002:0000ad4c       ??_C@_0L@MLBFCMPB@cg_drawGun?$AA@ 30056d4c     cg_main.obj
 0002:0000ad58       ??_C@_0O@JKEEFDLF@cg_autoswitch?$AA@ 30056d58     cg_main.obj
 0002:0000ad68       ??_C@_09JDMGBOIM@cg_ignore?$AA@ 30056d68     cg_main.obj
 0002:0000ad74       ??_C@_0BK@FEFIMOAO@gfx?1mp?1f_icon_saber_throw?$AA@ 30056d74     cg_main.obj
 0002:0000ad90       ??_C@_0BL@NEBHBNKD@gfx?1mp?1f_icon_saber_defend?$AA@ 30056d90     cg_main.obj
 0002:0000adac       ??_C@_0BL@FEKHDPBD@gfx?1mp?1f_icon_saber_attack?$AA@ 30056dac     cg_main.obj
 0002:0000adc8       ??_C@_0BE@IDOBHAPF@gfx?1mp?1f_icon_sight?$AA@ 30056dc8     cg_main.obj
 0002:0000addc       ??_C@_0BH@JNFFMKGL@gfx?1mp?1f_icon_dk_drain?$AA@ 30056ddc     cg_main.obj
 0002:0000adf4       ??_C@_0BM@INELODPO@gfx?1mp?1f_icon_dk_forceother?$AA@ 30056df4     cg_main.obj
 0002:0000ae10       ??_C@_0BL@PHMODMPE@gfx?1mp?1f_icon_lt_healother?$AA@ 30056e10     cg_main.obj
 0002:0000ae2c       ??_C@_0BI@JGABMFHN@gfx?1mp?1f_icon_lt_absorb?$AA@ 30056e2c     cg_main.obj
 0002:0000ae44       ??_C@_0BJ@BNJGHMKP@gfx?1mp?1f_icon_lt_protect?$AA@ 30056e44     cg_main.obj
 0002:0000ae60       ??_C@_0BG@CIIDCBDH@gfx?1mp?1f_icon_dk_rage?$AA@ 30056e60     cg_main.obj
 0002:0000ae78       ??_C@_0BE@FIGKNCGE@gfx?1mp?1f_icon_dk_l1?$AA@ 30056e78     cg_main.obj
 0002:0000ae8c       ??_C@_0BG@PPAEAKKK@gfx?1mp?1f_icon_dk_grip?$AA@ 30056e8c     cg_main.obj
 0002:0000aea4       ??_C@_0BL@GPKCAHJD@gfx?1mp?1f_icon_lt_telepathy?$AA@ 30056ea4     cg_main.obj
 0002:0000aec0       ??_C@_0BD@FAMLDPCA@gfx?1mp?1f_icon_pull?$AA@ 30056ec0     cg_main.obj
 0002:0000aed4       ??_C@_0BD@CDNNBOGJ@gfx?1mp?1f_icon_push?$AA@ 30056ed4     cg_main.obj
 0002:0000aee8       ??_C@_0BE@GACMMIP@gfx?1mp?1f_icon_speed?$AA@ 30056ee8     cg_main.obj
 0002:0000aefc       ??_C@_0BJ@DCGHGAMM@gfx?1mp?1f_icon_levitation?$AA@ 30056efc     cg_main.obj
 0002:0000af18       ??_C@_0BG@BKINAJCK@gfx?1mp?1f_icon_lt_heal?$AA@ 30056f18     cg_main.obj
 0002:0000af30       ??_C@_0BH@MDOIMJCC@ui_about_botminplayers?$AA@ 30056f30     cg_main.obj
 0002:0000af48       ??_C@_0BC@IKMCDPFG@ui_about_needpass?$AA@ 30056f48     cg_main.obj
 0002:0000af5c       ??_C@_0BC@LKDAODDF@ui_about_hostname?$AA@ 30056f5c     cg_main.obj
 0002:0000af70       ??_C@_0BB@PALGEOKN@ui_about_mapname?$AA@ 30056f70     cg_main.obj
 0002:0000af84       ??_C@_0BB@JGBJLNBF@ui_about_dmflags?$AA@ 30056f84     cg_main.obj
 0002:0000af98       ??_C@_0BE@MLNAEEGH@ui_about_maxclients?$AA@ 30056f98     cg_main.obj
 0002:0000afac       ??_C@_0BD@IPOIPHBD@ui_about_timelimit?$AA@ 30056fac     cg_main.obj
 0002:0000afc0       ??_C@_0BD@KEMPJJPI@ui_about_duellimit?$AA@ 30056fc0     cg_main.obj
 0002:0000afd4       ??_C@_0BG@JGMDIDMD@ui_about_capturelimit?$AA@ 30056fd4     cg_main.obj
 0002:0000afec       ??_C@_0BD@ECBGHOAM@ui_about_fraglimit?$AA@ 30056fec     cg_main.obj
 0002:0000b000       ??_C@_0BC@CEGLMIAL@ui_about_gametype?$AA@ 30057000     cg_main.obj
 0002:0000b014       ??_C@_0M@IOJHBENM@forcepowers?$AA@ 30057014     cg_main.obj
 0002:0000b020       ??_C@_0BH@JHFKKJAL@5?91?9000000000000000000?$AA@ 30057020     cg_main.obj
 0002:0000b038       ??_C@_0L@KEDOKIKJ@team_model?$AA@ 30057038     cg_main.obj
 0002:0000b044       ??_C@_05NCCFOPHA@model?$AA@ 30057044     cg_main.obj
 0002:0000b04c       ??_C@_04JIEPAMAO@kyle?$AA@ 3005704c     cg_main.obj
 0002:0000b054       ??_C@_0CJ@CMOPAMCG@PrecacheItem?3?5?$CFs?5has?5bad?5precach@ 30057054     cg_main.obj
 0002:0000b080       ??_C@_03BICDMHKB@wav?$AA@  30057080     cg_main.obj
 0002:0000b084       ??_C@_05ONEOBAM@?$CFs_?$CFs?$AA@ 30057084     cg_main.obj
 0002:0000b08c       ??_C@_07DNFNGBFM@?$CFs?5?5?5?5?5?$AA@ 3005708c     cg_main.obj
 0002:0000b094       ??_C@_0BP@KAAOENNK@CG_ConfigString?3?5bad?5index?3?5?$CFi?$AA@ 30057094     cg_main.obj
 0002:0000b0b4       ??_C@_0L@JDDHILPC@fadeAmount?$AA@ 300570b4     cg_main.obj
 0002:0000b0c0       ??_C@_09LGBLEGN@fadeCycle?$AA@ 300570c0     cg_main.obj
 0002:0000b0cc       ??_C@_09DPBPOIDH@fadeClamp?$AA@ 300570cc     cg_main.obj
 0002:0000b0d8       ??_C@_04EFPADHIC@font?$AA@ 300570d8     cg_main.obj
 0002:0000b0e0       ??_C@_01CELHOKLL@?$HN?$AA@ 300570e0     cg_main.obj
 0002:0000b0e4       ??_C@_01HCONENDN@?$HL?$AA@ 300570e4     cg_main.obj
 0002:0000b0e8       ??_C@_0L@FJAFPCBC@connecting?$AA@ 300570e8     cg_main.obj
 0002:0000b0f4       ??_C@_03NOAKOCEN@?$CF4i?$AA@ 300570f4     cg_main.obj
 0002:0000b0f8       ??_C@_06PKACINHD@Leader?$AA@ 300570f8     cg_main.obj
 0002:0000b100       ??_C@_09BCJOCADI@Spectator?$AA@ 30057100     cg_main.obj
 0002:0000b10c       ??_C@_0BF@IMFGDGLA@menu?1new?1sliderthumb?$AA@ 3005710c     cg_main.obj
 0002:0000b124       ??_C@_0BA@IIPDBPAH@menu?1new?1slider?$AA@ 30057124     cg_main.obj
 0002:0000b134       ??_C@_0BO@OGCKOCFI@gfx?1menus?1scrollbar_thumb?4tga?$AA@ 30057134     cg_main.obj
 0002:0000b154       ??_C@_0CE@EBDHDKAC@gfx?1menus?1scrollbar_arrow_right?4@ 30057154     cg_main.obj
 0002:0000b178       ??_C@_0CD@HGBCPEJO@gfx?1menus?1scrollbar_arrow_left?4t@ 30057178     cg_main.obj
 0002:0000b19c       ??_C@_0CD@CMMKEMFC@gfx?1menus?1scrollbar_arrow_up_a?4t@ 3005719c     cg_main.obj
 0002:0000b1c0       ??_C@_0CE@COBFEBJB@gfx?1menus?1scrollbar_arrow_dwn_a?4@ 300571c0     cg_main.obj
 0002:0000b1e4       ??_C@_0BI@FDOMFDJL@gfx?1menus?1scrollbar?4tga?$AA@ 300571e4     cg_main.obj
 0002:0000b1fc       ??_C@_0BC@GAPGDHHF@menu?1art?1fx_white?$AA@ 300571fc     cg_main.obj
 0002:0000b210       ??_C@_0BB@LIJKJPJD@menu?1art?1fx_cyan?$AA@ 30057210     cg_main.obj
 0002:0000b224       ??_C@_0BB@BKOGMDOJ@menu?1art?1fx_blue?$AA@ 30057224     cg_main.obj
 0002:0000b238       ??_C@_0BB@ECKDFOKE@menu?1art?1fx_teal?$AA@ 30057238     cg_main.obj
 0002:0000b24c       ??_C@_0BA@IJJPLEBB@menu?1art?1fx_grn?$AA@ 3005724c     cg_main.obj
 0002:0000b25c       ??_C@_0BA@BCAGEDMK@menu?1art?1fx_yel?$AA@ 3005725c     cg_main.obj
 0002:0000b26c       ??_C@_0BA@NNOEOMD@menu?1art?1fx_red?$AA@ 3005726c     cg_main.obj
 0002:0000b27c       ??_C@_0BB@OMABGHIG@menu?1art?1fx_base?$AA@ 3005727c     cg_main.obj
 0002:0000b290       ??_C@_0BL@LDKEDAHM@ui?1assets?1gradientbar2?4tga?$AA@ 30057290     cg_main.obj
 0002:0000b2ac       ??_C@_0CB@HMNONCBC@sound?1chars?1mothma?1misc?140MOM010@ 300572ac     cg_main.obj
 0002:0000b2d0       ??_C@_0CB@CLEGBPKD@sound?1chars?1mothma?1misc?140MOM006@ 300572d0     cg_main.obj
 0002:0000b2f4       ??_C@_0BK@FFKIOHJN@sound?1items?1use_bacta?4wav?$AA@ 300572f4     cg_main.obj
 0002:0000b310       ??_C@_0BN@KKOEBMCN@sound?1chars?1seeker?1misc?1hiss?$AA@ 30057310     cg_main.obj
 0002:0000b330       ??_C@_0CC@LNDAOHOB@sound?1player?1footsteps?1step?$CFi?4wa@ 30057330     cg_main.obj
 0002:0000b354       ??_C@_0CD@CPOICIJI@sound?1player?1footsteps?1clank?$CFi?4w@ 30057354     cg_main.obj
 0002:0000b378       ??_C@_0CE@GNHKDPID@sound?1player?1footsteps?1splash?$CFi?4@ 30057378     cg_main.obj
 0002:0000b39c       ??_C@_0CC@BMGCACJB@sound?1player?1footsteps?1boot?$CFi?4wa@ 3005739c     cg_main.obj
 0002:0000b3c0       ??_C@_0BM@LGCAPPLD@sound?1interface?1zoomend?4wav?$AA@ 300573c0     cg_main.obj
 0002:0000b3dc       ??_C@_0BN@CGCJIHAN@sound?1interface?1zoomloop?4wav?$AA@ 300573dc     cg_main.obj
 0002:0000b3fc       ??_C@_0BO@IJNKLFAF@sound?1interface?1zoomstart?4wav?$AA@ 300573fc     cg_main.obj
 0002:0000b41c       ??_C@_0BK@PNDKAKFC@sound?1player?1holocron?4wav?$AA@ 3005741c     cg_main.obj
 0002:0000b438       ??_C@_0BM@DLLLNEPJ@gfx?1effects?1solidWhite_cull?$AA@ 30057438     cg_main.obj
 0002:0000b454       ??_C@_0BB@HDBIPJEB@gfx?1effects?1burn?$AA@ 30057454     cg_main.obj
 0002:0000b468       ??_C@_0BB@LJELJCEE@surfaceExplosion?$AA@ 30057468     cg_main.obj
 0002:0000b47c       ??_C@_0CB@JPBIOOOD@models?1map_objects?1mp?1sphere?4md3@ 3005747c     cg_main.obj
 0002:0000b4a0       ??_C@_0BJ@ILNOCJIO@sound?1player?1watr_un?4wav?$AA@ 300574a0     cg_main.obj
 0002:0000b4bc       ??_C@_0BK@PEBHADE@sound?1player?1watr_out?4wav?$AA@ 300574bc     cg_main.obj
 0002:0000b4d8       ??_C@_0BJ@CLKANPDE@sound?1player?1watr_in?4wav?$AA@ 300574d8     cg_main.obj
 0002:0000b4f4       ??_C@_0BH@JPPKHAKF@sound?1player?1roll1?4wav?$AA@ 300574f4     cg_main.obj
 0002:0000b50c       ??_C@_0CB@EJOBBIEM@sound?1chars?1mothma?1misc?140MOM052@ 3005750c     cg_main.obj
 0002:0000b530       ??_C@_0CB@GCMMELIP@sound?1chars?1mothma?1misc?140MOM051@ 30057530     cg_main.obj
 0002:0000b554       ??_C@_0CB@HLPMFIDJ@sound?1effects?1energy_crackle?4wav@ 30057554     cg_main.obj
 0002:0000b578       ??_C@_0BL@NBPAAOGK@sound?1player?1fallsplat?4wav?$AA@ 30057578     cg_main.obj
 0002:0000b594       ??_C@_0BH@BPJFFDHG@sound?1player?1land1?4wav?$AA@ 30057594     cg_main.obj
 0002:0000b5ac       ??_C@_0BG@MOPKJEGA@sound?1player?1talk?4wav?$AA@ 300575ac     cg_main.obj
 0002:0000b5c4       ??_C@_0BJ@LOHBFELN@sound?1items?1respawn1?4wav?$AA@ 300575c4     cg_main.obj
 0002:0000b5e0       ??_C@_0BJ@JHMBBENI@sound?1player?1teleout?4wav?$AA@ 300575e0     cg_main.obj
 0002:0000b5fc       ??_C@_0BI@HJOEIPHG@sound?1player?1telein?4wav?$AA@ 300575fc     cg_main.obj
 0002:0000b614       ??_C@_0BJ@EFMFEOAN@sound?1weapons?1change?4wav?$AA@ 30057614     cg_main.obj
 0002:0000b630       ??_C@_0BD@PKCEDEMI@music?1badsmall?4mp3?$AA@ 30057630     cg_main.obj
 0002:0000b644       ??_C@_0BE@CAAOHOKG@music?1goodsmall?4mp3?$AA@ 30057644     cg_main.obj
 0002:0000b658       ??_C@_0CA@IFIECLL@sound?1weapons?1force?1drained?4mp3?$AA@ 30057658     cg_main.obj
 0002:0000b678       ??_C@_0CB@DFFEIGDO@sound?1chars?1mothma?1misc?140MOM047@ 30057678     cg_main.obj
 0002:0000b69c       ??_C@_0CB@LCMMJKPB@sound?1chars?1mothma?1misc?140MOM048@ 3005769c     cg_main.obj
 0002:0000b6c0       ??_C@_0CB@KLNHKLLA@sound?1chars?1mothma?1misc?140MOM049@ 300576c0     cg_main.obj
 0002:0000b6e4       ??_C@_0CB@HLNHHKMO@sound?1chars?1mothma?1misc?140MOM050@ 300576e4     cg_main.obj
 0002:0000b708       ??_C@_0CB@KOJILNDF@sound?1chars?1mothma?1misc?140MOM039@ 30057708     cg_main.obj
 0002:0000b72c       ??_C@_0CB@HKBFBAPJ@sound?1chars?1mothma?1misc?140MOM040@ 3005772c     cg_main.obj
 0002:0000b750       ??_C@_0CB@GDAOCBLI@sound?1chars?1mothma?1misc?140MOM041@ 30057750     cg_main.obj
 0002:0000b774       ??_C@_0CB@EICDHCHL@sound?1chars?1mothma?1misc?140MOM042@ 30057774     cg_main.obj
 0002:0000b798       ??_C@_0CB@FBDIEDDK@sound?1chars?1mothma?1misc?140MOM043@ 30057798     cg_main.obj
 0002:0000b7bc       ??_C@_0CB@BOHJNFPN@sound?1chars?1mothma?1misc?140MOM044@ 300577bc     cg_main.obj
 0002:0000b7e0       ??_C@_0CB@ENGMGEPO@sound?1chars?1mothma?1misc?140MOM032@ 300577e0     cg_main.obj
 0002:0000b804       ??_C@_0CB@HGCOELM@sound?1chars?1mothma?1misc?140MOM045@ 30057804     cg_main.obj
 0002:0000b828       ??_C@_0CB@CMEPLHHP@sound?1chars?1mothma?1misc?140MOM046@ 30057828     cg_main.obj
 0002:0000b84c       ??_C@_0CC@ONCGEBCD@sound?1weapons?1force?1speedloop?4wa@ 3005784c     cg_main.obj
 0002:0000b870       ??_C@_0BM@ECOPMLLG@sound?1chars?1turret?1move?4wav?$AA@ 30057870     cg_main.obj
 0002:0000b88c       ??_C@_0CA@DICAJEGI@sound?1chars?1turret?1shutdown?4wav?$AA@ 3005788c     cg_main.obj
 0002:0000b8ac       ??_C@_0BP@OJENPHJJ@sound?1chars?1turret?1startup?4wav?$AA@ 300578ac     cg_main.obj
 0002:0000b8cc       ??_C@_0BM@MAPGBELF@sound?1chars?1turret?1ping?4wav?$AA@ 300578cc     cg_main.obj
 0002:0000b8e8       ??_C@_0BK@BIGBMHEG@sound?1ambience?1spark5?4wav?$AA@ 300578e8     cg_main.obj
 0002:0000b904       ??_C@_0CC@DCLLILCD@sound?1movers?1switches?1switch3?4wa@ 30057904     cg_main.obj
 0002:0000b928       ??_C@_0CC@PJOHFIIG@sound?1movers?1switches?1switch2?4wa@ 30057928     cg_main.obj
 0002:0000b94c       ??_C@_0CD@DFAKCMJE@sound?1weapons?1thermal?1bounce?$CFi?4w@ 3005794c     cg_main.obj
 0002:0000b970       ??_C@_0CB@BNBMMAEG@sound?1weapons?1atst?1ATSTfire4?4wav@ 30057970     cg_main.obj
 0002:0000b994       ??_C@_0CB@BJPAPO@sound?1weapons?1atst?1ATSTfire3?4wav@ 30057994     cg_main.obj
 0002:0000b9b8       ??_C@_0CB@MLEFCDFL@sound?1weapons?1atst?1ATSTfire2?4wav@ 300579b8     cg_main.obj
 0002:0000b9dc       ??_C@_0CB@ENNBFBPF@sound?1weapons?1atst?1ATSTfire1?4wav@ 300579dc     cg_main.obj
 0002:0000ba00       ??_C@_0BP@EOAJHDPP@sound?1chars?1atst?1ATSTstep2?4wav?$AA@ 30057a00     cg_main.obj
 0002:0000ba20       ??_C@_0BP@MIJNABFB@sound?1chars?1atst?1ATSTstep1?4wav?$AA@ 30057a20     cg_main.obj
 0002:0000ba40       ??_C@_0BP@IENNIFFN@sound?1chars?1atst?1ATSTstart?4wav?$AA@ 30057a40     cg_main.obj
 0002:0000ba60       ??_C@_0BP@CAKLEGL@sound?1chars?1atst?1ATSTcrash?4wav?$AA@ 30057a60     cg_main.obj
 0002:0000ba80       ??_C@_0BN@KBMIBKKI@sound?1weapons?1force?1push?4wav?$AA@ 30057a80     cg_main.obj
 0002:0000baa0       ??_C@_0BN@KLMPLEJJ@sound?1weapons?1force?1pull?4wav?$AA@ 30057aa0     cg_main.obj
 0002:0000bac0       ??_C@_0CF@GAOMGDBJ@sound?1weapons?1force?1distractstop@ 30057ac0     cg_main.obj
 0002:0000bae8       ??_C@_0CB@DHCOJIOI@sound?1weapons?1force?1distract?4wav@ 30057ae8     cg_main.obj
 0002:0000bb0c       ??_C@_0CC@IDPNPIJB@sound?1weapons?1force?1jumpbuild?4wa@ 30057b0c     cg_main.obj
 0002:0000bb30       ??_C@_0BO@CFEEFGGJ@sound?1weapons?1force?1drain?4wav?$AA@ 30057b30     cg_main.obj
 0002:0000bb50       ??_C@_0CF@CGIODCNG@sound?1weapons?1force?1lightninghit@ 30057b50     cg_main.obj
 0002:0000bb78       ??_C@_0CC@LOKOCPGN@sound?1weapons?1force?1lightning?4wa@ 30057b78     cg_main.obj
 0002:0000bb9c       ??_C@_0BN@FIMAKGPM@sound?1weapons?1force?1rage?4wav?$AA@ 30057b9c     cg_main.obj
 0002:0000bbbc       ??_C@_0BM@OAKPMOJG@sound?1weapons?1force?1see?4wav?$AA@ 30057bbc     cg_main.obj
 0002:0000bbd8       ??_C@_0BO@CMLBKDJG@sound?1weapons?1force?1speed?4wav?$AA@ 30057bd8     cg_main.obj
 0002:0000bbf8       ??_C@_0BN@KBLLAEBL@sound?1weapons?1force?1heal?4wav?$AA@ 30057bf8     cg_main.obj
 0002:0000bc18       ??_C@_0CC@NGHLBFEO@sound?1weapons?1force?1teamforce?4wa@ 30057c18     cg_main.obj
 0002:0000bc3c       ??_C@_0CB@GOLMPDFB@sound?1weapons?1force?1teamheal?4wav@ 30057c3c     cg_main.obj
 0002:0000bc60       ??_C@_0CC@CMNFPBBJ@sound?1weapons?1saber?1saberhitwall@ 30057c60     cg_main.obj
 0002:0000bc84       ??_C@_0CC@DFMOMAFI@sound?1weapons?1saber?1saberhitwall@ 30057c84     cg_main.obj
 0002:0000bca8       ??_C@_0CC@BOODJDJL@sound?1weapons?1saber?1saberhitwall@ 30057ca8     cg_main.obj
 0002:0000bccc       ??_C@_0CG@LENDFJGC@sound?1weapons?1saber?1saberoffquic@ 30057ccc     cg_main.obj
 0002:0000bcf4       ??_C@_0CC@PEOLNCAE@sound?1weapons?1saber?1saberhum1?4wa@ 30057cf4     cg_main.obj
 0002:0000bd18       ??_C@_0CB@KIOLPEIM@sound?1weapons?1saber?1bounce?$CFi?4wav@ 30057d18     cg_main.obj
 0002:0000bd3c       ??_C@_0CF@BDJNEKJF@sound?1weapons?1saber?1saberblock?$CFi@ 30057d3c     cg_main.obj
 0002:0000bd64       ??_C@_0BG@BOFAMPFG@gfx?1effects?1forcePush?$AA@ 30057d64     cg_main.obj
 0002:0000bd7c       ??_C@_0BM@EGCEFOFI@gfx?1effects?1saberDamageGlow?$AA@ 30057d7c     cg_main.obj
 0002:0000bd98       ??_C@_0BI@MCAJLALH@powerups?1ysalimarishell?$AA@ 30057d98     cg_main.obj
 0002:0000bdb0       ??_C@_0BF@DJENGLFO@gfx?1damage?1rivetmark?$AA@ 30057db0     cg_main.obj
 0002:0000bdc8       ??_C@_0BI@JJNNJHJD@gfx?1effects?1yellow_glow?$AA@ 30057dc8     cg_main.obj
 0002:0000bde0       ??_C@_0BN@NGIAMIEK@gfx?1effects?1sabers?1saberBlur?$AA@ 30057de0     cg_main.obj
 0002:0000be00       ??_C@_0BP@GGIPNFEP@gfx?1effects?1sabers?1purple_line?$AA@ 30057e00     cg_main.obj
 0002:0000be20       ??_C@_0BP@FPLHAOII@gfx?1effects?1sabers?1purple_glow?$AA@ 30057e20     cg_main.obj
 0002:0000be40       ??_C@_0BN@HODAECEB@gfx?1effects?1sabers?1blue_line?$AA@ 30057e40     cg_main.obj
 0002:0000be60       ??_C@_0BN@EHAIJJIG@gfx?1effects?1sabers?1blue_glow?$AA@ 30057e60     cg_main.obj
 0002:0000be80       ??_C@_0BO@CIEHACAD@gfx?1effects?1sabers?1green_line?$AA@ 30057e80     cg_main.obj
 0002:0000bea0       ??_C@_0BO@BBHPNJME@gfx?1effects?1sabers?1green_glow?$AA@ 30057ea0     cg_main.obj
 0002:0000bec0       ??_C@_0BP@FIINKBCP@gfx?1effects?1sabers?1yellow_line?$AA@ 30057ec0     cg_main.obj
 0002:0000bee0       ??_C@_0BP@GBLFHKOI@gfx?1effects?1sabers?1yellow_glow?$AA@ 30057ee0     cg_main.obj
 0002:0000bf00       ??_C@_0BP@MEMJANBP@gfx?1effects?1sabers?1orange_line?$AA@ 30057f00     cg_main.obj
 0002:0000bf20       ??_C@_0BP@PNPBNGNI@gfx?1effects?1sabers?1orange_glow?$AA@ 30057f20     cg_main.obj
 0002:0000bf40       ??_C@_0BM@FMMFHOBL@gfx?1effects?1sabers?1red_line?$AA@ 30057f40     cg_main.obj
 0002:0000bf5c       ??_C@_0BM@GFPNKFNM@gfx?1effects?1sabers?1red_glow?$AA@ 30057f5c     cg_main.obj
 0002:0000bf78       ??_C@_0CB@LHIDIMHE@sound?1chars?1mothma?1misc?140MOM038@ 30057f78     cg_main.obj
 0002:0000bf9c       ??_C@_0CB@DABLJALL@sound?1chars?1mothma?1misc?140MOM037@ 30057f9c     cg_main.obj
 0002:0000bfc0       ??_C@_0CB@CJAAKBPK@sound?1chars?1mothma?1misc?140MOM036@ 30057fc0     cg_main.obj
 0002:0000bfe4       ??_C@_0CB@CCNPCDJ@sound?1chars?1mothma?1misc?140MOM035@ 30057fe4     cg_main.obj
 0002:0000c008       ??_C@_0CB@FGDBOLOG@sound?1chars?1mothma?1misc?140MOM003@ 30058008     cg_main.obj
 0002:0000c02c       ??_C@_0CB@EPCKNKKH@sound?1chars?1mothma?1misc?140MOM002@ 3005802c     cg_main.obj
 0002:0000c050       ??_C@_0CB@GEAHIJGE@sound?1chars?1mothma?1misc?140MOM001@ 30058050     cg_main.obj
 0002:0000c074       ??_C@_0CB@GLEMGA@sound?1chars?1mothma?1misc?140MOM005@ 30058074     cg_main.obj
 0002:0000c098       ??_C@_0CB@BJHAHNCB@sound?1chars?1mothma?1misc?140MOM004@ 30058098     cg_main.obj
 0002:0000c0bc       ??_C@_0BA@GPIBLNDH@halfShieldShell?$AA@ 300580bc     cg_main.obj
 0002:0000c0cc       ??_C@_0BN@OJIAAIJF@models?1weaphits?1testboom?4md3?$AA@ 300580cc     cg_main.obj
 0002:0000c0ec       ??_C@_0CF@BBPPIJMH@ui?1assets?1statusbar?1flag_missing@ 300580ec     cg_main.obj
 0002:0000c114       ??_C@_0CF@LPJBOID@ui?1assets?1statusbar?1flag_capture@ 30058114     cg_main.obj
 0002:0000c13c       ??_C@_0CF@ENDMFFOH@ui?1assets?1statusbar?1flag_in_base@ 3005813c     cg_main.obj
 0002:0000c164       ??_C@_0BL@LPJJLJJG@ui?1assets?1selectcursor?4tga?$AA@ 30058164     cg_main.obj
 0002:0000c180       ??_C@_0BJ@LEDAGAI@ui?1assets?1sizecursor?4tga?$AA@ 30058180     cg_main.obj
 0002:0000c19c       ??_C@_0BD@CHEDBJDN@menu?1art?13_cursor2?$AA@ 3005819c     cg_main.obj
 0002:0000c1b0       ??_C@_0BP@KGMEFMCF@ui?1assets?1statusbar?1escort?4tga?$AA@ 300581b0     cg_main.obj
 0002:0000c1d0       ??_C@_0CB@LAIMNJFD@ui?1assets?1statusbar?1retrieve?4tga@ 300581d0     cg_main.obj
 0002:0000c1f4       ??_C@_0CE@MMLKAKOP@ui?1assets?1statusbar?1team_leader?4@ 300581f4     cg_main.obj
 0002:0000c218       ??_C@_0BP@DFAFNPOM@ui?1assets?1statusbar?1defend?4tga?$AA@ 30058218     cg_main.obj
 0002:0000c238       ??_C@_0BP@NDBPBMNA@ui?1assets?1statusbar?1follow?4tga?$AA@ 30058238     cg_main.obj
 0002:0000c258       ??_C@_0BN@IFHLAFIM@ui?1assets?1statusbar?1camp?4tga?$AA@ 30058258     cg_main.obj
 0002:0000c278       ??_C@_0CA@BMENIIHA@ui?1assets?1statusbar?1assault?4tga?$AA@ 30058278     cg_main.obj
 0002:0000c298       ??_C@_0BP@JMKNBDMD@ui?1assets?1statusbar?1patrol?4tga?$AA@ 30058298     cg_main.obj
 0002:0000c2b8       ??_C@_05CNBMBDPJ@skins?$AA@ 300582b8     cg_main.obj
 0002:0000c2c0       ??_C@_03JLINDLFM@?$CK?$CFi?$AA@ 300582c0     cg_main.obj
 0002:0000c2c4       ??_C@_0CC@BMBLEHAM@gfx?1mp?1dmgshader_shieldsandhealt@ 300582c4     cg_main.obj
 0002:0000c2e8       ??_C@_0BJ@DBMHLADB@gfx?1mp?1dmgshader_shields?$AA@ 300582e8     cg_main.obj
 0002:0000c304       ??_C@_0BG@HJJFHBCH@gfx?1misc?1borgeyeflare?$AA@ 30058304     cg_main.obj
 0002:0000c31c       ??_C@_09GGOFPAOP@bloodMark?$AA@ 3005831c     cg_main.obj
 0002:0000c328       ??_C@_04KNLNBPHI@wake?$AA@ 30058328     cg_main.obj
 0002:0000c330       ??_C@_0L@KHLAIOEE@markShadow?$AA@ 30058330     cg_main.obj
 0002:0000c33c       ??_C@_0BG@EGMLCGNC@gfx?1damage?1plasma_mrk?$AA@ 3005833c     cg_main.obj
 0002:0000c354       ??_C@_0BH@NJDKADCK@gfx?1damage?1hole_lg_mrk?$AA@ 30058354     cg_main.obj
 0002:0000c36c       ??_C@_0BI@HAJPOEDB@gfx?1damage?1burn_med_mrk?$AA@ 3005836c     cg_main.obj
 0002:0000c384       ??_C@_0BG@FPMKOIGF@gfx?1damage?1bullet_mrk?$AA@ 30058384     cg_main.obj
 0002:0000c39c       ??_C@_0BL@KONNHIGJ@gfx?1misc?1fullbodyelectric2?$AA@ 3005839c     cg_main.obj
 0002:0000c3b8       ??_C@_0BC@KOPBJOAL@gfx?1misc?1electric?$AA@ 300583b8     cg_main.obj
 0002:0000c3cc       ??_C@_0BG@JIBKAJPC@gfx?1misc?1test_crackle?$AA@ 300583cc     cg_main.obj
 0002:0000c3e4       ??_C@_0BL@MMBFBAIB@gfx?12d?1binocularNumOverlay?$AA@ 300583e4     cg_main.obj
 0002:0000c400       ??_C@_0BH@MANIHANO@gfx?12d?1binocularWindow?$AA@ 30058400     cg_main.obj
 0002:0000c418       ??_C@_0BB@JEPLFKJJ@gfx?12d?1binTopTri?$AA@ 30058418     cg_main.obj
 0002:0000c42c       ??_C@_0BE@IIMHDGMO@gfx?12d?1binSideArrow?$AA@ 3005842c     cg_main.obj
 0002:0000c440       ??_C@_0P@LHEFCKJK@gfx?12d?1binMask?$AA@ 30058440     cg_main.obj
 0002:0000c450       ??_C@_0BB@ENOKEJMK@gfx?12d?1binCircle?$AA@ 30058450     cg_main.obj
 0002:0000c464       ??_C@_0BO@PBALHOFA@powerups?1invulnerabilityshell?$AA@ 30058464     cg_main.obj
 0002:0000c484       ??_C@_0BM@CILICBLC@powerups?1enlightenmentshell?$AA@ 30058484     cg_main.obj
 0002:0000c4a0       ??_C@_0BL@JAOFPJCP@powerups?1endarkenmentshell?$AA@ 300584a0     cg_main.obj
 0002:0000c4bc       ??_C@_0BD@FDOCLGBJ@powerups?1boonshell?$AA@ 300584bc     cg_main.obj
 0002:0000c4d0       ??_C@_0BI@PCIGPAA@powerups?1ysaliblueshell?$AA@ 300584d0     cg_main.obj
 0002:0000c4e8       ??_C@_0BH@CBLAHDFN@powerups?1ysaliredshell?$AA@ 300584e8     cg_main.obj
 0002:0000c500       ??_C@_0CH@BGFFCLAG@ui?1assets?1statusbar?1selectedheal@ 30058500     cg_main.obj
 0002:0000c528       ??_C@_0BE@MEJHIMJO@gfx?12d?1colorbar?4tga?$AA@ 30058528     cg_main.obj
 0002:0000c53c       ??_C@_0BC@PBFIMOJD@powerups?1blueflag?$AA@ 3005853c     cg_main.obj
 0002:0000c550       ??_C@_0BC@CPIHIBPP@sprites?1team_blue?$AA@ 30058550     cg_main.obj
 0002:0000c564       ??_C@_0BB@NJDEKCOL@sprites?1team_red?$AA@ 30058564     cg_main.obj
 0002:0000c578       ??_C@_0CJ@PBONGGD@models?1mapobjects?1flagbase?1ntrl_@ 30058578     cg_main.obj
 0002:0000c5a4       ??_C@_0CJ@MEDKOFPD@models?1mapobjects?1flagbase?1blue_@ 300585a4     cg_main.obj
 0002:0000c5d0       ??_C@_0CI@PFOOJNMO@models?1mapobjects?1flagbase?1red_b@ 300585d0     cg_main.obj
 0002:0000c5f8       ??_C@_0BI@CBMNOKHH@models?1flag2?1white?4skin?$AA@ 300585f8     cg_main.obj
 0002:0000c610       ??_C@_0BH@NJLGOKNJ@models?1flag2?1blue?4skin?$AA@ 30058610     cg_main.obj
 0002:0000c628       ??_C@_0BG@MEOIELJK@models?1flag2?1red?4skin?$AA@ 30058628     cg_main.obj
 0002:0000c640       ??_C@_0BL@NNONIMAN@models?1flag2?1flagflap3?4md3?$AA@ 30058640     cg_main.obj
 0002:0000c65c       ??_C@_0BK@NHEDDPHF@models?1flag2?1flagpole?4md3?$AA@ 3005865c     cg_main.obj
 0002:0000c678       ??_C@_0BP@JIAHAICB@models?1map_objects?1mp?1holo?4md3?$AA@ 30058678     cg_main.obj
 0002:0000c698       ??_C@_0BE@JLIPOJOD@powerups?1sightshell?$AA@ 30058698     cg_main.obj
 0002:0000c6ac       ??_C@_0BE@DDKEHNDP@powerups?1forceshell?$AA@ 300586ac     cg_main.obj
 0002:0000c6c0       ??_C@_0BF@NLDNMFFP@gfx?1misc?1sightbubble?$AA@ 300586c0     cg_main.obj
 0002:0000c6d8       ??_C@_0BI@MGAOKANG@gfx?1misc?1personalshield?$AA@ 300586d8     cg_main.obj
 0002:0000c6f0       ??_C@_0BA@PEFPEMDE@powerups?1rezout?$AA@ 300586f0     cg_main.obj
 0002:0000c700       ??_C@_0BF@KCKLAPFP@powerups?1placeholder?$AA@ 30058700     cg_main.obj
 0002:0000c718       ??_C@_0P@IJPLAABH@hasteSmokePuff?$AA@ 30058718     cg_main.obj
 0002:0000c728       ??_C@_0P@NKEDBBDN@powerups?1regen?$AA@ 30058728     cg_main.obj
 0002:0000c738       ??_C@_0BG@BGIMBFCE@powerups?1invisibility?$AA@ 30058738     cg_main.obj
 0002:0000c750       ??_C@_0BG@GANDEAKN@powerups?1battleWeapon?$AA@ 30058750     cg_main.obj
 0002:0000c768       ??_C@_0BE@NKPPFPFJ@powerups?1battleSuit?$AA@ 30058768     cg_main.obj
 0002:0000c77c       ??_C@_0BE@KLLJIGAB@powerups?1quadWeapon?$AA@ 3005877c     cg_main.obj
 0002:0000c790       ??_C@_0O@IDIMMBII@powerups?1quad?$AA@ 30058790     cg_main.obj
 0002:0000c7a0       ??_C@_0N@COAENKOL@icons?1noammo?$AA@ 300587a0     cg_main.obj
 0002:0000c7b0       ??_C@_0BA@PJMLIFEA@gfx?12d?1backtile?$AA@ 300587b0     cg_main.obj
 0002:0000c7c0       ??_C@_0BD@PPPBDMEH@gfx?12d?1crosshair?$CFc?$AA@ 300587c0     cg_main.obj
 0002:0000c7d4       ??_C@_0BM@PFBHLOPA@effects?1force?1lightning?4efx?$AA@ 300587d4     cg_main.obj
 0002:0000c7f0       ??_C@_0BE@CAOKJHCN@force?1confusion?4efx?$AA@ 300587f0     cg_main.obj
 0002:0000c804       ??_C@_0BM@JMLPKHOH@effects?1blaster?1deflect?4efx?$AA@ 30058804     cg_main.obj
 0002:0000c820       ??_C@_0M@DOBEFLEE@turret?1shot?$AA@ 30058820     cg_main.obj
 0002:0000c82c       ??_C@_0DB@GDCPDAII@?$FO5?9?9?9?9?9?5Fx?5System?5Initialization@ 3005882c     cg_main.obj
 0002:0000c860       ??_C@_0DB@MJIBKJFP@?$FO5?9?9?9?9?9?9?9?9?9?9?5Fx?5System?5Initializ@ 30058860     cg_main.obj
 0002:0000c894       ??_C@_0BA@LPLLBJPM@gfx?1misc?1tracer?$AA@ 30058894     cg_main.obj
 0002:0000c8a4       ??_C@_0M@OBGACBNG@waterBubble?$AA@ 300588a4     cg_main.obj
 0002:0000c8b0       ??_C@_0L@GLPNNMED@gfx?12d?1net?$AA@ 300588b0     cg_main.obj
 0002:0000c8bc       ??_C@_0L@KHBCPNIG@gfx?12d?1lag?$AA@ 300588bc     cg_main.obj
 0002:0000c8c8       ??_C@_0L@LLCKKMKM@bloodTrail?$AA@ 300588c8     cg_main.obj
 0002:0000c8d4       ??_C@_09GPGLBPNG@smokePuff?$AA@ 300588d4     cg_main.obj
 0002:0000c8e0       ??_C@_0BB@OIENEINL@gfx?12d?1defer?4tga?$AA@ 300588e0     cg_main.obj
 0002:0000c8f4       ??_C@_0P@IMGKCNMO@viewBloodBlend?$AA@ 300588f4     cg_main.obj
 0002:0000c904       ??_C@_0BB@EPCKOLB@gfx?1mp?1chat_icon?$AA@ 30058904     cg_main.obj
 0002:0000c918       ??_C@_0L@EDDEHNPC@game?5media?$AA@ 30058918     cg_main.obj
 0002:0000c924       ??_C@_0BG@NHAOJEBJ@Clearing?5light?5styles?$AA@ 30058924     cg_main.obj
 0002:0000c93c       ??_C@_07HKJFGNHJ@clients?$AA@ 3005893c     cg_main.obj
 0002:0000c944       ??_C@_08EIINAAAI@graphics?$AA@ 30058944     cg_main.obj
 0002:0000c950       ??_C@_06OHLGPBPO@sounds?$AA@ 30058950     cg_main.obj
 0002:0000c958       ??_C@_0O@IKDCOHPA@collision?5map?$AA@ 30058958     cg_main.obj
 0002:0000c968       ??_C@_0CD@GOCPBDLD@Client?1Server?5game?5mismatch?3?5?$CFs?1@ 30058968     cg_main.obj
 0002:0000c98c       ??_C@_08DLPGHLOG@basejk?91?$AA@ 3005898c     cg_main.obj
 0002:0000c998       __real@3f61111111111111    30058998     cg_main.obj
 0002:0000c9a0       __real@3f5999999999999a    300589a0     cg_main.obj
 0002:0000c9a8       ??_C@_0BM@DNJFLGPD@gfx?1hud?1hudright_innerframe?$AA@ 300589a8     cg_main.obj
 0002:0000c9c4       ??_C@_0BG@JOEJNPHH@gfx?1hud?1hudrightframe?$AA@ 300589c4     cg_main.obj
 0002:0000c9dc       ??_C@_0BL@DHNJMHBG@gfx?1hud?1saber_stylesStrong?$AA@ 300589dc     cg_main.obj
 0002:0000c9f8       ??_C@_0BI@PJBLKMOK@gfx?1hud?1saber_stylesMed?$AA@ 300589f8     cg_main.obj
 0002:0000ca10       ??_C@_0BJ@OKKOLPIL@gfx?1hud?1saber_stylesFast?$AA@ 30058a10     cg_main.obj
 0002:0000ca2c       ??_C@_0BC@NLMFLHJA@gfx?1hud?1armor_tic?$AA@ 30058a2c     cg_main.obj
 0002:0000ca40       ??_C@_0BD@LNKCINK@gfx?1hud?1health_tic?$AA@ 30058a40     cg_main.obj
 0002:0000ca54       ??_C@_0P@BPOOKLOD@gfx?1hud?1health?$AA@ 30058a54     cg_main.obj
 0002:0000ca64       ??_C@_0P@HDJFHJA@gfx?1hud?1armor2?$AA@ 30058a64     cg_main.obj
 0002:0000ca74       ??_C@_0P@CMBEAEFD@gfx?1hud?1armor1?$AA@ 30058a74     cg_main.obj
 0002:0000ca84       ??_C@_0BL@HKOCIPCA@gfx?1hud?1hudleft_innerframe?$AA@ 30058a84     cg_main.obj
 0002:0000caa0       ??_C@_0BE@JLPNIDEI@gfx?1hud?1static_test?$AA@ 30058aa0     cg_main.obj
 0002:0000cab4       ??_C@_0BG@BLLMADBO@gfx?1mp?1f_icon_ragerec?$AA@ 30058ab4     cg_main.obj
 0002:0000cacc       ??_C@_0BD@FLLPIELJ@gfx?1hud?1prong_on_i?$AA@ 30058acc     cg_main.obj
 0002:0000cae0       ??_C@_0BF@CKKKAJDO@gfx?1hud?1background_i?$AA@ 30058ae0     cg_main.obj
 0002:0000caf8       ??_C@_0BF@KNDCBFPB@gfx?1hud?1background_f?$AA@ 30058af8     cg_main.obj
 0002:0000cb10       ??_C@_0BD@NMCHJIHG@gfx?1hud?1prong_on_f?$AA@ 30058b10     cg_main.obj
 0002:0000cb24       ??_C@_0BC@FFNDKBEB@gfx?1hud?1prong_off?$AA@ 30058b24     cg_main.obj
 0002:0000cb38       ??_C@_0BD@IPPOLLGG@gfx?1hud?1prong_on_w?$AA@ 30058b38     cg_main.obj
 0002:0000cb4c       ??_C@_0BD@GDEFAJLE@gfx?1hud?1background?$AA@ 30058b4c     cg_main.obj
 0002:0000cb60       ??_C@_0BK@LNEHHGCF@gfx?1hud?1w_icon_detpack_na?$AA@ 30058b60     cg_main.obj
 0002:0000cb7c       ??_C@_0BL@GFJCFMFH@gfx?1hud?1w_icon_tripmine_na?$AA@ 30058b7c     cg_main.obj
 0002:0000cb98       ??_C@_0BK@CHJJHPHO@gfx?1hud?1w_icon_thermal_na?$AA@ 30058b98     cg_main.obj
 0002:0000cbb4       ??_C@_0BL@PPGHCPNJ@gfx?1hud?1w_icon_merrsonn_na?$AA@ 30058bb4     cg_main.obj
 0002:0000cbd0       ??_C@_0BM@MADLLDNC@gfx?1hud?1w_icon_flechette_na?$AA@ 30058bd0     cg_main.obj
 0002:0000cbec       ??_C@_0BI@FBAICNKJ@gfx?1hud?1w_icon_demp2_na?$AA@ 30058bec     cg_main.obj
 0002:0000cc04       ??_C@_0BL@NJCPNGPD@gfx?1hud?1w_icon_repeater_na?$AA@ 30058c04     cg_main.obj
 0002:0000cc20       ??_C@_0BM@INLLGCOF@gfx?1hud?1w_icon_bowcaster_na?$AA@ 30058c20     cg_main.obj
 0002:0000cc3c       ??_C@_0BM@GEOOLGHE@gfx?1hud?1w_icon_disruptor_na?$AA@ 30058c3c     cg_main.obj
 0002:0000cc58       ??_C@_0BK@EPHADCPG@gfx?1hud?1w_icon_blaster_na?$AA@ 30058c58     cg_main.obj
 0002:0000cc74       ??_C@_0BI@DAFKMBHF@gfx?1hud?1w_icon_briar_na?$AA@ 30058c74     cg_main.obj
 0002:0000cc8c       ??_C@_0BF@HJCHFBMO@gfx?1hud?1w_icon_briar?$AA@ 30058c8c     cg_main.obj
 0002:0000cca4       ??_C@_0BN@LMHOFNJE@gfx?1hud?1w_icon_lightsaber_na?$AA@ 30058ca4     cg_main.obj
 0002:0000ccc4       ??_C@_0BM@DHKKDFEP@gfx?1hud?1w_icon_stunbaton_na?$AA@ 30058cc4     cg_main.obj
 0002:0000cce0       ??_C@_0BF@EGEEPHON@gfx?1hud?1mp_levelload?$AA@ 30058ce0     cg_main.obj
 0002:0000ccf8       ??_C@_0BG@FIEHOIIN@gfx?1hud?1load_tick_cap?$AA@ 30058cf8     cg_main.obj
 0002:0000cd10       ??_C@_0BC@EMACFANC@gfx?1hud?1load_tick?$AA@ 30058d10     cg_main.obj
 0002:0000cd24       ??_C@_05PMAELIEO@white?$AA@ 30058d24     cg_main.obj
 0002:0000cd2c       ??_C@_0BF@NCICKGDM@gfx?12d?1charsgrid_med?$AA@ 30058d2c     cg_main.obj
 0002:0000cd44       ??_C@_06LFGMJCKO@ergoec?$AA@ 30058d44     cg_main.obj
 0002:0000cd4c       ??_C@_05LDDNLFDC@ocr_a?$AA@ 30058d4c     cg_main.obj
 0002:0000cd54       ??_C@_0BL@MDCOCEP@vmMain?3?5unknown?5command?5?$CFi?$AA@ 30058d54     cg_main.obj
 0002:0000cd70       ??_C@_08MEIODECE@explode1?$AA@ 30058d70     cg_marks.obj
 0002:0000cd80       __real@407c200000000000    30058d80     cg_marks.obj
 0002:0000cd88       __real@3f35d867c3ece2a5    30058d88     cg_marks.obj
 0002:0000cd90       ??_C@_04MDMPPDAB@?$CFs?$CFi?$AA@ 30058d90     cg_marks.obj
 0002:0000cd98       __real@44800000            30058d98     cg_marks.obj
 0002:0000cda0       __real@4000000000000000    30058da0     cg_marks.obj
 0002:0000cda8       __real@3bb60b61            30058da8     cg_marks.obj
 0002:0000cdac       __real@40490fdb            30058dac     cg_marks.obj
 0002:0000cdb0       __real@4049000000000000    30058db0     cg_marks.obj
 0002:0000cdb8       __real@c1a00000            30058db8     cg_marks.obj
 0002:0000cdbc       ??_C@_0CG@NBPMFGF@CG_ImpactMark?5called?5with?5?$DM?$DN?50?5r@ 30058dbc     cg_marks.obj
 0002:0000cde4       ??_C@_0N@GKANBNLB@teamtask?5?$CFi?6?$AA@ 30058de4     cg_newDraw.obj
 0002:0000cdf4       ??_C@_0BC@HILCMIJJ@followflagcarrier?$AA@ 30058df4     cg_newDraw.obj
 0002:0000ce08       ??_C@_0L@BCFFODB@returnflag?$AA@ 30058e08     cg_newDraw.obj
 0002:0000ce14       ??_C@_04LOFLEJM@camp?$AA@  30058e14     cg_newDraw.obj
 0002:0000ce1c       ??_C@_0BL@GLABPEEB@?$CLbutton10?$DL?5wait?$DL?5?9button10?$AA@ 30058e1c     cg_newDraw.obj
 0002:0000ce38       ??_C@_0BJ@JIDJAOFM@?$CLbutton9?$DL?5wait?$DL?5?9button9?$AA@ 30058e38     cg_newDraw.obj
 0002:0000ce54       ??_C@_06KPEKKPL@patrol?$AA@ 30058e54     cg_newDraw.obj
 0002:0000ce5c       ??_C@_0BJ@GOHAIJPM@?$CLbutton8?$DL?5wait?$DL?5?9button8?$AA@ 30058e5c     cg_newDraw.obj
 0002:0000ce78       ??_C@_06BMABBLML@defend?$AA@ 30058e78     cg_newDraw.obj
 0002:0000ce80       ??_C@_0BJ@BPJHDBFL@?$CLbutton7?$DL?5wait?$DL?5?9button7?$AA@ 30058e80     cg_newDraw.obj
 0002:0000ce9c       ??_C@_07GBMLDGPP@offense?$AA@ 30058e9c     cg_newDraw.obj
 0002:0000cea4       ??_C@_08LFOMOGKF@Everyone?$AA@ 30058ea4     cg_newDraw.obj
 0002:0000ceb0       ??_C@_0BC@HCNILCAE@cg_selectedPlayer?$AA@ 30058eb0     cg_newDraw.obj
 0002:0000cec4       ??_C@_02DPKJAMEF@?$CFd?$AA@ 30058ec4     cg_newDraw.obj
 0002:0000cec8       ??_C@_0BG@ICIOFDPB@cg_selectedPlayerName?$AA@ 30058ec8     cg_newDraw.obj
 0002:0000cee0       __real@bf800000            30058ee0     cg_newDraw.obj
 0002:0000cee4       ??_C@_08BENANNLH@KILLEDBY?$AA@ 30058ee4     cg_newDraw.obj
 0002:0000cef0       ??_C@_0BJ@NGKAICIK@Blue?5leads?5Red?0?5?$CFi?5to?5?$CFi?$AA@ 30058ef0     cg_newDraw.obj
 0002:0000cf0c       ??_C@_0BJ@IDJIBDHM@Red?5leads?5Blue?0?5?$CFi?5to?5?$CFi?$AA@ 30058f0c     cg_newDraw.obj
 0002:0000cf28       ??_C@_0BF@GPCPNFAF@Teams?5are?5tied?5at?5?$CFi?$AA@ 30058f28     cg_newDraw.obj
 0002:0000cf40       ??_C@_08PPGKHGBD@?$CFs?5?$CFs?5?$CFi?$AA@ 30058f40     cg_newDraw.obj
 0002:0000cf4c       ??_C@_07LFFEFFPB@getMenu?$AA@ 30058f4c     cg_newDraw.obj
 0002:0000cf54       ??_C@_08JIDHMNC@teamMenu?$AA@ 30058f54     cg_newDraw.obj
 0002:0000cf60       ??_C@_02MMOKIBIJ@72?$AA@   30058f60     cg_newDraw.obj
 0002:0000cf64       ??_C@_0M@JAHICMEK@?$CKchoke3?4wav?$AA@ 30058f64     cg_players.obj
 0002:0000cf70       ??_C@_0M@FLCEPPOP@?$CKchoke2?4wav?$AA@ 30058f70     cg_players.obj
 0002:0000cf7c       ??_C@_0M@NNLAINEB@?$CKchoke1?4wav?$AA@ 30058f7c     cg_players.obj
 0002:0000cf88       ??_C@_0O@LBBMLEKM@?$CKfalling1?4wav?$AA@ 30058f88     cg_players.obj
 0002:0000cf98       ??_C@_0M@EADDCLKM@?$CKdeath3?4wav?$AA@ 30058f98     cg_players.obj
 0002:0000cfa4       ??_C@_0M@ILGPPIAJ@?$CKdeath2?4wav?$AA@ 30058fa4     cg_players.obj
 0002:0000cfb0       ??_C@_0M@NPLIKKH@?$CKdeath1?4wav?$AA@ 30058fb0     cg_players.obj
 0002:0000cfbc       ??_C@_0BJ@HBJEEGKP@Unknown?5custom?5sound?3?5?$CFs?$AA@ 30058fbc     cg_players.obj
 0002:0000cfd8       ??_C@_04OBGPFBCN@blue?$AA@ 30058fd8     cg_players.obj
 0002:0000cfe0       ??_C@_03FAAAOPJM@red?$AA@  30058fe0     cg_players.obj
 0002:0000cfe4       ??_C@_0L@EBOJHEEF@default_mp?$AA@ 30058fe4     cg_players.obj
 0002:0000cff0       ??_C@_06OGNICLAA@morgan?$AA@ 30058ff0     cg_players.obj
 0002:0000cff8       ??_C@_05LKGOKJFG@fpls3?$AA@ 30058ff8     cg_players.obj
 0002:0000d000       ??_C@_05KDHFJIBH@fpls2?$AA@ 30059000     cg_players.obj
 0002:0000d008       ??_C@_04BEPDCOC@fpls?$AA@  30059008     cg_players.obj
 0002:0000d010       ??_C@_06PJBLOBOB@surfOn?$AA@ 30059010     cg_players.obj
 0002:0000d018       ??_C@_01IHBHIGKO@?0?$AA@   30059018     cg_players.obj
 0002:0000d01c       ??_C@_07OKEAFEJG@surfOff?$AA@ 3005901c     cg_players.obj
 0002:0000d024       ??_C@_0BC@NFDFKMPA@File?5?$CFs?5too?5long?6?$AA@ 30059024     cg_players.obj
 0002:0000d038       ??_C@_0CA@ILAKKBMK@models?1players?1?$CFs?1model_?$CFs?4surf?$AA@ 30059038     cg_players.obj
 0002:0000d058       ??_C@_0BK@DLHLILP@models?1players?1?$CFs?1icon_?$CFs?$AA@ 30059058     cg_players.obj
 0002:0000d074       ??_C@_07BDFHHHJA@?$CKflash2?$AA@ 30059074     cg_players.obj
 0002:0000d07c       ??_C@_0L@FFNFBBJB@r_clavical?$AA@ 3005907c     cg_players.obj
 0002:0000d088       ??_C@_0L@KJFFPOFM@l_clavical?$AA@ 30059088     cg_players.obj
 0002:0000d094       ??_C@_0L@GJINMDNH@Model_root?$AA@ 30059094     cg_players.obj
 0002:0000d0a0       ??_C@_07DIHKCEFD@?$CKflash1?$AA@ 300590a0     cg_players.obj
 0002:0000d0a8       ??_C@_0EG@ONAEEHHL@Failed?5to?5load?5animation?5file?5mo@ 300590a8     cg_players.obj
 0002:0000d0f0       ??_C@_0DA@JJDBLPFJ@Model?5does?5not?5use?5supported?5ani@ 300590f0     cg_players.obj
 0002:0000d120       ??_C@_0CC@BDJGDBLP@Failed?5to?5load?5animation?5file?5?$CFs@ 30059120     cg_players.obj
 0002:0000d144       ??_C@_09LHLEBJNE@?$CKhead_top?$AA@ 30059144     cg_players.obj
 0002:0000d150       ??_C@_07CKKFCGNI@?$CKl_hand?$AA@ 30059150     cg_players.obj
 0002:0000d158       ??_C@_07BNEEMBEL@?$CKr_hand?$AA@ 30059158     cg_players.obj
 0002:0000d160       ??_C@_0CH@JMNIMDPG@models?1players?1_humanoid?1animati@ 30059160     cg_players.obj
 0002:0000d188       ??_C@_0P@BNFHKDFH@?1animation?4cfg?$AA@ 30059188     cg_players.obj
 0002:0000d198       ??_C@_0BD@IAGLKLFM@players?1_humanoid?1?$AA@ 30059198     cg_players.obj
 0002:0000d1ac       ??_C@_0BM@KNIODCMI@models?1players?1?$CFs?1model?4glm?$AA@ 300591ac     cg_players.obj
 0002:0000d1c8       ??_C@_0CA@ODGGEHPP@models?1players?1?$CFs?1model_?$CFs?4skin?$AA@ 300591c8     cg_players.obj
 0002:0000d1e8       ??_C@_0BO@HAHCPCNM@models?1players?1atst?1model?4glm?$AA@ 300591e8     cg_players.obj
 0002:0000d208       ??_C@_07DLHCIBDH@default?$AA@ 30059208     cg_players.obj
 0002:0000d210       ??_C@_0HD@FIPCLJMA@WARNING?3?5Attempted?5to?5load?5an?5un@ 30059210     cg_players.obj
 0002:0000d284       ??_C@_0BH@HOHPDFNJ@?$CFd?3?5?$CFd?5Anim?3?5?$CFi?0?5?8?$CFs?8?6?$AA@ 30059284     cg_players.obj
 0002:0000d29c       ??_C@_0BJ@OHDPKGG@Bad?5animation?5number?3?5?$CFi?$AA@ 3005929c     cg_players.obj
 0002:0000d2b8       ??_C@_0BF@IBAKKNBL@Clamp?5lf?9?$DOframeTime?6?$AA@ 300592b8     cg_players.obj
 0002:0000d2d0       __real@c2700000            300592d0     cg_players.obj
 0002:0000d2d4       __real@c1200000            300592d4     cg_players.obj
 0002:0000d2d8       __real@c1800000            300592d8     cg_players.obj
 0002:0000d2dc       __real@c25c0000            300592dc     cg_players.obj
 0002:0000d2e0       __real@425c0000            300592e0     cg_players.obj
 0002:0000d2e4       ??_C@_08HPHDBPFM@cervical?$AA@ 300592e4     cg_players.obj
 0002:0000d2f0       __real@c1f00000            300592f0     cg_players.obj
 0002:0000d2f8       __real@3fa999999999999a    300592f8     cg_players.obj
 0002:0000d300       ??_C@_0BK@GAIDHALI@Bad?5player?5movement?5angle?$AA@ 30059300     cg_players.obj
 0002:0000d31c       __real@3b83126f            3005931c     cg_players.obj
 0002:0000d320       __real@409f400000000000    30059320     cg_players.obj
 0002:0000d328       __real@3ff6666666666666    30059328     cg_players.obj
 0002:0000d330       __real@3f59b34ce68019b4    30059330     cg_players.obj
 0002:0000d338       __real@4006666666666666    30059338     cg_players.obj
 0002:0000d340       __real@3fc99999a0000000    30059340     cg_players.obj
 0002:0000d348       __real@3b808081            30059348     cg_players.obj
 0002:0000d34c       __real@42c00000            3005934c     cg_players.obj
 0002:0000d350       __real@43570000            30059350     cg_players.obj
 0002:0000d354       __real@3cf5c28f            30059354     cg_players.obj
 0002:0000d358       __real@3f266666            30059358     cg_players.obj
 0002:0000d35c       __real@3ccccccd            3005935c     cg_players.obj
 0002:0000d360       ??_C@_0CD@MINDHCBN@sound?1weapons?1saber?1saberhitwall@ 30059360     cg_players.obj
 0002:0000d388       __real@4022000000000000    30059388     cg_players.obj
 0002:0000d390       ??_C@_0BO@KEENCNON@models?1players?1kyle?1model?4glm?$AA@ 30059390     cg_players.obj
 0002:0000d3b0       ??_C@_0CF@CBAPLODO@models?1players?1kyle?1model_fpls2?4@ 300593b0     cg_players.obj
 0002:0000d3d8       ??_C@_0BN@FKDGBGEH@?$CFi?5ResetPlayerEntity?5yaw?$DN?$CFi?6?$AA@ 300593d8     cg_players.obj
 0002:0000d3f8       ??_C@_0BL@JMBOPOOA@chars?1mp_generic_male?1misc?$AA@ 300593f8     cg_players.obj
 0002:0000d414       ??_C@_0BH@FNMNDJNM@sound?1chars?1?$CFs?1misc?1?$CFs?$AA@ 30059414     cg_players.obj
 0002:0000d42c       ??_C@_0BN@JCOIBIKF@chars?1mp_generic_female?1misc?$AA@ 3005942c     cg_players.obj
 0002:0000d44c       ??_C@_0M@NGJBOEHI@sound?1?$CFs?1?$CFs?$AA@ 3005944c     cg_players.obj
 0002:0000d458       ??_C@_0CF@NEPCHIHA@models?1players?1?$CFs?1sounds_default@ 30059458     cg_players.obj
 0002:0000d480       ??_C@_0BN@CHNFAMLI@models?1players?1?$CFs?1sounds?4cfg?$AA@ 30059480     cg_players.obj
 0002:0000d4a0       ??_C@_0CA@JPONKMJK@models?1players?1?$CFs?1sounds_?$CFs?4cfg?$AA@ 300594a0     cg_players.obj
 0002:0000d4c0       ??_C@_08BPBKIHMF@tag_flag?$AA@ 300594c0     cg_players.obj
 0002:0000d4cc       ??_C@_0CG@NFMPGJHJ@DEFAULT_MODEL?5?$CI?$CFs?$CJ?5failed?5to?5reg@ 300594cc     cg_players.obj
 0002:0000d4f4       ??_C@_0DF@GJHBNGJF@DEFAULT_TEAM_MODEL?5?1?5skin?5?$CI?$CFs?1?$CFs@ 300594f4     cg_players.obj
 0002:0000d52c       ??_C@_01KMDKNFGN@?1?$AA@   3005952c     cg_players.obj
 0002:0000d530       ??_C@_0CN@PBDGFPPP@CG_SetDeferredClientInfo?3?5no?5val@ 30059530     cg_players.obj
 0002:0000d560       ??_C@_0CH@OIHGELEA@Memory?5is?5low?4?5?5Using?5deferred?5m@ 30059560     cg_players.obj
 0002:0000d588       ??_C@_02JKAOMCMK@tl?$AA@   30059588     cg_players.obj
 0002:0000d58c       ??_C@_02BIBFFKJD@tt?$AA@   3005958c     cg_players.obj
 0002:0000d590       ??_C@_01PFHFFBPC@t?$AA@    30059590     cg_players.obj
 0002:0000d594       ??_C@_01HHGOMJKL@l?$AA@    30059594     cg_players.obj
 0002:0000d598       ??_C@_01NOFIACDB@w?$AA@    30059598     cg_players.obj
 0002:0000d59c       ??_C@_02IKKIEBB@hc?$AA@    3005959c     cg_players.obj
 0002:0000d5a0       ??_C@_05ODMCMJAJ@skill?$AA@ 300595a0     cg_players.obj
 0002:0000d5a8       ??_C@_02KHFPAHOF@c2?$AA@   300595a8     cg_players.obj
 0002:0000d5ac       ??_C@_02IMHCFECG@c1?$AA@   300595ac     cg_players.obj
 0002:0000d5b0       __real@3f666666            300595b0     cg_players.obj
 0002:0000d5b4       __real@3f028f5c            300595b4     cg_players.obj
 0002:0000d5b8       __real@463b8000            300595b8     cg_players.obj
 0002:0000d5bc       __real@3e000000            300595bc     cg_players.obj
 0002:0000d5c0       ??_C@_06PDDIJHJI@?$CKflash?$AA@ 300595c0     cg_players.obj
 0002:0000d5c8       __real@3ff921fb60000000    300595c8     cg_players.obj
 0002:0000d5d0       ??_C@_0BN@PLJLAFDF@sound?1weapons?1baton?1idle?4wav?$AA@ 300595d0     cg_players.obj
 0002:0000d5f0       __real@44610000            300595f0     cg_players.obj
 0002:0000d5f8       __real@3f70624dd2f1a9fc    300595f8     cg_players.obj
 0002:0000d600       __real@42652ee0            30059600     cg_players.obj
 0002:0000d604       __real@3cc9d9b5            30059604     cg_players.obj
 0002:0000d608       ??_C@_0BP@EEHJJPLA@Bad?5clientNum?5on?5player?5entity?$AA@ 30059608     cg_players.obj
 0002:0000d628       __real@bff0000000000000    30059628     cg_playerstate.obj
 0002:0000d630       __real@3ff6969696969696    30059630     cg_playerstate.obj
 0002:0000d638       ??_C@_0BH@JOJLKMBP@WARNING?3?5double?5event?6?$AA@ 30059638     cg_predict.obj
 0002:0000d650       ??_C@_0BI@ELMKHMCD@WARNING?3?5dropped?5event?6?$AA@ 30059650     cg_predict.obj
 0002:0000d668       ??_C@_0L@DOJHFFNN@not?5moved?6?$AA@ 30059668     cg_predict.obj
 0002:0000d674       ??_C@_0L@NKHFPHNI@?$FL?$CFi?5?3?5?$CFi?$FN?5?$AA@ 30059674     cg_predict.obj
 0002:0000d680       ??_C@_0BN@HNLMAFPF@Double?5prediction?5decay?3?5?$CFf?6?$AA@ 30059680     cg_predict.obj
 0002:0000d6a0       ??_C@_0BF@BBGFLFIG@Prediction?5miss?3?5?$CFf?6?$AA@ 300596a0     cg_predict.obj
 0002:0000d6b8       ??_C@_0BC@GIKLPGML@prediction?5error?6?$AA@ 300596b8     cg_predict.obj
 0002:0000d6cc       ??_C@_0BE@DPKKIGLP@PredictionTeleport?6?$AA@ 300596cc     cg_predict.obj
 0002:0000d6e0       ??_C@_02NCPIBIBE@33?$AA@   300596e0     cg_predict.obj
 0002:0000d6e4       ??_C@_0CE@JCAHPAJ@exceeded?5PACKET_BACKUP?5on?5comman@ 300596e4     cg_predict.obj
 0002:0000d708       ??_C@_08KKMNLHDA@?$CFs?4saga?$AA?$AA@ 30059708     cg_saga.obj
 0002:0000d714       ??_C@_03BPOAKJOG@?$CFs?$AA?$AA@ 30059714     cg_saga.obj
 0002:0000d718       ??_C@_0CI@GIEIBPOO@sound?1chars?1kyle?1prototype?1perso@ 30059718     cg_saga.obj
 0002:0000d740       ??_C@_0CL@OEHGGLDN@sound?1chars?1kyle?1prototype?1isntw@ 30059740     cg_saga.obj
 0002:0000d76c       ??_C@_0BH@GEPPMNBP@roundover_sound_welost?$AA@ 3005976c     cg_saga.obj
 0002:0000d784       ??_C@_0BG@LLHJNGLO@roundover_sound_wewon?$AA@ 30059784     cg_saga.obj
 0002:0000d79c       ??_C@_09CMDNALDI@lostround?$AA@ 3005979c     cg_saga.obj
 0002:0000d7a8       ??_C@_08BNMHJEJD@wonround?$AA@ 300597a8     cg_saga.obj
 0002:0000d7b4       ??_C@_05EINCBNHF@Rebel?$AA@ 300597b4     cg_saga.obj
 0002:0000d7bc       ??_C@_08NBBJCLDP@Imperial?$AA@ 300597bc     cg_saga.obj
 0002:0000d7c8       ??_C@_0CM@FHEIDCJH@ERROR?3?5Saga?5data?5does?5not?5exist?5@ 300597c8     cg_saga.obj
 0002:0000d7f4       ??_C@_0M@BAGMGNIA@sound_rebel?$AA@ 300597f4     cg_saga.obj
 0002:0000d800       ??_C@_0P@GBPAHNCB@sound_imperial?$AA@ 30059800     cg_saga.obj
 0002:0000d810       ??_C@_0O@HIFJIFEM@message_rebel?$AA@ 30059810     cg_saga.obj
 0002:0000d820       ??_C@_0BB@DJFBKPKK@message_imperial?$AA@ 30059820     cg_saga.obj
 0002:0000d834       ??_C@_0M@IHDPCFPD@Objective?$CFi?$AA@ 30059834     cg_saga.obj
 0002:0000d840       ??_C@_0BH@DLHNHBEG@Bad?5score?9?$DOclient?3?5?$CFi?6?$AA@ 30059840     cg_scoreboard.obj
 0002:0000d858       ??_C@_05KACKNMMA@READY?$AA@ 30059858     cg_scoreboard.obj
 0002:0000d860       ??_C@_04OKOFBOPB@Time?$AA@ 30059860     cg_scoreboard.obj
 0002:0000d868       ??_C@_04CPBFGEOK@Ping?$AA@ 30059868     cg_scoreboard.obj
 0002:0000d870       ??_C@_05DGAPONBB@Score?$AA@ 30059870     cg_scoreboard.obj
 0002:0000d878       ??_C@_0P@OKDPBFM@INGAMETEXT_W_L?$AA@ 30059878     cg_scoreboard.obj
 0002:0000d888       ??_C@_04FABLJDN@Name?$AA@  30059888     cg_scoreboard.obj
 0002:0000d890       ??_C@_0BO@OHCPGADJ@gfx?1menus?1menu_buttonback?4tga?$AA@ 30059890     cg_scoreboard.obj
 0002:0000d8b0       ??_C@_0BE@IPIDHCFO@Blue?5leads?5?$CFi?5to?5?$CFi?$AA@ 300598b0     cg_scoreboard.obj
 0002:0000d8c4       ??_C@_0BD@KNNGDKPF@Red?5leads?5?$CFi?5to?5?$CFi?$AA@ 300598c4     cg_scoreboard.obj
 0002:0000d8d8       ??_C@_0BE@NFGIJENK@?$CFs?5?$CFs?5?$CI?$CFs?5?$CFi?$CJ?5?$CFs?5?$CFi?$AA@ 300598d8     cg_scoreboard.obj
 0002:0000d8ec       ??_C@_0BA@DNDEIBKI@INGAMETEXT_WITH?$AA@ 300598ec     cg_scoreboard.obj
 0002:0000d8fc       ??_C@_0O@IOCGDIGD@INGAMETEXT_OF?$AA@ 300598fc     cg_scoreboard.obj
 0002:0000d90c       ??_C@_0BB@OLEJFDJP@INGAMETEXT_PLACE?$AA@ 3005990c     cg_scoreboard.obj
 0002:0000d920       ??_C@_09CLFCPHPN@DUEL_WINS?$AA@ 30059920     cg_scoreboard.obj
 0002:0000d97c       ??_C@_0L@LIAONOLJ@defendflag?$AA@ 3005997c     cg_servercmds.obj
 0002:0000d988       ??_C@_07NOFDDIA@getflag?$AA@ 30059988     cg_servercmds.obj
 0002:0000d990       ??_C@_0P@IGNPDGBD@bot_minplayers?$AA@ 30059990     cg_servercmds.obj
 0002:0000d9a0       ??_C@_0L@MLCEEGBP@g_needpass?$AA@ 300599a0     cg_servercmds.obj
 0002:0000d9ac       ??_C@_0L@OOBNLHBJ@g_blueTeam?$AA@ 300599ac     cg_servercmds.obj
 0002:0000d9b8       ??_C@_09HOBGGEAD@g_redTeam?$AA@ 300599b8     cg_servercmds.obj
 0002:0000d9c4       ??_C@_0M@DKNJHPLK@maps?1?$CFs?4bsp?$AA@ 300599c4     cg_servercmds.obj
 0002:0000d9d0       ??_C@_0O@OCOCOONB@sv_maxclients?$AA@ 300599d0     cg_servercmds.obj
 0002:0000d9e0       ??_C@_09ELHMOKHN@teamflags?$AA@ 300599e0     cg_servercmds.obj
 0002:0000d9ec       ??_C@_07GMGCLCAP@dmflags?$AA@ 300599ec     cg_servercmds.obj
 0002:0000d9f4       ??_C@_08JNIMAHLE@fdisable?$AA@ 300599f4     cg_servercmds.obj
 0002:0000da00       ??_C@_08CGDHFBIG@wdisable?$AA@ 30059a00     cg_servercmds.obj
 0002:0000da0c       ??_C@_0M@HDALJKN@g_jediVmerc?$AA@ 30059a0c     cg_servercmds.obj
 0002:0000da18       ??_C@_08HHFKLNCD@needpass?$AA@ 30059a18     cg_servercmds.obj
 0002:0000da24       ??_C@_0L@GFINLBEC@g_gametype?$AA@ 30059a24     cg_servercmds.obj
 0002:0000da30       ??_C@_01EOFPKCAF@?$EA?$AA@ 30059a30     cg_servercmds.obj
 0002:0000da34       ??_C@_01JLIPDDHJ@?3?$AA@   30059a34     cg_servercmds.obj
 0002:0000da38       ??_C@_01NEMOKFLO@?$DN?$AA@ 30059a38     cg_servercmds.obj
 0002:0000da3c       ??_C@_0CJ@FEDCKNPF@set?5g_synchronousclients?51?5?$DL?5rec@ 30059a3c     cg_servercmds.obj
 0002:0000da68       ??_C@_0BC@FKLDKIMG@ui_matchStartTime?$AA@ 30059a68     cg_servercmds.obj
 0002:0000da7c       ??_C@_0P@HFBEHELF@CG_MapRestart?6?$AA@ 30059a7c     cg_servercmds.obj
 0002:0000da8c       ??_C@_0L@DFGHEGGP@?$CFs?3?5?$CFc?$CFc?$CFs?$AA@ 30059a8c     cg_servercmds.obj
 0002:0000da98       ??_C@_0N@GEGIEJH@?$CI?$CFs?$CJ?3?5?$CFc?$CFc?$CFs?$AA@ 30059a98     cg_servercmds.obj
 0002:0000daa8       ??_C@_0N@PONKLBDP@?$FL?$CFs?$FN?3?5?$CFc?$CFc?$CFs?$AA@ 30059aa8     cg_servercmds.obj
 0002:0000dab8       ??_C@_06GEFAPDPP@praise?$AA@ 30059ab8     cg_servercmds.obj
 0002:0000dac0       ??_C@_0O@ILEOHMJK@kill_gauntlet?$AA@ 30059ac0     cg_servercmds.obj
 0002:0000dad0       ??_C@_0N@EPKIJPHK@death_insult?$AA@ 30059ad0     cg_servercmds.obj
 0002:0000dae0       ??_C@_05CPCHEFAA@taunt?$AA@ 30059ae0     cg_servercmds.obj
 0002:0000dae8       ??_C@_0M@MPCEANBE@kill_insult?$AA@ 30059ae8     cg_servercmds.obj
 0002:0000daf4       ??_C@_0CB@KPHIIGNM@Unknown?5client?5game?5command?3?5?$CFs?6@ 30059af4     cg_servercmds.obj
 0002:0000db18       ??_C@_0BA@GNMFKLDC@clientLevelShot?$AA@ 30059b18     cg_servercmds.obj
 0002:0000db28       ??_C@_0M@BLBAMFDN@remapShader?$AA@ 30059b28     cg_servercmds.obj
 0002:0000db34       ??_C@_0M@NBIMEKNE@map_restart?$AA@ 30059b34     cg_servercmds.obj
 0002:0000db40       ??_C@_05DPGKEEHN@tinfo?$AA@ 30059b40     cg_servercmds.obj
 0002:0000db48       ??_C@_06KBCJDMLG@scores?$AA@ 30059b48     cg_servercmds.obj
 0002:0000db50       ??_C@_06FPNOEFND@vtchat?$AA@ 30059b50     cg_servercmds.obj
 0002:0000db58       ??_C@_05LBAAHPBE@vchat?$AA@ 30059b58     cg_servercmds.obj
 0002:0000db60       ??_C@_05PMMINOBP@tchat?$AA@ 30059b60     cg_servercmds.obj
 0002:0000db68       ??_C@_04BLJLMHHG@chat?$AA@ 30059b68     cg_servercmds.obj
 0002:0000db70       ??_C@_05IJDJACGD@print?$AA@ 30059b70     cg_servercmds.obj
 0002:0000db78       ??_C@_02EODNHJKB@cs?$AA@   30059b78     cg_servercmds.obj
 0002:0000db7c       ??_C@_02GFBACKGC@cp?$AA@   30059b7c     cg_servercmds.obj
 0002:0000db80       ??_C@_03JCHENJDF@kg2?$AA@  30059b80     cg_servercmds.obj
 0002:0000db84       ??_C@_03FEBBAMDF@nfr?$AA@  30059b84     cg_servercmds.obj
 0002:0000db88       ??_C@_08CNFFHJAB@?5?$CFs?5?$CC?$CFs?$CC?$AA@ 30059b88     cg_servercmds.obj
 0002:0000db94       ??_C@_05JEHJOICL@?5?$CC?$CFs?$CC?$AA@ 30059b94     cg_servercmds.obj
 0002:0000db9c       ??_C@_03PCFBOJGC@spd?$AA@  30059b9c     cg_servercmds.obj
 0002:0000dba0       ??_C@_0CI@JDFDPIEH@CG_TransitionSnapshot?3?5NULL?5cg?4n@ 30059ba0     cg_snapshot.obj
 0002:0000dbc8       ??_C@_0CE@BCLPNDDL@CG_TransitionSnapshot?3?5NULL?5cg?4s@ 30059bc8     cg_snapshot.obj
 0002:0000dbec       ??_C@_0DI@DABDJKNL@WARNING?3?5CG_ReadNextSnapshot?3?5wa@ 30059bec     cg_snapshot.obj
 0002:0000dc24       ??_C@_0DI@NCDIEGIG@CG_ProcessSnapshots?3?5cg?4nextSnap@ 30059c24     cg_snapshot.obj
 0002:0000dc5c       ??_C@_0CF@EPBFNJFD@CG_ProcessSnapshots?3?5cg?4snap?5?$DN?$DN?5@ 30059c5c     cg_snapshot.obj
 0002:0000dc84       ??_C@_0DA@GODLLJKJ@CG_ProcessSnapshots?3?5Server?5time@ 30059c84     cg_snapshot.obj
 0002:0000dcb4       ??_C@_0CO@FFJEMNFE@CG_ProcessSnapshots?3?5n?5?$DM?5cg?4late@ 30059cb4     cg_snapshot.obj
 0002:0000dce4       __real@43b48000            30059ce4     cg_turret.obj
 0002:0000dce8       __real@3f9eb851eb851eb8    30059ce8     cg_turret.obj
 0002:0000dcf0       ??_C@_0M@MMECMPFA@bone_barrel?$AA@ 30059cf0     cg_turret.obj
 0002:0000dcfc       ??_C@_0L@NMBKBPBM@bone_gback?$AA@ 30059cfc     cg_turret.obj
 0002:0000dd08       ??_C@_0L@JLHFAJNM@bone_hinge?$AA@ 30059d08     cg_turret.obj
 0002:0000dd14       ??_C@_0BG@GCFGCMGP@Can?8t?5register?5model?6?$AA@ 30059d14     cg_view.obj
 0002:0000dd2c       ??_C@_09FLAEHDCJ@frame?5?$CFi?6?$AA@ 30059d2c     cg_view.obj
 0002:0000dd38       ??_C@_08JKENKHJN@skin?5?$CFi?6?$AA@ 30059d38     cg_view.obj
 0002:0000dd44       ??_C@_02PJNFELNH@30?$AA@   30059d44     cg_view.obj
 0002:0000dd48       __real@c056400000000000    30059d48     cg_view.obj
 0002:0000dd50       __real@4056400000000000    30059d50     cg_view.obj
 0002:0000dd58       __real@3f947ae147ae147b    30059d58     cg_view.obj
 0002:0000dd60       __real@0000000000000000    30059d60     cg_view.obj
 0002:0000dd68       __real@3f8702e05c0b8170    30059d68     cg_view.obj
 0002:0000dd70       __real@4004000000000000    30059d70     cg_view.obj
 0002:0000dd78       __real@c054000000000000    30059d78     cg_view.obj
 0002:0000dd80       __real@3b5a740e            30059d80     cg_view.obj
 0002:0000dd84       __real@3b23d70a            30059d84     cg_view.obj
 0002:0000dd88       __real@42e52ee0            30059d88     cg_view.obj
 0002:0000dd8c       __real@3c0efa35            30059d8c     cg_view.obj
 0002:0000dd90       __real@3f8b4e81b4e81b4f    30059d90     cg_view.obj
 0002:0000dd98       __real@3f6496b7ced91687    30059d98     cg_view.obj
 0002:0000dda0       __real@3d99999a            30059da0     cg_view.obj
 0002:0000dda4       __real@42c20000            30059da4     cg_view.obj
 0002:0000dda8       __real@4066800000000000    30059da8     cg_view.obj
 0002:0000ddb0       __real@c1000000            30059db0     cg_view.obj
 0002:0000ddb8       __real@3f9954a4a952a54a    30059db8     cg_view.obj
 0002:0000ddc0       ??_C@_0M@OGBIOKHN@s_musicMult?$AA@ 30059dc0     cg_view.obj
 0002:0000ddcc       ??_C@_02NJPGOMH@?$CFf?$AA@ 30059dcc     cg_view.obj
 0002:0000ddd0       ??_C@_0BD@PLOBIDP@cg?4clientFrame?3?$CFi?6?$AA@ 30059dd0     cg_view.obj
 0002:0000dde4       ??_C@_0CC@OIFCIFP@sound?1weapons?1rocket?1rocklf1a?4wa@ 30059de4     cg_weaponinit.obj
 0002:0000de08       ??_C@_0CG@KEDFKHHA@sound?1weapons?1explosions?1explode@ 30059e08     cg_weaponinit.obj
 0002:0000de30       ??_C@_0CC@BKBDOFHP@sound?1weapons?1detpack?1warning?4wa@ 30059e30     cg_weaponinit.obj
 0002:0000de54       ??_C@_0CA@IPNCHNFD@sound?1weapons?1detpack?1stick?4wav?$AA@ 30059e54     cg_weaponinit.obj
 0002:0000de74       ??_C@_0BP@IHNCLMHN@sound?1weapons?1detpack?1fire?4wav?$AA@ 30059e74     cg_weaponinit.obj
 0002:0000de94       ??_C@_0CF@GJBNPGFB@sound?1weapons?1laser_trap?1warning@ 30059e94     cg_weaponinit.obj
 0002:0000debc       ??_C@_0CD@IHPKAHHF@sound?1weapons?1laser_trap?1stick?4w@ 30059ebc     cg_weaponinit.obj
 0002:0000dee0       ??_C@_0BD@NFNOIGGP@tripMine?1explosion?$AA@ 30059ee0     cg_weaponinit.obj
 0002:0000def4       ??_C@_0BF@MMIBFHCA@tripMine?1laserMP?4efx?$AA@ 30059ef4     cg_weaponinit.obj
 0002:0000df0c       ??_C@_0CC@MCJFLHDA@sound?1weapons?1laser_trap?1fire?4wa@ 30059f0c     cg_weaponinit.obj
 0002:0000df30       ??_C@_0CC@LCFKGMMC@sound?1weapons?1thermal?1warning?4wa@ 30059f30     cg_weaponinit.obj
 0002:0000df54       ??_C@_0CE@MDLOFNAP@sound?1weapons?1thermal?1thermloop?4@ 30059f54     cg_weaponinit.obj
 0002:0000df78       ??_C@_0CC@FJMPBHCH@sound?1weapons?1thermal?1bounce2?4wa@ 30059f78     cg_weaponinit.obj
 0002:0000df9c       ??_C@_0CC@NPFLGFIJ@sound?1weapons?1thermal?1bounce1?4wa@ 30059f9c     cg_weaponinit.obj
 0002:0000dfc0       ??_C@_0BC@FJJANHJJ@thermal?1shockwave?$AA@ 30059fc0     cg_weaponinit.obj
 0002:0000dfd4       ??_C@_0BC@NHJFLKCE@thermal?1explosion?$AA@ 30059fd4     cg_weaponinit.obj
 0002:0000dfe8       ??_C@_0CJ@BFFBHEKC@models?1weapons2?1thermal?1thermal_@ 30059fe8     cg_weaponinit.obj
 0002:0000e014       ??_C@_0CB@MGFEFCDJ@sound?1weapons?1thermal?1charge?4wav@ 3005a014     cg_weaponinit.obj
 0002:0000e038       ??_C@_0BP@NKIENFLE@sound?1weapons?1thermal?1fire?4wav?$AA@ 3005a038     cg_weaponinit.obj
 0002:0000e058       ??_C@_0BB@KFJJMFBH@rocket?1explosion?$AA@ 3005a058     cg_weaponinit.obj
 0002:0000e06c       ??_C@_0M@FFHPHMBH@rocket?1shot?$AA@ 3005a06c     cg_weaponinit.obj
 0002:0000e078       ??_C@_0CC@DEHPHGHB@sound?1weapons?1rocket?1alt_fire?4wa@ 3005a078     cg_weaponinit.obj
 0002:0000e09c       ??_C@_0CF@OJCFDIFG@sound?1weapons?1rocket?1missileloop@ 3005a09c     cg_weaponinit.obj
 0002:0000e0c4       ??_C@_0CJ@EIJKNCLJ@models?1weapons2?1merr_sonn?1projec@ 3005a0c4     cg_weaponinit.obj
 0002:0000e0f0       ??_C@_0BE@EHKIPHHK@rocket?1muzzle_flash?$AA@ 3005a0f0     cg_weaponinit.obj
 0002:0000e104       ??_C@_0BO@KGPOLMAP@sound?1weapons?1rocket?1fire?4wav?$AA@ 3005a104     cg_weaponinit.obj
 0002:0000e124       ??_C@_0BH@DMFAKLHB@flechette?1flesh_impact?$AA@ 3005a124     cg_weaponinit.obj
 0002:0000e13c       ??_C@_0BG@HOJKOENE@flechette?1wall_impact?$AA@ 3005a13c     cg_weaponinit.obj
 0002:0000e154       ??_C@_0BD@JJNBCJJJ@flechette?1alt_shot?$AA@ 3005a154     cg_weaponinit.obj
 0002:0000e168       ??_C@_0P@JNBALAPP@flechette?1shot?$AA@ 3005a168     cg_weaponinit.obj
 0002:0000e178       ??_C@_0CK@KOEFLOG@models?1weapons2?1golan_arms?1proje@ 3005a178     cg_weaponinit.obj
 0002:0000e1a4       ??_C@_0CF@OBMKIODN@sound?1weapons?1flechette?1alt_fire@ 3005a1a4     cg_weaponinit.obj
 0002:0000e1cc       ??_C@_0CO@KGLEGKPD@models?1weapons2?1golan_arms?1proje@ 3005a1cc     cg_weaponinit.obj
 0002:0000e1fc       ??_C@_0BH@DMOHCCME@flechette?1muzzle_flash?$AA@ 3005a1fc     cg_weaponinit.obj
 0002:0000e214       ??_C@_0CB@IPAGIIKJ@sound?1weapons?1flechette?1fire?4wav@ 3005a214     cg_weaponinit.obj
 0002:0000e238       ??_C@_0BI@BPJONCHM@gfx?1misc?1lightningFlash?$AA@ 3005a238     cg_weaponinit.obj
 0002:0000e250       ??_C@_0BH@IBMEBMI@gfx?1effects?1demp2shell?$AA@ 3005a250     cg_weaponinit.obj
 0002:0000e268       ??_C@_0BI@EMCCKEMO@models?1items?1sphere?4md3?$AA@ 3005a268     cg_weaponinit.obj
 0002:0000e280       ??_C@_0BD@OAAONNDP@demp2?1flesh_impact?$AA@ 3005a280     cg_weaponinit.obj
 0002:0000e294       ??_C@_0BC@PGOBGFPK@demp2?1wall_impact?$AA@ 3005a294     cg_weaponinit.obj
 0002:0000e2a8       ??_C@_0BB@KGIAAOJD@demp2?1projectile?$AA@ 3005a2a8     cg_weaponinit.obj
 0002:0000e2bc       ??_C@_0CC@MPIGNLMI@sound?1weapons?1demp2?1altCharge?4wa@ 3005a2bc     cg_weaponinit.obj
 0002:0000e2e0       ??_C@_0CA@PGAHJLAO@sound?1weapons?1demp2?1altfire?4wav?$AA@ 3005a2e0     cg_weaponinit.obj
 0002:0000e300       ??_C@_0BD@OALJFEIK@demp2?1muzzle_flash?$AA@ 3005a300     cg_weaponinit.obj
 0002:0000e314       ??_C@_0BN@IMCKPCBD@sound?1weapons?1demp2?1fire?4wav?$AA@ 3005a314     cg_weaponinit.obj
 0002:0000e334       ??_C@_0BE@BNCJIELK@repeater?1concussion?$AA@ 3005a334     cg_weaponinit.obj
 0002:0000e348       ??_C@_0BG@IKLJPBEK@repeater?1flesh_impact?$AA@ 3005a348     cg_weaponinit.obj
 0002:0000e360       ??_C@_0BF@PBONOCOL@repeater?1wall_impact?$AA@ 3005a360     cg_weaponinit.obj
 0002:0000e378       ??_C@_0BI@KJBEKPOJ@repeater?1alt_projectile?$AA@ 3005a378     cg_weaponinit.obj
 0002:0000e390       ??_C@_0BE@MHMDAGJH@repeater?1projectile?$AA@ 3005a390     cg_weaponinit.obj
 0002:0000e3a4       ??_C@_0CE@CLKLGDMM@sound?1weapons?1repeater?1alt_fire?4@ 3005a3a4     cg_weaponinit.obj
 0002:0000e3c8       ??_C@_0BG@IKAOHIPP@repeater?1muzzle_flash?$AA@ 3005a3c8     cg_weaponinit.obj
 0002:0000e3e0       ??_C@_0CA@EFALOJAJ@sound?1weapons?1repeater?1fire?4wav?$AA@ 3005a3e0     cg_weaponinit.obj
 0002:0000e400       ??_C@_0BM@GFMCAJED@gfx?1effects?1greenFrontFlash?$AA@ 3005a400     cg_weaponinit.obj
 0002:0000e41c       ??_C@_0BE@KNDAKNMI@bowcaster?1explosion?$AA@ 3005a41c     cg_weaponinit.obj
 0002:0000e430       ??_C@_0P@PMMDLPAJ@bowcaster?1shot?$AA@ 3005a430     cg_weaponinit.obj
 0002:0000e440       ??_C@_0CG@GINKIFIO@sound?1weapons?1bowcaster?1altcharg@ 3005a440     cg_weaponinit.obj
 0002:0000e468       ??_C@_0BH@MDFDHPJM@bowcaster?1muzzle_flash?$AA@ 3005a468     cg_weaponinit.obj
 0002:0000e480       ??_C@_0CB@LHPHEBPN@sound?1weapons?1bowcaster?1fire?4wav@ 3005a480     cg_weaponinit.obj
 0002:0000e4a4       ??_C@_0CF@DBNAAJNN@sound?1weapons?1disruptor?1zoomloop@ 3005a4a4     cg_weaponinit.obj
 0002:0000e4cc       ??_C@_0BD@FIJJMHEA@gfx?12d?1crop_charge?$AA@ 3005a4cc     cg_weaponinit.obj
 0002:0000e4e0       ??_C@_0BC@MNEMOCHO@gfx?12d?1insertTick?$AA@ 3005a4e0     cg_weaponinit.obj
 0002:0000e4f4       ??_C@_0BG@CGNKPPMN@gfx?12d?1cropCircleGlow?$AA@ 3005a4f4     cg_weaponinit.obj
 0002:0000e50c       ??_C@_0BC@GJGBLKGG@gfx?12d?1cropCircle?$AA@ 3005a50c     cg_weaponinit.obj
 0002:0000e520       ??_C@_0BD@EJMIPBKG@gfx?12d?1cropCircle2?$AA@ 3005a520     cg_weaponinit.obj
 0002:0000e534       ??_C@_0BH@MMADONKH@gfx?1effects?1smokeTrail?$AA@ 3005a534     cg_weaponinit.obj
 0002:0000e54c       ??_C@_0BE@DCALKONJ@gfx?1misc?1whiteline2?$AA@ 3005a54c     cg_weaponinit.obj
 0002:0000e560       ??_C@_0BE@MOEMNEGA@gfx?1effects?1redLine?$AA@ 3005a560     cg_weaponinit.obj
 0002:0000e574       ??_C@_0BC@CJGMPDCH@disruptor?1alt_hit?$AA@ 3005a574     cg_weaponinit.obj
 0002:0000e588       ??_C@_0BD@GMJOGKFI@disruptor?1alt_miss?$AA@ 3005a588     cg_weaponinit.obj
 0002:0000e59c       ??_C@_0BH@CPJIBLKN@disruptor?1flesh_impact?$AA@ 3005a59c     cg_weaponinit.obj
 0002:0000e5b4       ??_C@_0BG@NKLCGOMM@disruptor?1wall_impact?$AA@ 3005a5b4     cg_weaponinit.obj
 0002:0000e5cc       ??_C@_0BF@CMBFLDCN@disruptor?1projectile?$AA@ 3005a5cc     cg_weaponinit.obj
 0002:0000e5e4       ??_C@_0BA@CPFGKGDJ@disruptor?1rings?$AA@ 3005a5e4     cg_weaponinit.obj
 0002:0000e5f4       ??_C@_0CG@EHPDBIN@sound?1weapons?1disruptor?1altCharg@ 3005a5f4     cg_weaponinit.obj
 0002:0000e61c       ??_C@_0CF@PCACDOOB@sound?1weapons?1disruptor?1alt_fire@ 3005a61c     cg_weaponinit.obj
 0002:0000e644       ??_C@_0BH@CPCPJCBI@disruptor?1muzzle_flash?$AA@ 3005a644     cg_weaponinit.obj
 0002:0000e65c       ??_C@_0CB@EHFIEJDN@sound?1weapons?1disruptor?1fire?4wav@ 3005a65c     cg_weaponinit.obj
 0002:0000e680       ??_C@_0BF@IPIIKMBD@blaster?1droid_impact?$AA@ 3005a680     cg_weaponinit.obj
 0002:0000e698       ??_C@_0BF@DOOKJNAL@blaster?1flesh_impact?$AA@ 3005a698     cg_weaponinit.obj
 0002:0000e6b0       ??_C@_0BE@KJDPJEBH@blaster?1wall_impact?$AA@ 3005a6b0     cg_weaponinit.obj
 0002:0000e6c4       ??_C@_0N@MPCJLPHJ@blaster?1shot?$AA@ 3005a6c4     cg_weaponinit.obj
 0002:0000e6d4       ??_C@_0BA@BHMDGDMI@blaster?1deflect?$AA@ 3005a6d4     cg_weaponinit.obj
 0002:0000e6e4       ??_C@_0CD@MLKAHCED@sound?1weapons?1blaster?1alt_fire?4w@ 3005a6e4     cg_weaponinit.obj
 0002:0000e708       ??_C@_0BF@DOFNBELO@blaster?1muzzle_flash?$AA@ 3005a708     cg_weaponinit.obj
 0002:0000e720       ??_C@_0BP@GFLHELND@sound?1weapons?1blaster?1fire?4wav?$AA@ 3005a720     cg_weaponinit.obj
 0002:0000e740       ??_C@_0CB@PDMGAGFC@effects?1blaster?1smoke_bolton?4efx@ 3005a740     cg_weaponinit.obj
 0002:0000e764       ??_C@_0BM@JKHHLDPP@gfx?1effects?1bryarFrontFlash?$AA@ 3005a764     cg_weaponinit.obj
 0002:0000e780       ??_C@_0BD@OFNANLII@bryar?1droid_impact?$AA@ 3005a780     cg_weaponinit.obj
 0002:0000e794       ??_C@_0BD@FELCOKJA@bryar?1flesh_impact?$AA@ 3005a794     cg_weaponinit.obj
 0002:0000e7a8       ??_C@_0BD@BNEJKIPI@bryar?1wall_impact3?$AA@ 3005a7a8     cg_weaponinit.obj
 0002:0000e7bc       ??_C@_0BD@EFCJJLJ@bryar?1wall_impact2?$AA@ 3005a7bc     cg_weaponinit.obj
 0002:0000e7d0       ??_C@_0BC@EBGIPNAG@bryar?1wall_impact?$AA@ 3005a7d0     cg_weaponinit.obj
 0002:0000e7e4       ??_C@_0BC@BOLKNOFJ@bryar?1crackleShot?$AA@ 3005a7e4     cg_weaponinit.obj
 0002:0000e7f8       ??_C@_0L@OLAIOCBJ@bryar?1shot?$AA@ 3005a7f8     cg_weaponinit.obj
 0002:0000e804       ??_C@_0CC@PMHFGFB@sound?1weapons?1bryar?1altcharge?4wa@ 3005a804     cg_weaponinit.obj
 0002:0000e828       ??_C@_0CB@NOOHMAPO@sound?1weapons?1bryar?1alt_fire?4wav@ 3005a828     cg_weaponinit.obj
 0002:0000e84c       ??_C@_0BD@FEAFGDCF@bryar?1muzzle_flash?$AA@ 3005a84c     cg_weaponinit.obj
 0002:0000e860       ??_C@_0BN@JIOEMEHN@sound?1weapons?1bryar?1fire?4wav?$AA@ 3005a860     cg_weaponinit.obj
 0002:0000e880       ??_C@_0BN@CHIIPNFK@sound?1weapons?1baton?1fire?4mp3?$AA@ 3005a880     cg_weaponinit.obj
 0002:0000e8a0       ??_C@_0BP@NIIFJPHO@sound?1weapons?1melee?1punch4?4mp3?$AA@ 3005a8a0     cg_weaponinit.obj
 0002:0000e8c0       ??_C@_0BP@MFIAKPMG@sound?1weapons?1melee?1punch3?4mp3?$AA@ 3005a8c0     cg_weaponinit.obj
 0002:0000e8e0       ??_C@_0BP@ONMHMGD@sound?1weapons?1melee?1punch2?4mp3?$AA@ 3005a8e0     cg_weaponinit.obj
 0002:0000e900       ??_C@_0BP@IIEIAOMN@sound?1weapons?1melee?1punch1?4mp3?$AA@ 3005a900     cg_weaponinit.obj
 0002:0000e920       ??_C@_0BH@HJDNBHMB@stunBaton?1flesh_impact?$AA@ 3005a920     cg_weaponinit.obj
 0002:0000e938       ??_C@_0BI@FFKPJFGI@effects?1mp?1drainhit?4efx?$AA@ 3005a938     cg_weaponinit.obj
 0002:0000e950       ??_C@_0BJ@POMMBGAM@effects?1mp?1drainwide?4efx?$AA@ 3005a950     cg_weaponinit.obj
 0002:0000e96c       ??_C@_0BF@DOMCBFFK@effects?1mp?1drain?4efx?$AA@ 3005a96c     cg_weaponinit.obj
 0002:0000e984       ??_C@_0CA@PJMOHHIO@effects?1force?1lightningwide?4efx?$AA@ 3005a984     cg_weaponinit.obj
 0002:0000e9a4       ??_C@_09OLHEALFG@_hand?4md3?$AA@ 3005a9a4     cg_weaponinit.obj
 0002:0000e9b0       ??_C@_0M@GGMINFPA@_barrel?4md3?$AA@ 3005a9b0     cg_weaponinit.obj
 0002:0000e9bc       ??_C@_0CN@GMECDHEJ@models?1weapons2?1stun_baton?1baton@ 3005a9bc     cg_weaponinit.obj
 0002:0000e9ec       ??_C@_0CN@KHBOOEOM@models?1weapons2?1stun_baton?1baton@ 3005a9ec     cg_weaponinit.obj
 0002:0000ea1c       ??_C@_0CM@BAIIJBLO@models?1weapons2?1stun_baton?1baton@ 3005aa1c     cg_weaponinit.obj
 0002:0000ea48       ??_C@_0BI@JJFMDMDC@Couldn?8t?5find?5weapon?5?$CFi?$AA@ 3005aa48     cg_weaponinit.obj
 0002:0000ea60       ??_C@_04HAEDHBJD@?4glm?$AA@ 3005aa60     cg_weapons.obj
 0002:0000ea68       ??_C@_0DH@ECKDIILO@CG_RegisterItemVisuals?3?5itemNum?5@ 3005aa68     cg_weapons.obj
 0002:0000eaa0       __real@3f4b4e81b4e81b4f    3005aaa0     cg_weapons.obj
 0002:0000eaa8       __real@3f5b4e81b4e81b4f    3005aaa8     cg_weapons.obj
 0002:0000eab0       ??_C@_09FNBKMGLL@tag_flash?$AA@ 3005aab0     cg_weapons.obj
 0002:0000eabc       ??_C@_0M@GPEFPEPK@tag_barrel3?$AA@ 3005aabc     cg_weapons.obj
 0002:0000eac8       ??_C@_0M@HGFOMFLL@tag_barrel2?$AA@ 3005aac8     cg_weapons.obj
 0002:0000ead4       ??_C@_0L@EKFDHKMA@tag_barrel?$AA@ 3005aad4     cg_weapons.obj
 0002:0000eae0       ??_C@_0L@FGMMEJDC@tag_weapon?$AA@ 3005aae0     cg_weapons.obj
 0002:0000eaf0       __real@bfc999999999999a    3005aaf0     cg_weapons.obj
 0002:0000eaf8       __real@3bfc0fc1            3005aaf8     cg_weapons.obj
 0002:0000eafc       ??_C@_0CN@NBNBAPF@CG_FireWeapon?3?5ent?9?$DOweapon?5?$DO?$DN?5WP@ 3005aafc     cg_weapons.obj
 0002:0000eb2c       __real@41600000            3005ab2c     cg_weapons.obj
 0002:0000eb30       __real@42380000            3005ab30     cg_weapons.obj
 0002:0000eb34       __real@41e00000            3005ab34     fx_disruptor.obj
 0002:0000eb38       __real@37800000            3005ab38     q_math.obj
 0002:0000eb3c       __real@c3340000            3005ab3c     q_math.obj
 0002:0000eb40       __real@4066c16c16c16c17    3005ab40     q_math.obj
 0002:0000eb48       __real@4076800000000000    3005ab48     q_math.obj
 0002:0000eb50       __real@3c8efa35            3005ab50     q_math.obj
 0002:0000eb54       ??_C@_0BA@FOCLBKAP@unexpected?5EOF?6?$AA@ 3005ab54     q_shared.obj
 0002:0000eb64       ??_C@_0BJ@OLBOPICM@Q_strncpyz?3?5destsize?5?$DM?51?$AA@ 3005ab64     q_shared.obj
 0002:0000eb80       ??_C@_0BF@BJHHBLMD@Q_strncpyz?3?5NULL?5src?$AA@ 3005ab80     q_shared.obj
 0002:0000eb98       ??_C@_0BG@EKAPNPCH@Q_strncpyz?3?5NULL?5dest?$AA@ 3005ab98     q_shared.obj
 0002:0000ebb0       ??_C@_0BN@EFOOAHFL@Q_strcat?3?5already?5overflowed?$AA@ 3005abb0     q_shared.obj
 0002:0000ebd0       ??_C@_0CD@GIPJKOOD@Com_sprintf?3?5overflow?5of?5?$CFi?5in?5?$CF@ 3005abd0     q_shared.obj
 0002:0000ebf4       ??_C@_0CC@GMEFDOKA@Com_sprintf?3?5overflowed?5bigbuffe@ 3005abf4     q_shared.obj
 0002:0000ec18       ??_C@_0CG@FLHABLN@Info_ValueForKey?3?5oversize?5infos@ 3005ac18     q_shared.obj
 0002:0000ec40       ??_C@_09LMHPKFJB@soundLoop?$AA@ 3005ac40     ui_shared.obj
 0002:0000ec4c       ??_C@_05EIEHMANA@popup?$AA@ 3005ac4c     ui_shared.obj
 0002:0000ec54       ??_C@_06CJGNFCEB@onOpen?$AA@ 3005ac54     ui_shared.obj
 0002:0000ec5c       ??_C@_0BB@FOHPFLED@outOfBoundsClick?$AA@ 3005ac5c     ui_shared.obj
 0002:0000ec70       ??_C@_05IIPJAONP@onESC?$AA@ 3005ac70     ui_shared.obj
 0002:0000ec78       ??_C@_07LAOJOJAJ@onClose?$AA@ 3005ac78     ui_shared.obj
 0002:0000ec80       ??_C@_07BNAIEIKL@itemDef?$AA@ 3005ac80     ui_shared.obj
 0002:0000ec88       ??_C@_0L@GIACNHMO@fullscreen?$AA@ 3005ac88     ui_shared.obj
 0002:0000ec94       ??_C@_0L@OKFLOHAM@focuscolor?$AA@ 3005ac94     ui_shared.obj
 0002:0000eca0       ??_C@_0N@EEPADJLO@disablecolor?$AA@ 3005aca0     ui_shared.obj
 0002:0000ecb0       ??_C@_09MEFJHNGH@descScale?$AA@ 3005acb0     ui_shared.obj
 0002:0000ecbc       ??_C@_05NEOIHHDL@descY?$AA@ 3005acbc     ui_shared.obj
 0002:0000ecc4       ??_C@_05MNPDEGHK@descX?$AA@ 3005acc4     ui_shared.obj
 0002:0000eccc       ??_C@_09PAHMHFNJ@desccolor?$AA@ 3005accc     ui_shared.obj
 0002:0000ecd8       ??_C@_0O@COCPBLJA@descAlignment?$AA@ 3005acd8     ui_shared.obj
 0002:0000ece8       ??_C@_0L@NBMNMLHL@borderSize?$AA@ 3005ace8     ui_shared.obj
 0002:0000ecf4       ??_C@_0BE@MBDLAKDH@appearanceIncrement?$AA@ 3005acf4     ui_shared.obj
 0002:0000ed08       ??_C@_0L@PPHHMIKE@lineHeight?$AA@ 3005ad08     ui_shared.obj
 0002:0000ed14       ??_C@_0N@NGJINDLF@maxLineChars?$AA@ 3005ad14     ui_shared.obj
 0002:0000ed24       ??_C@_07FJHHECNJ@wrapped?$AA@ 3005ad24     ui_shared.obj
 0002:0000ed2c       ??_C@_07DPDAEJMK@visible?$AA@ 3005ad2c     ui_shared.obj
 0002:0000ed34       ??_C@_04GPMDFGEJ@type?$AA@ 3005ad34     ui_shared.obj
 0002:0000ed3c       ??_C@_0M@NBEMMMLH@text2aligny?$AA@ 3005ad3c     ui_shared.obj
 0002:0000ed48       ??_C@_0M@MIFHPNPG@text2alignx?$AA@ 3005ad48     ui_shared.obj
 0002:0000ed54       ??_C@_05JPFPPFDI@text2?$AA@ 3005ad54     ui_shared.obj
 0002:0000ed5c       ??_C@_09FMCFHDEN@textstyle?$AA@ 3005ad5c     ui_shared.obj
 0002:0000ed68       ??_C@_09BLEIEHKP@textscale?$AA@ 3005ad68     ui_shared.obj
 0002:0000ed74       ??_C@_0L@FCLMCIJC@textaligny?$AA@ 3005ad74     ui_shared.obj
 0002:0000ed80       ??_C@_0L@ELKHBJND@textalignx?$AA@ 3005ad80     ui_shared.obj
 0002:0000ed8c       ??_C@_09PNBDGNCL@textalign?$AA@ 3005ad8c     ui_shared.obj
 0002:0000ed98       ??_C@_04CIMGMMMG@text?$AA@ 3005ad98     ui_shared.obj
 0002:0000eda0       ??_C@_05IAKJCFIM@style?$AA@ 3005ada0     ui_shared.obj
 0002:0000eda8       ??_C@_07BELCMIIP@special?$AA@ 3005ada8     ui_shared.obj
 0002:0000edb0       ??_C@_08LNBEMJIA@showCvar?$AA@ 3005adb0     ui_shared.obj
 0002:0000edbc       ??_C@_04LHPFHFPH@rect?$AA@ 3005adbc     ui_shared.obj
 0002:0000edc4       ??_C@_0O@DACAJCLK@ownerdrawFlag?$AA@ 3005adc4     ui_shared.obj
 0002:0000edd4       ??_C@_09HGLBOMNF@ownerdraw?$AA@ 3005add4     ui_shared.obj
 0002:0000ede0       ??_C@_0N@LGJOCBPD@outlinecolor?$AA@ 3005ade0     ui_shared.obj
 0002:0000edf0       ??_C@_07PFEHHELH@onFocus?$AA@ 3005adf0     ui_shared.obj
 0002:0000edf8       ??_C@_0O@FDEIBLKE@notselectable?$AA@ 3005adf8     ui_shared.obj
 0002:0000ee08       ??_C@_04MEMAJGDJ@name?$AA@ 3005ae08     ui_shared.obj
 0002:0000ee10       ??_C@_0O@GFPABKKP@mouseExitText?$AA@ 3005ae10     ui_shared.obj
 0002:0000ee20       ??_C@_09OIHCIOIA@mouseExit?$AA@ 3005ae20     ui_shared.obj
 0002:0000ee2c       ??_C@_0P@BCEPHLNB@mouseEnterText?$AA@ 3005ae2c     ui_shared.obj
 0002:0000ee3c       ??_C@_0L@KAGOMOPN@mouseEnter?$AA@ 3005ae3c     ui_shared.obj
 0002:0000ee48       ??_C@_0P@NOKHMHPD@model_rotation?$AA@ 3005ae48     ui_shared.obj
 0002:0000ee58       ??_C@_0N@LHLPLFLG@model_origin?$AA@ 3005ae58     ui_shared.obj
 0002:0000ee68       ??_C@_0L@NMCIJLPA@model_fovy?$AA@ 3005ae68     ui_shared.obj
 0002:0000ee74       ??_C@_0L@MFDDKKLB@model_fovx?$AA@ 3005ae74     ui_shared.obj
 0002:0000ee80       ??_C@_0M@HHMGANAM@model_angle?$AA@ 3005ae80     ui_shared.obj
 0002:0000ee8c       ??_C@_0O@HPCOAMJM@maxPaintChars?$AA@ 3005ae8c     ui_shared.obj
 0002:0000ee9c       ??_C@_08IHGPPBOI@maxChars?$AA@ 3005ae9c     ui_shared.obj
 0002:0000eea8       ??_C@_0L@LMAJDKOE@leaveFocus?$AA@ 3005aea8     ui_shared.obj
 0002:0000eeb4       ??_C@_0BB@EIBMEDHI@horizontalscroll?$AA@ 3005aeb4     ui_shared.obj
 0002:0000eec8       ??_C@_08BDDCOCNI@hideCvar?$AA@ 3005aec8     ui_shared.obj
 0002:0000eed4       ??_C@_05MGJOOGAJ@group?$AA@ 3005aed4     ui_shared.obj
 0002:0000eedc       ??_C@_09MONNBKNO@forecolor?$AA@ 3005aedc     ui_shared.obj
 0002:0000eee8       ??_C@_0L@NOGKCHFE@focusSound?$AA@ 3005aee8     ui_shared.obj
 0002:0000eef4       ??_C@_04DNPGJOMD@flag?$AA@ 3005aef4     ui_shared.obj
 0002:0000eefc       ??_C@_06GEEPENGB@feeder?$AA@ 3005aefc     ui_shared.obj
 0002:0000ef04       ??_C@_0L@LCDHKNEJ@enableCvar?$AA@ 3005af04     ui_shared.obj
 0002:0000ef10       ??_C@_0N@MILKKPGL@elementwidth?$AA@ 3005af10     ui_shared.obj
 0002:0000ef20       ??_C@_0M@HBNIAHKL@elementtype?$AA@ 3005af20     ui_shared.obj
 0002:0000ef2c       ??_C@_0O@MNJDKOBB@elementheight?$AA@ 3005af2c     ui_shared.obj
 0002:0000ef3c       ??_C@_0M@IHJKFHF@doubleclick?$AA@ 3005af3c     ui_shared.obj
 0002:0000ef48       ??_C@_0M@FBHLBFCC@disableCvar?$AA@ 3005af48     ui_shared.obj
 0002:0000ef54       ??_C@_0L@GFEIECKE@decoration?$AA@ 3005af54     ui_shared.obj
 0002:0000ef60       ??_C@_08MCIJOGEA@desctext?$AA@ 3005af60     ui_shared.obj
 0002:0000ef6c       ??_C@_08KBIDCBHN@cvarTest?$AA@ 3005af6c     ui_shared.obj
 0002:0000ef78       ??_C@_0M@GOKMFACI@cvarStrList?$AA@ 3005af78     ui_shared.obj
 0002:0000ef84       ??_C@_0O@IKNDJMDK@cvarFloatList?$AA@ 3005af84     ui_shared.obj
 0002:0000ef94       ??_C@_09CGGKHKAP@cvarFloat?$AA@ 3005af94     ui_shared.obj
 0002:0000efa0       ??_C@_04PNAHEAFM@cvar?$AA@ 3005afa0     ui_shared.obj
 0002:0000efa8       ??_C@_07HIFEPIJN@columns?$AA@ 3005afa8     ui_shared.obj
 0002:0000efb0       ??_C@_09DHDJHDLH@cinematic?$AA@ 3005afb0     ui_shared.obj
 0002:0000efbc       ??_C@_0L@BAAMOEHP@bordersize?$AA@ 3005afbc     ui_shared.obj
 0002:0000efc8       ??_C@_0M@CJNAABJD@bordercolor?$AA@ 3005afc8     ui_shared.obj
 0002:0000efd4       ??_C@_06ODFLABIG@border?$AA@ 3005afd4     ui_shared.obj
 0002:0000efdc       ??_C@_0L@EGCKCJDC@background?$AA@ 3005afdc     ui_shared.obj
 0002:0000efe8       ??_C@_09OPNKCLNO@backcolor?$AA@ 3005afe8     ui_shared.obj
 0002:0000eff4       ??_C@_0N@HLFJAKEA@asset_shader?$AA@ 3005aff4     ui_shared.obj
 0002:0000f004       ??_C@_0M@DKAIGAGN@asset_model?$AA@ 3005b004     ui_shared.obj
 0002:0000f010       ??_C@_0BA@HJNHMKEG@appearance_slot?$AA@ 3005b010     ui_shared.obj
 0002:0000f020       ??_C@_0M@HHKOOJO@autowrapped?$AA@ 3005b020     ui_shared.obj
 0002:0000f02c       ??_C@_05CBJPDLOK@align?$AA@ 3005b02c     ui_shared.obj
 0002:0000f034       ??_C@_0O@BGFKBLBI@addColorRange?$AA@ 3005b034     ui_shared.obj
 0002:0000f044       ??_C@_06DDLLCOJG@action?$AA@ 3005b044     ui_shared.obj
 0002:0000f050       ??_C@_0BB@IOOMJMJB@cg_thirdperson?5?$CB?$AA@ 3005b050     ui_shared.obj
 0002:0000f064       ??_C@_09LMEPJCFC@?$CLuseforce?$AA@ 3005b064     ui_shared.obj
 0002:0000f070       ??_C@_0N@FFCOOBHL@?$CLforce_drain?$AA@ 3005b070     ui_shared.obj
 0002:0000f080       ??_C@_0BB@PDNGOECE@?$CLforce_lightning?$AA@ 3005b080     ui_shared.obj
 0002:0000f094       ??_C@_0M@FDHOJKJI@?$CLforce_grip?$AA@ 3005b094     ui_shared.obj
 0002:0000f0a0       ??_C@_0M@DBDAMOEM@?$CLforce_jump?$AA@ 3005b0a0     ui_shared.obj
 0002:0000f0ac       ??_C@_0N@NFNJCLFL@messagemode4?$AA@ 3005b0ac     ui_shared.obj
 0002:0000f0bc       ??_C@_0N@JKJILNJM@messagemode3?$AA@ 3005b0bc     ui_shared.obj
 0002:0000f0cc       ??_C@_0N@IDIDIMNN@messagemode2?$AA@ 3005b0cc     ui_shared.obj
 0002:0000f0dc       ??_C@_0M@JINOELJH@messagemode?$AA@ 3005b0dc     ui_shared.obj
 0002:0000f0e8       ??_C@_06MODDFGLL@?$CLtaunt?$AA@ 3005b0e8     ui_shared.obj
 0002:0000f0f0       ??_C@_04JNBAAPLC@?$CLuse?$AA@ 3005b0f0     ui_shared.obj
 0002:0000f0f8       ??_C@_0L@GDIPNNOO@?$CLaltattack?$AA@ 3005b0f8     ui_shared.obj
 0002:0000f104       ??_C@_07MAODEHGM@?$CLattack?$AA@ 3005b104     ui_shared.obj
 0002:0000f10c       ??_C@_09EAGNIMIH@weapon?513?$AA@ 3005b10c     ui_shared.obj
 0002:0000f118       ??_C@_09FJHGLNMG@weapon?512?$AA@ 3005b118     ui_shared.obj
 0002:0000f124       ??_C@_09HCFLOOAF@weapon?511?$AA@ 3005b124     ui_shared.obj
 0002:0000f130       ??_C@_09GLEANPEE@weapon?510?$AA@ 3005b130     ui_shared.obj
 0002:0000f13c       ??_C@_08MFIOAKPE@weapon?59?$AA@ 3005b13c     ui_shared.obj
 0002:0000f148       ??_C@_08NMJFDLLF@weapon?58?$AA@ 3005b148     ui_shared.obj
 0002:0000f154       ??_C@_08FLANCHHK@weapon?57?$AA@ 3005b154     ui_shared.obj
 0002:0000f160       ??_C@_08ECBGBGDL@weapon?56?$AA@ 3005b160     ui_shared.obj
 0002:0000f16c       ??_C@_08GJDLEFPI@weapon?55?$AA@ 3005b16c     ui_shared.obj
 0002:0000f178       ??_C@_08HACAHELJ@weapon?54?$AA@ 3005b178     ui_shared.obj
 0002:0000f184       ??_C@_08DPGBOCHO@weapon?53?$AA@ 3005b184     ui_shared.obj
 0002:0000f190       ??_C@_08CGHKNDDP@weapon?52?$AA@ 3005b190     ui_shared.obj
 0002:0000f19c       ??_C@_08NFHIAPM@weapon?51?$AA@ 3005b19c     ui_shared.obj
 0002:0000f1a8       ??_C@_0L@FHIBDANG@centerview?$AA@ 3005b1a8     ui_shared.obj
 0002:0000f1b4       ??_C@_06OBEGBCAL@?$CLmlook?$AA@ 3005b1b4     ui_shared.obj
 0002:0000f1bc       ??_C@_09KCKOGCLI@?$CLlookdown?$AA@ 3005b1bc     ui_shared.obj
 0002:0000f1c8       ??_C@_07BDFIGFL@?$CLlookup?$AA@ 3005b1c8     ui_shared.obj
 0002:0000f1d0       ??_C@_07CHKKNAEO@?$CLstrafe?$AA@ 3005b1d0     ui_shared.obj
 0002:0000f1d8       ??_C@_06NGIHBNMB@?$CLright?$AA@ 3005b1d8     ui_shared.obj
 0002:0000f1e0       ??_C@_05HEGFDNLE@?$CLleft?$AA@ 3005b1e0     ui_shared.obj
 0002:0000f1e8       ??_C@_09HNJJMOJG@?$CLmovedown?$AA@ 3005b1e8     ui_shared.obj
 0002:0000f1f4       ??_C@_07CKGNAPCP@?$CLmoveup?$AA@ 3005b1f4     ui_shared.obj
 0002:0000f1fc       ??_C@_0L@FMBJCMEG@?$CLmoveright?$AA@ 3005b1fc     ui_shared.obj
 0002:0000f208       ??_C@_09IPJNFGKP@?$CLmoveleft?$AA@ 3005b208     ui_shared.obj
 0002:0000f214       ??_C@_05IPKGNIPH@?$CLback?$AA@ 3005b214     ui_shared.obj
 0002:0000f21c       ??_C@_08KKEOHAPB@?$CLforward?$AA@ 3005b21c     ui_shared.obj
 0002:0000f228       ??_C@_06JIDIHCBO@?$CLspeed?$AA@ 3005b228     ui_shared.obj
 0002:0000f230       ??_C@_08GFFBPDLD@?$CLbutton2?$AA@ 3005b230     ui_shared.obj
 0002:0000f23c       ??_C@_0M@CIHCAJBI@rundeferred?$AA@ 3005b23c     ui_shared.obj
 0002:0000f248       ??_C@_05MBNCFBEN@defer?$AA@ 3005b248     ui_shared.obj
 0002:0000f250       ??_C@_05KJPHCDKJ@orbit?$AA@ 3005b250     ui_shared.obj
 0002:0000f258       ??_C@_0L@NDOCJLDE@playlooped?$AA@ 3005b258     ui_shared.obj
 0002:0000f264       ??_C@_04GBHMDDO@play?$AA@  3005b264     ui_shared.obj
 0002:0000f26c       ??_C@_04MGEIEJAD@exec?$AA@ 3005b26c     ui_shared.obj
 0002:0000f274       ??_C@_0O@DOIJMEIF@setcvartocvar?$AA@ 3005b274     ui_shared.obj
 0002:0000f284       ??_C@_07DFOFNCMO@setcvar?$AA@ 3005b284     ui_shared.obj
 0002:0000f28c       ??_C@_0L@KGLELNDP@transition?$AA@ 3005b28c     ui_shared.obj
 0002:0000f298       ??_C@_0O@DDHOJBLA@setplayerhead?$AA@ 3005b298     ui_shared.obj
 0002:0000f2a8       ??_C@_0P@COHLPKKB@setplayermodel?$AA@ 3005b2a8     ui_shared.obj
 0002:0000f2b8       ??_C@_08OKIAJKBO@setfocus?$AA@ 3005b2b8     ui_shared.obj
 0002:0000f2c4       ??_C@_0N@KMLJLNON@setteamcolor?$AA@ 3005b2c4     ui_shared.obj
 0002:0000f2d4       ??_C@_0M@DCMJNPEK@setitemrect?$AA@ 3005b2d4     ui_shared.obj
 0002:0000f2e0       ??_C@_0N@EBBIOPHN@setitemcolor?$AA@ 3005b2e0     ui_shared.obj
 0002:0000f2f0       ??_C@_0O@FOIIKEEB@setbackground?$AA@ 3005b2f0     ui_shared.obj
 0002:0000f300       ??_C@_08FBOLLCAN@setasset?$AA@ 3005b300     ui_shared.obj
 0002:0000f30c       ??_C@_05LBOHBHFK@close?$AA@ 3005b30c     ui_shared.obj
 0002:0000f314       ??_C@_04PMOCAHAA@open?$AA@ 3005b314     ui_shared.obj
 0002:0000f31c       ??_C@_08OKIEAMBM@setcolor?$AA@ 3005b31c     ui_shared.obj
 0002:0000f328       ??_C@_04IBOFHAPJ@hide?$AA@ 3005b328     ui_shared.obj
 0002:0000f330       ??_C@_04FKMICODN@show?$AA@ 3005b330     ui_shared.obj
 0002:0000f338       ??_C@_07BJADIKJG@fadeout?$AA@ 3005b338     ui_shared.obj
 0002:0000f340       ??_C@_06JFGPOFJL@fadein?$AA@ 3005b340     ui_shared.obj
 0002:0000f348       ??_C@_0BF@GHBOAADB@ITEM_TYPE_TEXTSCROLL?$AA@ 3005b348     ui_shared.obj
 0002:0000f360       ??_C@_0P@LFNHJNLI@ITEM_TYPE_BIND?$AA@ 3005b360     ui_shared.obj
 0002:0000f370       ??_C@_0BA@GNNLLMC@ITEM_TYPE_MULTI?$AA@ 3005b370     ui_shared.obj
 0002:0000f380       ??_C@_0BA@LBOLKKCE@ITEM_TYPE_YESNO?$AA@ 3005b380     ui_shared.obj
 0002:0000f390       ??_C@_0BB@HPDKNELK@ITEM_TYPE_SLIDER?$AA@ 3005b390     ui_shared.obj
 0002:0000f3a4       ??_C@_0BH@GLLADPJF@ITEM_TYPE_NUMERICFIELD?$AA@ 3005b3a4     ui_shared.obj
 0002:0000f3bc       ??_C@_0BE@EAPBKGDL@ITEM_TYPE_OWNERDRAW?$AA@ 3005b3bc     ui_shared.obj
 0002:0000f3d0       ??_C@_0BA@IJKKCBAM@ITEM_TYPE_MODEL?$AA@ 3005b3d0     ui_shared.obj
 0002:0000f3e0       ??_C@_0BC@OFIOAFNP@ITEM_TYPE_LISTBOX?$AA@ 3005b3e0     ui_shared.obj
 0002:0000f3f4       ??_C@_0BA@OAMKEKLA@ITEM_TYPE_COMBO?$AA@ 3005b3f4     ui_shared.obj
 0002:0000f404       ??_C@_0BE@MNNMOPPO@ITEM_TYPE_EDITFIELD?$AA@ 3005b404     ui_shared.obj
 0002:0000f418       ??_C@_0BD@ILDGMNNN@ITEM_TYPE_CHECKBOX?$AA@ 3005b418     ui_shared.obj
 0002:0000f42c       ??_C@_0BG@BAAHBGEB@ITEM_TYPE_RADIOBUTTON?$AA@ 3005b42c     ui_shared.obj
 0002:0000f444       ??_C@_0BB@LJMDMMLE@ITEM_TYPE_BUTTON?$AA@ 3005b444     ui_shared.obj
 0002:0000f458       ??_C@_0P@ECMIINLB@ITEM_TYPE_TEXT?$AA@ 3005b458     ui_shared.obj
 0002:0000f468       ??_C@_0BB@MDDHAHGK@ITEM_ALIGN_RIGHT?$AA@ 3005b468     ui_shared.obj
 0002:0000f47c       ??_C@_0BC@JJHJJEIH@ITEM_ALIGN_CENTER?$AA@ 3005b47c     ui_shared.obj
 0002:0000f490       ??_C@_0BA@CFDMPPCB@ITEM_ALIGN_LEFT?$AA@ 3005b490     ui_shared.obj
 0002:0000f4a0       ??_C@_0BH@CDGHPFEH@WINDOW_STYLE_CINEMATIC?$AA@ 3005b4a0     ui_shared.obj
 0002:0000f4b8       ??_C@_0BH@KNCNDPMK@WINDOW_STYLE_TEAMCOLOR?$AA@ 3005b4b8     ui_shared.obj
 0002:0000f4d0       ??_C@_0BE@HECCLBFC@WINDOW_STYLE_SHADER?$AA@ 3005b4d0     ui_shared.obj
 0002:0000f4e4       ??_C@_0BG@IEFBEMMN@WINDOW_STYLE_GRADIENT?$AA@ 3005b4e4     ui_shared.obj
 0002:0000f4fc       ??_C@_0BE@KLCEIIBH@WINDOW_STYLE_FILLED?$AA@ 3005b4fc     ui_shared.obj
 0002:0000f510       ??_C@_0BD@BJJNFIHK@WINDOW_STYLE_EMPTY?$AA@ 3005b510     ui_shared.obj
 0002:0000f524       ??_C@_0BA@NNDAHIHE@WINDOW_INACTIVE?$AA@ 3005b524     ui_shared.obj
 0002:0000f534       ??_C@_0CD@LBKPCJLM@UI_Alloc?3?5Failure?4?5Out?5of?5memory@ 3005b534     ui_shared.obj
 0002:0000f558       ??_C@_0BK@OKFEFFGN@?$FO1ERROR?3?5?$CFs?0?5line?5?$CFd?3?5?$CFs?6?$AA@ 3005b558     ui_shared.obj
 0002:0000f574       ??_C@_0BN@CKJPOGNB@expected?5float?5but?5found?5?$CFs?6?$AA@ 3005b574     ui_shared.obj
 0002:0000f594       ??_C@_0BP@FLADEANJ@expected?5integer?5but?5found?5?$CFs?6?$AA@ 3005b594     ui_shared.obj
 0002:0000f5b4       ??_C@_0CG@IMHJPNFM@?$FO3Unable?5to?5locate?5StripEd?5text?5@ 3005b5b4     ui_shared.obj
 0002:0000f5dc       ??_C@_04OEDFLLKD@?$CC?$CFs?$CC?$AA@ 3005b5dc     ui_shared.obj
 0002:0000f5e4       ??_C@_0P@JMIBMNM@team_headmodel?$AA@ 3005b5e4     ui_shared.obj
 0002:0000f5f4       ??_C@_05LKKGNBCL@?$CFs?5?$DL?5?$AA@ 3005b5f4     ui_shared.obj
 0002:0000f600       __real@4040000000000000    3005b600     ui_shared.obj
 0002:0000f608       __real@4031000000000000    3005b608     ui_shared.obj
 0002:0000f610       __real@4058000000000000    3005b610     ui_shared.obj
 0002:0000f618       __real@3f85555555555555    3005b618     ui_shared.obj
 0002:0000f620       ??_C@_0BI@MLGEDDNA@slider?5handle?5key?5exit?6?$AA@ 3005b620     ui_shared.obj
 0002:0000f638       __real@3c2aaaab            3005b638     ui_shared.obj
 0002:0000f63c       ??_C@_0CA@MBEPFCBH@?$FO3Unknown?5item?5style?5value?5?8?$CFs?8?$AA@ 3005b63c     ui_shared.obj
 0002:0000f65c       ??_C@_0BL@LEGNDHIH@?$FO3Unknown?5item?5style?5value?$AA@ 3005b65c     ui_shared.obj
 0002:0000f678       ??_C@_0BP@JDCINHG@?$FO3Unknown?5text?5alignment?5value?$AA@ 3005b678     ui_shared.obj
 0002:0000f698       ??_C@_0BO@GKGLOPGG@end?5of?5file?5inside?5menu?5item?6?$AA@ 3005b698     ui_shared.obj
 0002:0000f6b8       ??_C@_0CE@OIGKMGKE@couldn?8t?5parse?5menu?5item?5keyword@ 3005b6b8     ui_shared.obj
 0002:0000f6dc       ??_C@_0BN@JHFMAPJL@unknown?5menu?5item?5keyword?5?$CFs?$AA@ 3005b6dc     ui_shared.obj
 0002:0000f6fc       ??_C@_02HAOIJKIC@?$CFc?$AA@ 3005b6fc     ui_shared.obj
 0002:0000f700       ??_C@_04GJDJEMBE@?$CFc?$CFc?$AA@ 3005b700     ui_shared.obj
 0002:0000f708       ??_C@_04GHJNJNPO@main?$AA@ 3005b708     ui_shared.obj
 0002:0000f710       ??_C@_0BL@EDFDLOD@?$FO3Unknown?5menu?5style?5value?$AA@ 3005b710     ui_shared.obj
 0002:0000f72c       ??_C@_0BP@CHKMFCMK@?$FO3Unknown?5desc?5alignment?5value?$AA@ 3005b72c     ui_shared.obj
 0002:0000f74c       ??_C@_03NFKEKGGK@all?$AA@  3005b74c     ui_shared.obj
 0002:0000f750       ??_C@_0M@FHKEBODE@screenshot?6?$AA@ 3005b750     ui_shared.obj
 0002:0000f804       ??_C@_05KLBDPFGC@e?$CL000?$AA@ 3005b804     LIBC:cvt.obj
 0002:0000f810       __real@4150017ec0000000    3005b810     LIBC:testfdiv.obj
 0002:0000f818       __real@4147ffff80000000    3005b818     LIBC:testfdiv.obj
 0002:0000f820       ??_C@_0BK@NHEOCAHP@IsProcessorFeaturePresent?$AA@ 3005b820     LIBC:testfdiv.obj
 0002:0000f83c       ??_C@_08CPNIBGIE@KERNEL32?$AA@ 3005b83c     LIBC:testfdiv.obj
 0002:0000f8b0       ??_C@_04MLLJIGOK@atan?$AA@ 3005b8b0     LIBC:libm_error.obj
 0002:0000f8b8       ??_C@_04GFPJNGEK@ceil?$AA@ 3005b8b8     LIBC:libm_error.obj
 0002:0000f8c0       ??_C@_05PBJFFIGL@floor?$AA@ 3005b8c0     LIBC:libm_error.obj
 0002:0000f8c8       ??_C@_04EHEDPDJG@modf?$AA@ 3005b8c8     LIBC:libm_error.obj
 0002:0000f8d0       ??_C@_04HPAFEEIN@exp2?$AA@ 3005b8d0     LIBC:libm_error.obj
 0002:0000f8d8       ??_C@_05EOHGHCHD@exp10?$AA@ 3005b8d8     LIBC:libm_error.obj
 0002:0000f8e0       ??_C@_04KGLCPMCP@log2?$AA@ 3005b8e0     LIBC:libm_error.obj
 0002:0000f8e8       ??_C@_03JGHBODFD@pow?$AA@  3005b8e8     LIBC:libm_error.obj
 0002:0000f8ec       ??_C@_03MGHMBJCF@log?$AA@  3005b8ec     LIBC:libm_error.obj
 0002:0000f8f0       ??_C@_05HGHHAHAP@log10?$AA@ 3005b8f0     LIBC:libm_error.obj
 0002:0000f8f8       ??_C@_03KHJOGHMM@exp?$AA@  3005b8f8     LIBC:libm_error.obj
 0002:0000f90c       ??_C@_0N@FFJGBINN@AuthenticAMD?$AA@ 3005b90c     LIBC:cpu_disp.obj
 0002:0000f920       ___newctype                3005b920     LIBC:ctype.obj
 0002:0000fc20       __wctype                   3005bc20     LIBC:ctype.obj
 0002:0000fe28       ___lookuptable             3005be28     LIBC:output.obj
 0002:0000fe84       ??_C@_1O@CEDCILHN@?$AA?$CI?$AAn?$AAu?$AAl?$AAl?$AA?$CJ?$AA?$AA@ 3005be84     LIBC:output.obj
 0002:0000fe94       ??_C@_06OJHGLDPL@?$CInull?$CJ?$AA@ 3005be94     LIBC:output.obj
 0002:0000fe9c       ??_C@_13NOLLCAOD@?$AA?$AA?$AA?$AA@ 3005be9c     LIBC:a_map.obj
 0002:0000fec4       ??_C@_0P@MIGLKIOC@CorExitProcess?$AA@ 3005bec4     LIBC:crt0dat.obj
 0002:0000fed4       ??_C@_0M@MBOPBNBK@mscoree?4dll?$AA@ 3005bed4     LIBC:crt0dat.obj
 0002:0000fefc       ??_C@_0P@GGKDKEEG@runtime?5error?5?$AA@ 3005befc     LIBC:crt0msg.obj
 0002:0000ff0c       ??_C@_02PCIJFNDE@?$AN?6?$AA@ 3005bf0c     LIBC:crt0msg.obj
 0002:0000ff10       ??_C@_0O@MJNIPGOH@TLOSS?5error?$AN?6?$AA@ 3005bf10     LIBC:crt0msg.obj
 0002:0000ff20       ??_C@_0N@BONNPDHF@SING?5error?$AN?6?$AA@ 3005bf20     LIBC:crt0msg.obj
 0002:0000ff30       ??_C@_0P@MBDAJNE@DOMAIN?5error?$AN?6?$AA@ 3005bf30     LIBC:crt0msg.obj
 0002:0000ff40       ??_C@_0KC@BDDGGBEJ@R6029?$AN?6?9?5This?5application?5cannot@ 3005bf40     LIBC:crt0msg.obj
 0002:0000ffe4       ??_C@_0CF@KJDAIALP@R6028?$AN?6?9?5unable?5to?5initialize?5he@ 3005bfe4     LIBC:crt0msg.obj
 0002:0001000c       ??_C@_0DF@GAKBPDFP@R6027?$AN?6?9?5not?5enough?5space?5for?5lo@ 3005c00c     LIBC:crt0msg.obj
 0002:00010044       ??_C@_0DF@IBLNNAIG@R6026?$AN?6?9?5not?5enough?5space?5for?5st@ 3005c044     LIBC:crt0msg.obj
 0002:0001007c       ??_C@_0CG@IOHKGFNJ@R6025?$AN?6?9?5pure?5virtual?5function?5c@ 3005c07c     LIBC:crt0msg.obj
 0002:000100a4       ??_C@_0DF@JIJJFJDC@R6024?$AN?6?9?5not?5enough?5space?5for?5_o@ 3005c0a4     LIBC:crt0msg.obj
 0002:000100dc       ??_C@_0CJ@EGEJHFME@R6019?$AN?6?9?5unable?5to?5open?5console?5@ 3005c0dc     LIBC:crt0msg.obj
 0002:00010108       ??_C@_0CB@GNHNIELH@R6018?$AN?6?9?5unexpected?5heap?5error?$AN?6@ 3005c108     LIBC:crt0msg.obj
 0002:0001012c       ??_C@_0CN@FOLDKNG@R6017?$AN?6?9?5unexpected?5multithread?5@ 3005c12c     LIBC:crt0msg.obj
 0002:0001015c       ??_C@_0CM@FAHFJNHO@R6016?$AN?6?9?5not?5enough?5space?5for?5th@ 3005c15c     LIBC:crt0msg.obj
 0002:00010188       ??_C@_0JG@LBKMGKLD@?$AN?6This?5application?5has?5requested@ 3005c188     LIBC:crt0msg.obj
 0002:00010220       ??_C@_0CM@FLCNIPKK@R6009?$AN?6?9?5not?5enough?5space?5for?5en@ 3005c220     LIBC:crt0msg.obj
 0002:0001024c       ??_C@_0CK@KMMJOAPP@R6008?$AN?6?9?5not?5enough?5space?5for?5ar@ 3005c24c     LIBC:crt0msg.obj
 0002:00010278       ??_C@_0CF@HOHMHDEK@R6002?$AN?6?9?5floating?5point?5not?5load@ 3005c278     LIBC:crt0msg.obj
 0002:000102a0       ??_C@_0CF@GOGNBNAK@Microsoft?5Visual?5C?$CL?$CL?5Runtime?5Lib@ 3005c2a0     LIBC:crt0msg.obj
 0002:000102c8       ??_C@_02PHMGELLB@?6?6?$AA@ 3005c2c8     LIBC:crt0msg.obj
 0002:000102cc       ??_C@_0BK@OFGJDLJJ@Runtime?5Error?$CB?6?6Program?3?5?$AA@ 3005c2cc     LIBC:crt0msg.obj
 0002:000102e8       ??_C@_03KHICJKCI@?4?4?4?$AA@ 3005c2e8     LIBC:crt0msg.obj
 0002:000102ec       ??_C@_0BH@DNAGHKFM@?$DMprogram?5name?5unknown?$DO?$AA@ 3005c2ec     LIBC:crt0msg.obj
 0002:00010324       ??_C@_0L@KDOEJCKC@_nextafter?$AA@ 3005c324     LIBC:fpexcept.obj
 0002:00010330       ??_C@_05JGDBENOH@_logb?$AA@ 3005c330     LIBC:fpexcept.obj
 0002:00010338       ??_C@_03ONILCKOB@_yn?$AA@  3005c338     LIBC:fpexcept.obj
 0002:0001033c       ??_C@_03NAKIGLHK@_y1?$AA@  3005c33c     LIBC:fpexcept.obj
 0002:00010340       ??_C@_03MJLDFKDL@_y0?$AA@  3005c340     LIBC:fpexcept.obj
 0002:00010344       ??_C@_05GKKHEGJL@frexp?$AA@ 3005c344     LIBC:fpexcept.obj
 0002:0001034c       ??_C@_04KEPJIHGP@fmod?$AA@ 3005c34c     LIBC:fpexcept.obj
 0002:00010354       ??_C@_06MEIMCGCF@_hypot?$AA@ 3005c354     LIBC:fpexcept.obj
 0002:0001035c       ??_C@_05KBKMEMPO@_cabs?$AA@ 3005c35c     LIBC:fpexcept.obj
 0002:00010364       ??_C@_05CEJMAHNP@ldexp?$AA@ 3005c364     LIBC:fpexcept.obj
 0002:0001036c       ??_C@_04ODHECPBC@fabs?$AA@ 3005c36c     LIBC:fpexcept.obj
 0002:00010374       ??_C@_03IIINPABG@tan?$AA@  3005c374     LIBC:fpexcept.obj
 0002:00010378       ??_C@_03LALBNOCG@cos?$AA@  3005c378     LIBC:fpexcept.obj
 0002:0001037c       ??_C@_03BLEJJJBH@sin?$AA@  3005c37c     LIBC:fpexcept.obj
 0002:00010380       ??_C@_04EIAKFFMI@sqrt?$AA@ 3005c380     LIBC:fpexcept.obj
 0002:00010388       ??_C@_05KNGEOGJB@atan2?$AA@ 3005c388     LIBC:fpexcept.obj
 0002:00010390       ??_C@_04PDIFKINK@acos?$AA@ 3005c390     LIBC:fpexcept.obj
 0002:00010398       ??_C@_04FIHNOPOL@asin?$AA@ 3005c398     LIBC:fpexcept.obj
 0002:000103a0       ??_C@_04FJHINJAO@tanh?$AA@ 3005c3a0     LIBC:fpexcept.obj
 0002:000103a8       ??_C@_04HPJJNFIM@cosh?$AA@ 3005c3a8     LIBC:fpexcept.obj
 0002:000103b0       ??_C@_04COOMCNPB@sinh?$AA@ 3005c3b0     LIBC:fpexcept.obj
 0002:000103c4       ??_C@_0BI@DFKBFLJE@GetProcessWindowStation?$AA@ 3005c3c4     LIBC:crtmbox.obj
 0002:000103dc       ??_C@_0BK@CIDNPOGP@GetUserObjectInformationA?$AA@ 3005c3dc     LIBC:crtmbox.obj
 0002:000103f8       ??_C@_0BD@HHGDFDBJ@GetLastActivePopup?$AA@ 3005c3f8     LIBC:crtmbox.obj
 0002:0001040c       ??_C@_0BA@HNOPNCHB@GetActiveWindow?$AA@ 3005c40c     LIBC:crtmbox.obj
 0002:0001041c       ??_C@_0M@CHKKJDAI@MessageBoxA?$AA@ 3005c41c     LIBC:crtmbox.obj
 0002:00010428       ??_C@_0L@GMPLCCII@user32?4dll?$AA@ 3005c428     LIBC:crtmbox.obj
 0002:00010434       ??_C@_06IMKFLFPG@1?$CDQNAN?$AA@ 3005c434     LIBC:x10fout.obj
 0002:0001043c       ??_C@_05DNEBIAHO@1?$CDINF?$AA@ 3005c43c     LIBC:x10fout.obj
 0002:00010444       ??_C@_05PHHOCPM@1?$CDIND?$AA@ 3005c444     LIBC:x10fout.obj
 0002:0001044c       ??_C@_06PGGFOGJG@1?$CDSNAN?$AA@ 3005c44c     LIBC:x10fout.obj
 0002:00010454       ??_C@_09KLGCKDOD@Program?3?5?$AA@ 3005c454     LIBC:secfail.obj
 0002:00010460       ??_C@_0KA@JEHFIFGP@A?5buffer?5overrun?5has?5been?5detect@ 3005c460     LIBC:secfail.obj
 0002:00010500       ??_C@_0BJ@MDEKIEOJ@Buffer?5overrun?5detected?$CB?$AA@ 3005c500     LIBC:secfail.obj
 0002:00010520       ??_C@_0LB@BPLHHLFD@A?5security?5error?5of?5unknown?5caus@ 3005c520     LIBC:secfail.obj
 0002:000105d4       ??_C@_0CD@GMKACBEK@Unknown?5security?5failure?5detecte@ 3005c5d4     LIBC:secfail.obj
 0002:00010608       __load_config_used         3005c608     LIBC:loadcfg.obj
 0002:00010650       ___safe_se_handler_table   3005c650     <linker-defined>
 0002:00010658       ___rtc_iaa                 3005c658     LIBC:initsect.obj
 0002:0001065c       ___rtc_izz                 3005c65c     LIBC:initsect.obj
 0002:00010660       ___rtc_taa                 3005c660     LIBC:initsect.obj
 0002:00010664       ___rtc_tzz                 3005c664     LIBC:initsect.obj
 0002:00010668       __IMPORT_DESCRIPTOR_KERNEL32 3005c668     kernel32:KERNEL32.dll
 0002:0001067c       __NULL_IMPORT_DESCRIPTOR   3005c67c     kernel32:KERNEL32.dll
 0003:00000000       ___xc_a                    3005d000     LIBC:crt0init.obj
 0003:00000008       ___xc_z                    3005d008     LIBC:crt0init.obj
 0003:0000000c       ___xi_a                    3005d00c     LIBC:crt0init.obj
 0003:00000020       ___xi_z                    3005d020     LIBC:crt0init.obj
 0003:00000024       ___xp_a                    3005d024     LIBC:crt0init.obj
 0003:0000002c       ___xp_z                    3005d02c     LIBC:crt0init.obj
 0003:00000030       ___xt_a                    3005d030     LIBC:crt0init.obj
 0003:00000034       ___xt_z                    3005d034     LIBC:crt0init.obj
 0003:00000040       _forceMasteryLevels        3005d040     bg_misc.obj
 0003:00000060       _forceMasteryPoints        3005d060     bg_misc.obj
 0003:00000080       _bgForcePowerCost          3005d080     bg_misc.obj
 0003:000001a0       _forcePowerSorted          3005d1a0     bg_misc.obj
 0003:000001e8       _forcePowerDarkLight       3005d1e8     bg_misc.obj
 0003:00000230       _WeaponReadyAnim           3005d230     bg_misc.obj
 0003:00000270       _WeaponAttackAnim          3005d270     bg_misc.obj
 0003:000002b0       _bg_itemlist               3005d2b0     bg_misc.obj
 0003:00000b6c       _bg_numItems               3005db6c     bg_misc.obj
 0003:00000b70       _eventnames                3005db70     bg_misc.obj
 0003:00000d30       _animTable                 3005dd30     bg_panimate.obj
 0003:00003308       _pm_stopspeed              30060308     bg_pmove.obj
 0003:0000330c       _pm_duckScale              3006030c     bg_pmove.obj
 0003:00003310       _pm_swimScale              30060310     bg_pmove.obj
 0003:00003314       _pm_wadeScale              30060314     bg_pmove.obj
 0003:00003318       _pm_accelerate             30060318     bg_pmove.obj
 0003:0000331c       _pm_airaccelerate          3006031c     bg_pmove.obj
 0003:00003320       _pm_wateraccelerate        30060320     bg_pmove.obj
 0003:00003324       _pm_flyaccelerate          30060324     bg_pmove.obj
 0003:00003328       _pm_friction               30060328     bg_pmove.obj
 0003:0000332c       _pm_waterfriction          3006032c     bg_pmove.obj
 0003:00003330       _pm_flightfriction         30060330     bg_pmove.obj
 0003:00003334       _pm_spectatorfriction      30060334     bg_pmove.obj
 0003:00003338       _forceSpeedLevels          30060338     bg_pmove.obj
 0003:00003348       _forcePowerNeeded          30060348     bg_pmove.obj
 0003:00003468       _forceJumpHeight           30060468     bg_pmove.obj
 0003:00003478       _forceJumpStrength         30060478     bg_pmove.obj
 0003:00003488       _saberMoveData             30060488     bg_saber.obj
 0003:000046f8       _transitionMove            300616f8     bg_saber.obj
 0003:000047f8       _saberMoveTransitionAngle  300617f8     bg_saber.obj
 0003:000048f8       _WP_MuzzlePoint            300618f8     bg_weapons.obj
 0003:000049b8       _weaponData                300619b8     bg_weapons.obj
 0003:00004d38       _ammoData                  30061d38     bg_weapons.obj
 0003:00004ee0       _bluehudtint               30061ee0     cg_draw.obj
 0003:00004ef0       _redhudtint                30061ef0     cg_draw.obj
 0003:00004f00       _showPowersName            30061f00     cg_draw.obj
 0003:00004f58       _forceHolocronModels       30061f58     cg_ents.obj
 0003:00004fa0       _colorTable                30061fa0     cg_main.obj
 0003:000053d0       _HolocronIcons             300623d0     cg_main.obj
 0003:00005418       _forceModelModificationCount 30062418     cg_main.obj
 0003:00005bf8       _forceTicPos               30062bf8     cg_main.obj
 0003:00005d48       _ammoTicPos                30062d48     cg_main.obj
 0003:00006018       _cl_numparticles           30063018     cg_marks.obj
 0003:0000601c       _drawTeamOverlayModificationCount 3006301c     cg_newDraw.obj
 0003:00006028       _cg_customSoundNames       30063028     cg_players.obj
 0003:00006110       _axisDefault               30063110     q_math.obj
 0003:00006134       _colorBlack                30063134     q_math.obj
 0003:00006144       _colorRed                  30063144     q_math.obj
 0003:00006154       _colorGreen                30063154     q_math.obj
 0003:00006164       _colorBlue                 30063164     q_math.obj
 0003:00006174       _colorYellow               30063174     q_math.obj
 0003:00006184       _colorMagenta              30063184     q_math.obj
 0003:00006194       _colorCyan                 30063194     q_math.obj
 0003:000061a4       _colorWhite                300631a4     q_math.obj
 0003:000061b4       _colorLtGrey               300631b4     q_math.obj
 0003:000061c4       _colorMdGrey               300631c4     q_math.obj
 0003:000061d4       _colorDkGrey               300631d4     q_math.obj
 0003:000061e4       _colorLtBlue               300631e4     q_math.obj
 0003:000061f4       _colorDkBlue               300631f4     q_math.obj
 0003:00006208       _g_color_table             30063208     q_math.obj
 0003:00006288       _bytedirs                  30063288     q_math.obj
 0003:00006a28       _itemFlags                 30063a28     ui_shared.obj
 0003:00006a38       _styles                    30063a38     ui_shared.obj
 0003:00006a54       _alignment                 30063a54     ui_shared.obj
 0003:00006a68       _types                     30063a68     ui_shared.obj
 0003:00006ab0       _commandList               30063ab0     ui_shared.obj
 0003:00006b70       _scriptCommandCount        30063b70     ui_shared.obj
 0003:000073d0       _itemParseKeywords         300643d0     ui_shared.obj
 0003:00007730       _menuParseKeywords         30064730     ui_shared.obj
 0003:000078d4       __fltused                  300648d4     LIBC:fpinit.obj
 0003:000078d8       __ldused                   300648d8     LIBC:fpinit.obj
 0003:000078dc       __FPinit                   300648dc     LIBC:fpinit.obj
 0003:000078e0       __FPmtinit                 300648e0     LIBC:fpinit.obj
 0003:000078e4       __FPmtterm                 300648e4     LIBC:fpinit.obj
 0003:00007900       __aexit_rtn                30064900     LIBC:dllcrt0.obj
 0003:00007910       __cfltcvt_tab              30064910     LIBC:cmiscdat.obj
 0003:00007928       __pmatherr                 30064928     LIBC:libm_error.obj
 0003:00007940       __pctype                   30064940     LIBC:ctype.obj
 0003:00007944       __pwctype                  30064944     LIBC:ctype.obj
 0003:00007948       ___mb_cur_max              30064948     LIBC:nlsdata1.obj
 0003:0000794c       ___decimal_point           3006494c     LIBC:nlsdata1.obj
 0003:00007950       ___decimal_point_length    30064950     LIBC:nlsdata1.obj
 0003:00007954       ___nullstring              30064954     LIBC:output.obj
 0003:00007958       ___wnullstring             30064958     LIBC:output.obj
 0003:0000795c       ___lc_clike                3006495c     LIBC:nlsdata2.obj
 0003:00007960       ___badioinfo               30064960     LIBC:ioinit.obj
 0003:00007968       __amblksiz                 30064968     LIBC:heapinit.obj
 0003:00007970       __XcptActTab               30064970     LIBC:winxfltr.obj
 0003:000079e8       __First_FPE_Indx           300649e8     LIBC:winxfltr.obj
 0003:000079ec       __Num_FPE                  300649ec     LIBC:winxfltr.obj
 0003:000079f0       __XcptActTabCount          300649f0     LIBC:winxfltr.obj
 0003:000079f4       __fpecode                  300649f4     LIBC:winxfltr.obj
 0003:00007bc0       __matherr_flag             30064bc0     LIBC:matherr.obj
 0003:00007bc4       ___security_cookie         30064bc4     LIBC:seccook.obj
 0003:00007cb8       __d_inf                    30064cb8     LIBC:util.obj
 0003:00007cc0       __d_ind                    30064cc0     LIBC:util.obj
 0003:00007cc8       __d_max                    30064cc8     LIBC:util.obj
 0003:00007cd0       __d_min                    30064cd0     LIBC:util.obj
 0003:00007cd8       __d_mzero                  30064cd8     LIBC:util.obj
 0003:00007cf8       __iob                      30064cf8     LIBC:_file.obj
 0003:00007f80       __NLG_Destination          30064f80     LIBC:exsup.obj
 0003:000080f8       __pow10pos                 300650f8     LIBC:constpow.obj
 0003:00008258       __pow10neg                 30065258     LIBC:constpow.obj
 0003:001fc3c4       _BGPAFtextLoaded           302593c4     bg_panimate.obj
 0003:001fc3c8       _gPMDoSlowFall             302593c8     bg_pmove.obj
 0003:001fc3cc       _c_pmove                   302593cc     bg_pmove.obj
 0003:001fc3e8       _menuScoreboard            302593e8     cg_draw.obj
 0003:001fc3ec       _g_saberFlashTime          302593ec     cg_draw.obj
 0003:001fc3f0       _g_saberFlashPos           302593f0     cg_draw.obj
 0003:001fc400       _cgRageTime                30259400     cg_draw.obj
 0003:001fc404       _cgRageFadeTime            30259404     cg_draw.obj
 0003:001fc408       _cgRageFadeVal             30259408     cg_draw.obj
 0003:001fc40c       _cgRageRecTime             3025940c     cg_draw.obj
 0003:001fc410       _cgRageRecFadeTime         30259410     cg_draw.obj
 0003:001fc414       _cgRageRecFadeVal          30259414     cg_draw.obj
 0003:001fc418       _cgAbsorbTime              30259418     cg_draw.obj
 0003:001fc41c       _cgAbsorbFadeTime          3025941c     cg_draw.obj
 0003:001fc420       _cgAbsorbFadeVal           30259420     cg_draw.obj
 0003:001fc424       _cgProtectTime             30259424     cg_draw.obj
 0003:001fc428       _cgProtectFadeTime         30259428     cg_draw.obj
 0003:001fc42c       _cgProtectFadeVal          3025942c     cg_draw.obj
 0003:001fc430       _cgYsalTime                30259430     cg_draw.obj
 0003:001fc434       _cgYsalFadeTime            30259434     cg_draw.obj
 0003:001fc438       _cgYsalFadeVal             30259438     cg_draw.obj
 0003:001fc43c       _gCGHasFallVector          3025943c     cg_draw.obj
 0003:0020bf3c       _initparticles             30268f3c     cg_marks.obj
 0003:0020bf44       _cgQueueLoad               30268f44     cg_players.obj
 0003:0020bf48       _cgFPLSState               30268f48     cg_players.obj
 0003:0020bf4c       _cgAnnouncerTime           30268f4c     cg_playerstate.obj
 0003:0020c8d8       _cameraCurTarget           302698d8     cg_view.obj
 0003:0020c8e4       _cameraCurLoc              302698e4     cg_view.obj
 0003:0020c8f0       _cameraOldLoc              302698f0     cg_view.obj
 0003:0020c8fc       _cameraNewLoc              302698fc     cg_view.obj
 0003:0020c908       _cameraLastFrame           30269908     cg_view.obj
 0003:0020c90c       _cameraLastYaw             3026990c     cg_view.obj
 0003:0020c910       _cameraStiffFactor         30269910     cg_view.obj
 0003:0020c95c       _vec3_origin               3026995c     q_math.obj
 0003:00486bbc       _DC                        304e3bbc     ui_shared.obj
 0003:00486bd0       _menuCount                 304e3bd0     ui_shared.obj
 0003:00486bd4       _openMenuCount             304e3bd4     ui_shared.obj
 0003:00486be8       _FPMessageTime             304e3be8     ui_shared.obj
 0003:00486bec       _ui_deferredScriptItem     304e3bec     ui_shared.obj
 0003:00486bf4       ___fastflag                304e3bf4     LIBC:fpinit.obj
 0003:00486bf8       __adjust_fdiv              304e3bf8     LIBC:fpinit.obj
 0003:00486c00       __aenvptr                  304e3c00     LIBC:dllcrt0.obj
 0003:00486c04       __wenvptr                  304e3c04     LIBC:dllcrt0.obj
 0003:00486c08       ___error_mode              304e3c08     LIBC:dllcrt0.obj
 0003:00486c0c       ___app_type                304e3c0c     LIBC:dllcrt0.obj
 0003:00486c3c       ___lc_handle               304e3c3c     LIBC:nlsdata2.obj
 0003:00486c54       ___lc_codepage             304e3c54     LIBC:nlsdata2.obj
 0003:00486c58       ___lc_collate_cp           304e3c58     LIBC:nlsdata2.obj
 0003:00486c5c       _errno                     304e3c5c     LIBC:crt0dat.obj
 0003:00486c60       __doserrno                 304e3c60     LIBC:crt0dat.obj
 0003:00486c64       __umaskval                 304e3c64     LIBC:crt0dat.obj
 0003:00486c68       __osplatform               304e3c68     LIBC:crt0dat.obj
 0003:00486c6c       __osver                    304e3c6c     LIBC:crt0dat.obj
 0003:00486c70       __winver                   304e3c70     LIBC:crt0dat.obj
 0003:00486c74       __winmajor                 304e3c74     LIBC:crt0dat.obj
 0003:00486c78       __winminor                 304e3c78     LIBC:crt0dat.obj
 0003:00486c7c       ___argc                    304e3c7c     LIBC:crt0dat.obj
 0003:00486c80       ___argv                    304e3c80     LIBC:crt0dat.obj
 0003:00486c84       ___wargv                   304e3c84     LIBC:crt0dat.obj
 0003:00486c88       __environ                  304e3c88     LIBC:crt0dat.obj
 0003:00486c8c       ___initenv                 304e3c8c     LIBC:crt0dat.obj
 0003:00486c90       __wenviron                 304e3c90     LIBC:crt0dat.obj
 0003:00486c94       ___winitenv                304e3c94     LIBC:crt0dat.obj
 0003:00486c98       __pgmptr                   304e3c98     LIBC:crt0dat.obj
 0003:00486c9c       __wpgmptr                  304e3c9c     LIBC:crt0dat.obj
 0003:00486ca0       __exitflag                 304e3ca0     LIBC:crt0dat.obj
 0003:00486ca4       __C_Termination_Done       304e3ca4     LIBC:crt0dat.obj
 0003:00486ca8       __C_Exit_Done              304e3ca8     LIBC:crt0dat.obj
 0003:00486dbc       __pxcptinfoptrs            304e3dbc     LIBC:winxfltr.obj
 0003:00486dc0       __adbgmsg                  304e3dc0     LIBC:crt0msg.obj
 0003:00486df8       __cflush                   304e3df8     LIBC:_file.obj
 0003:00486e64       ?_pnhHeap@@3P6AHI@ZA       304e3e64     LIBC:handler.obj
 0003:00486e68       __newmode                  304e3e68     LIBC:_newmode.obj
 0003:00486e80       _itemParseKeywordHash      304e3e80     <common>
 0003:00487680       _Menus                     304e4680     <common>
 0003:0049c280       _menuParseKeywordHash      304f9280     <common>
 0003:0049ca80       _menuStack                 304f9a80     <common>
 0003:0049cac0       _ui_deferredScript         304f9ac0     <common>
 0003:0049d2c0       _g2WeaponInstances         304fa2c0     <common>
 0003:0049d300       _cgScreenEffects           304fa300     <common>
 0003:0049d320       _cameraIdealLoc            304fa320     <common>
 0003:0049d330       _cameraIdealTarget         304fa330     <common>
 0003:0049d340       _cameraFocusAngles         304fa340     <common>
 0003:0049d350       _cameraFocusLoc            304fa350     <common>
 0003:0049d360       _cameraup                  304fa360     <common>
 0003:0049d36c       _zoomFov                   304fa36c     <common>
 0003:0049d370       _camerafwd                 304fa370     <common>
 0003:0049d380       _voiceChatLists            304fa380     <common>
 0003:006c5dc0       _voiceChatBuffer           30722dc0     <common>
 0003:006c84c0       _cg_saga_valid             307254c0     <common>
 0003:006c84e0       _cg_saga_info              307254e0     <common>
 0003:006ca4e0       _cgSendPS                  307274e0     <common>
 0003:006d5160       _cgBoneAnglePostSet        30732160     <common>
 0003:006d5198       _cg_freeMarkPolys          30732198     <common>
 0003:006d519c       _active_particles          3073219c     <common>
 0003:006d51a0       _cg_markPolys              307321a0     <common>
 0003:006e71a0       _oldtime                   307441a0     <common>
 0003:006e71b0       _rup                       307441b0     <common>
 0003:006e71c0       _particles                 307441c0     <common>
 0003:007061c0       _rright                    307631c0     <common>
 0003:007061cc       _free_particles            307631cc     <common>
 0003:007061d0       _rforward                  307631d0     <common>
 0003:007061e0       _pvright                   307631e0     <common>
 0003:007061f0       _pvforward                 307631f0     <common>
 0003:00706200       _cg_activeMarkPolys        30763200     <common>
 0003:00706320       _pvup                      30763320     <common>
 0003:00706340       _cg_saberContact           30763340     <common>
 0003:00706460       _cg_trueLightning          30763460     <common>
 0003:00706580       _cg_weapons                30763580     <common>
 0003:00707280       _cg_timescaleFadeEnd       30764280     <common>
 0003:007073a0       _cg_drawTeamOverlay        307643a0     <common>
 0003:007074c0       _cg_gun_y                  307644c0     <common>
 0003:007075e0       _cg_noTaunt                307645e0     <common>
 0003:00707700       _cg_animSpeed              30764700     <common>
 0003:00707820       _cgDC                      30764820     <common>
 0003:0070a660       _cg_thirdPersonTargetDamp  30767660     <common>
 0003:0070a780       _cg_stats                  30767780     <common>
 0003:0070a8a0       _cg_drawRewards            307678a0     <common>
 0003:0070a9c0       _cg_auraShell              307679c0     <common>
 0003:0070aae0       _cg_scorePlum              30767ae0     <common>
 0003:0070ac00       _cg_oldPainSounds          30767c00     <common>
 0003:0070ad20       _cgs                       30767d20     <common>
 0003:0071c560       _cg_drawFPS                30779560     <common>
 0003:0071c680       _cg_thirdPerson            30779680     <common>
 0003:0071c7a0       _cg_debugBB                307797a0     <common>
 0003:0071c8c0       _cg_currentSelectedPlayer  307798c0     <common>
 0003:0071c9e0       _cg_zoomFov                307799e0     <common>
 0003:0071cb00       _cg_drawCrosshair          30779b00     <common>
 0003:0071cc20       _cg_saberDynamicMarks      30779c20     <common>
 0003:0071cd40       _cg_cameraOrbitDelay       30779d40     <common>
 0003:0071ce60       _cg_shadows                30779e60     <common>
 0003:0071cf80       _cg_thirdPersonVertOffset  30779f80     <common>
 0003:0071d0a0       _cg_debugAnim              3077a0a0     <common>
 0003:0071d1c0       _cg_timescale              3077a1c0     <common>
 0003:0071d2e0       _cg_addMarks               3077a2e0     <common>
 0003:0071d400       _cg_gun_z                  3077a400     <common>
 0003:0071d520       _pmove_msec                3077a520     <common>
 0003:0071d640       _cg_autoswitch             3077a640     <common>
 0003:0071d760       _cg_recordSPDemoName       3077a760     <common>
 0003:0071d880       _cg_noVoiceText            3077a880     <common>
 0003:0071d9a0       _cg_drawStatus             3077a9a0     <common>
 0003:0071dac0       _cg_drawSnapshot           3077aac0     <common>
 0003:0071dbe0       _cg_gun_frame              3077abe0     <common>
 0003:0071dd00       _cg_drawEnemyInfo          3077ad00     <common>
 0003:0071de20       _cg_runpitch               3077ae20     <common>
 0003:0071df40       _cg_drawTimer              3077af40     <common>
 0003:0071e060       _cg_drawFriend             3077b060     <common>
 0003:0071e180       _cg_debugSaber             3077b180     <common>
 0003:0071e2a0       _cg_duelHeadAngles         3077b2a0     <common>
 0003:0071e3c0       _cg_draw2D                 3077b3c0     <common>
 0003:0071e4e0       _cg_drawScores             3077b4e0     <common>
 0003:0071e600       _cg_gun_x                  3077b600     <common>
 0003:0071e720       _cg_drawAmmoWarning        3077b720     <common>
 0003:0071e840       _cg_debugPosition          3077b840     <common>
 0003:0071e960       _cg_animBlend              3077b960     <common>
 0003:0071ea80       _cg_cameraMode             3077ba80     <common>
 0003:0071eba0       _cg_bigFont                3077bba0     <common>
 0003:0071ecc0       _cg_drawGun                3077bcc0     <common>
 0003:0071ede0       _cg_recordSPDemo           3077bde0     <common>
 0003:0071ef00       _cg_centertime             3077bf00     <common>
 0003:0071f020       _cg_forceModel             3077c020     <common>
 0003:0071f140       _cg_items                  3077c140     <common>
 0003:00722940       _cg_speedTrail             3077f940     <common>
 0003:00722a60       _cg_crosshairHealth        3077fa60     <common>
 0003:00722b80       _cg_noProjectileTrail      3077fb80     <common>
 0003:00722ca0       _cg_crosshairY             3077fca0     <common>
 0003:00722dc0       _cg_dynamicCrosshair       3077fdc0     <common>
 0003:00722ee0       _cg_draw3dIcons            3077fee0     <common>
 0003:00723000       _cg_redTeamName            30780000     <common>
 0003:00723120       _cg_simpleItems            30780120     <common>
 0003:00723240       _cg_hudFiles               30780240     <common>
 0003:00723360       _ui_myteam                 30780360     <common>
 0003:00723480       _cg_tracerChance           30780480     <common>
 0003:007235a0       _cg_thirdPersonRange       307805a0     <common>
 0003:007236c0       _cg_thirdPersonHorzOffset  307806c0     <common>
 0003:007237e0       _cg_debugEvents            307807e0     <common>
 0003:00723900       _cg_stereoSeparation       30780900     <common>
 0003:00723a20       _cg_singlePlayer           30780a20     <common>
 0003:00723b40       _cg_smoothClients          30780b40     <common>
 0003:00723c60       _cg_bobroll                30780c60     <common>
 0003:00723d80       _cg_saberModelTraceEffect  30780d80     <common>
 0003:00723ea0       _cg_ignore                 30780ea0     <common>
 0003:00723fc0       _cg_smallFont              30780fc0     <common>
 0003:007240e0       _cg_drawCrosshairNames     307810e0     <common>
 0003:00724200       _cg_thirdPersonAlpha       30781200     <common>
 0003:00724320       _cg_crosshairX             30781320     <common>
 0003:00724440       _cg_footsteps              30781440     <common>
 0003:00724560       _cg_noVoiceChats           30781560     <common>
 0003:00724680       _cg_enableBreath           30781680     <common>
 0003:007247a0       _cg_saberTrail             307817a0     <common>
 0003:007248c0       _cg_teamChatTime           307818c0     <common>
 0003:007249e0       _cg_nopredict              307819e0     <common>
 0003:00724b00       _cg_buildScript            30781b00     <common>
 0003:00724c20       _cg_synchronousClients     30781c20     <common>
 0003:00724d40       _cg_enableDust             30781d40     <common>
 0003:00724e60       _cg_thirdPersonCameraDamp  30781e60     <common>
 0003:00724f80       _cg_bobpitch               30781f80     <common>
 0003:007250a0       _cg_lagometer              307820a0     <common>
 0003:007251c0       _cg_errorDecay             307821c0     <common>
 0003:007252e0       _cg_teamChatHeight         307822e0     <common>
 0003:00725400       _cg_runroll                30782400     <common>
 0003:00725520       _cg                        30782520     <common>
 0003:0074ee60       _cg_cameraOrbit            307abe60     <common>
 0003:0074ef80       _cg_bobup                  307abf80     <common>
 0003:0074f0a0       _cg_tracerWidth            307ac0a0     <common>
 0003:0074f1c0       _cg_singlePlayerActive     307ac1c0     <common>
 0003:0074f2e0       _cg_fpls                   307ac2e0     <common>
 0003:0074f400       _cg_timescaleFadeSpeed     307ac400     <common>
 0003:0074f520       _cg_entities               307ac520     <common>
 0003:0092f520       _pmove_fixed               3098c520     <common>
 0003:0092f640       _cg_saberDynamicMarkTime   3098c640     <common>
 0003:0092f760       _cg_swingAngles            3098c760     <common>
 0003:0092f880       _cg_teamOverlayUserinfo    3098c880     <common>
 0003:0092f9a0       _cg_blood                  3098c9a0     <common>
 0003:0092fac0       _cg_teamChatsOnly          3098cac0     <common>
 0003:0092fbe0       _cg_viewsize               3098cbe0     <common>
 0003:0092fd00       _cg_deferPlayers           3098cd00     <common>
 0003:0092fe20       _cg_blueTeamName           3098ce20     <common>
 0003:0092ff40       _cg_showmiss               3098cf40     <common>
 0003:00930060       _cg_noPlayerAnims          3098d060     <common>
 0003:00930180       _cg_crosshairSize          3098d180     <common>
 0003:009302a0       _cg_drawIcons              3098d2a0     <common>
 0003:009303c0       _cg_predictItems           3098d3c0     <common>
 0003:009304e0       _cg_thirdPersonPitchOffset 3098d4e0     <common>
 0003:00930600       _cg_fov                    3098d600     <common>
 0003:00930720       _cg_dismember              3098d720     <common>
 0003:00930840       _cg_paused                 3098d840     <common>
 0003:00930960       _cg_thirdPersonAngle       3098d960     <common>
 0003:00930a80       _cg_currentSelectedPlayerName 3098da80     <common>
 0003:00930ba0       _cg_tracerLength           3098dba0     <common>
 0003:00930cc0       _cg_localEntities          3098dcc0     <common>
 0003:0096a4c0       _cg_freeLocalEntities      309c74c0     <common>
 0003:0096a4e0       _cg_activeLocalEntities    309c74e0     <common>
 0003:0096a6b0       _dbModels_Rocks            309c76b0     <common>
 0003:0096a6c0       _dbModels_Glass            309c76c0     <common>
 0003:0096a6e0       _dbModels_Wood             309c76e0     <common>
 0003:0096a700       _dbModels_Chunks           309c7700     <common>
 0003:0096a720       _lagometer                 309c7720     <common>
 0003:0096ad28       _hudTintColor              309c7d28     <common>
 0003:0096ad30       _gCGFallVector             309c7d30     <common>
 0003:0096ad3c       _lastvalidlockdif          309c7d3c     <common>
 0003:0096ad40       _sortedTeamPlayers         309c7d40     <common>
 0003:0096adc0       _teamChat1                 309c7dc0     <common>
 0003:0096aec0       _numSortedTeamPlayers      309c7ec0     <common>
 0003:0096aee0       _systemChat                309c7ee0     <common>
 0003:0096afe0       _teamChat2                 309c7fe0     <common>
 0003:0096b0e0       _pml                       309c80e0     <common>
 0003:0096b56c       _pm                        309c856c     <common>
 0003:0096b580       _bgGlobalAnimations        309c8580     <common>
 0003:00973a00       _BGPAFtext                 309d0a00     <common>
 0003:0097d640       ___sbh_pHeaderDefer        309da640     <common>
 0003:0097d644       ___sbh_cntHeaderList       309da644     <common>
 0003:0097d648       ___sbh_pHeaderList         309da648     <common>
 0003:0097d64c       ___sbh_threshold           309da64c     <common>
 0003:0097d650       ___sbh_pHeaderScan         309da650     <common>
 0003:0097d654       ___sbh_sizeHeaderList      309da654     <common>
 0003:0097d658       ___sbh_indGroupDefer       309da658     <common>
 0003:0097d65c       ___piob                    309da65c     <common>
 0003:0097d660       __bufin                    309da660     <common>
 0003:0097e660       __nstream                  309db660     <common>
 0003:0097e664       ___mblcid                  309db664     <common>
 0003:0097e668       ___ismbcodepage            309db668     <common>
 0003:0097e680       __mbctype                  309db680     <common>
 0003:0097e784       ___mbcodepage              309db784     <common>
 0003:0097e790       ___mbulinfo                309db790     <common>
 0003:0097e7a0       __mbcasemap                309db7a0     <common>
 0003:0097e8a0       __crtheap                  309db8a0     <common>
 0003:0097e8a4       ___active_heap             309db8a4     <common>
 0003:0097e8a8       __nhandle                  309db8a8     <common>
 0003:0097e8c0       ___pioinfo                 309db8c0     <common>
 0003:0097e9c0       ___env_initialized         309db9c0     <common>
 0003:0097e9c4       ___onexitend               309db9c4     <common>
 0003:0097e9c8       ___onexitbegin             309db9c8     <common>
 0003:0097e9cc       ___mbctype_initialized     309db9cc     <common>
 0003:0097e9d0       ___use_sse2_mathfcns       309db9d0     <common>
 0003:0097e9d4       ___sse2_available          309db9d4     <common>
 0003:0097e9d8       __acmdln                   309db9d8     <common>
 0003:0097e9dc       __pRawDllMain              309db9dc     <common>

 entry point at        0001:000432d8

 Static symbols

 0001:000016f0       _PM_StartLegsAnim          300026f0 f   bg_panimate.obj
 0001:00001d00       _PM_Friction               30002d00 f   bg_pmove.obj
 0001:00001e30       _PM_Accelerate             30002e30 f   bg_pmove.obj
 0001:00001eb0       _PM_CmdScale               30002eb0 f   bg_pmove.obj
 0001:00001f30       _PM_SetMovementDir         30002f30 f   bg_pmove.obj
 0001:000020f0       _PM_JumpForDir             300030f0 f   bg_pmove.obj
 0001:000024f0       _PM_CheckJump              300034f0 f   bg_pmove.obj
 0001:000039d0       _PM_CheckWaterJump         300049d0 f   bg_pmove.obj
 0001:00003b30       _PM_WaterJumpMove          30004b30 f   bg_pmove.obj
 0001:00003b80       _PM_WaterMove              30004b80 f   bg_pmove.obj
 0001:00003da0       _PM_FlyMove                30004da0 f   bg_pmove.obj
 0001:00003ee0       _PM_AirMove                30004ee0 f   bg_pmove.obj
 0001:00004080       _PM_WalkMove               30005080 f   bg_pmove.obj
 0001:00004550       _PM_DeadMove               30005550 f   bg_pmove.obj
 0001:00004610       _PM_NoclipMove             30005610 f   bg_pmove.obj
 0001:00004830       _PM_TryRoll                30005830 f   bg_pmove.obj
 0001:00004af0       _PM_CrashLand              30005af0 f   bg_pmove.obj
 0001:00004f60       _PM_CorrectAllSolid        30005f60 f   bg_pmove.obj
 0001:00005120       _PM_GroundTraceMissed      30006120 f   bg_pmove.obj
 0001:000053a0       _PM_GroundTrace            300063a0 f   bg_pmove.obj
 0001:00005640       _PM_SetWaterLevel          30006640 f   bg_pmove.obj
 0001:00005770       _PM_CheckDuck              30006770 f   bg_pmove.obj
 0001:00005ab0       _PM_Footsteps              30006ab0 f   bg_pmove.obj
 0001:00005fd0       _PM_WaterEvents            30006fd0 f   bg_pmove.obj
 0001:00006190       _PM_DoChargedWeapons       30007190 f   bg_pmove.obj
 0001:00006790       _PM_Weapon                 30007790 f   bg_pmove.obj
 0001:00007680       _PM_Animate                30008680 f   bg_pmove.obj
 0001:00007710       _PM_DropTimers             30008710 f   bg_pmove.obj
 0001:0000b4a0       _CG_SizeUp_f               3000c4a0 f   cg_consolecmds.obj
 0001:0000b4d0       _CG_SizeDown_f             3000c4d0 f   cg_consolecmds.obj
 0001:0000b500       _CG_Viewpos_f              3000c500 f   cg_consolecmds.obj
 0001:0000b550       _CG_ScoresDown_f           3000c550 f   cg_consolecmds.obj
 0001:0000b5a0       _CG_ScoresUp_f             3000c5a0 f   cg_consolecmds.obj
 0001:0000b5c0       _CG_scrollScoresDown_f     3000c5c0 f   cg_consolecmds.obj
 0001:0000b600       _CG_scrollScoresUp_f       3000c600 f   cg_consolecmds.obj
 0001:0000b640       _CG_spWin_f                3000c640 f   cg_consolecmds.obj
 0001:0000b6b0       _CG_spLose_f               3000c6b0 f   cg_consolecmds.obj
 0001:0000b720       _CG_TellTarget_f           3000c720 f   cg_consolecmds.obj
 0001:0000b780       _CG_TellAttacker_f         3000c780 f   cg_consolecmds.obj
 0001:0000b7e0       _CG_VoiceTellTarget_f      3000c7e0 f   cg_consolecmds.obj
 0001:0000b840       _CG_VoiceTellAttacker_f    3000c840 f   cg_consolecmds.obj
 0001:0000b8a0       _CG_NextTeamMember_f       3000c8a0 f   cg_consolecmds.obj
 0001:0000b8b0       _CG_PrevTeamMember_f       3000c8b0 f   cg_consolecmds.obj
 0001:0000b8c0       _CG_NextOrder_f            3000c8c0 f   cg_consolecmds.obj
 0001:0000b960       _CG_ConfirmOrder_f         3000c960 f   cg_consolecmds.obj
 0001:0000b9c0       _CG_DenyOrder_f            3000c9c0 f   cg_consolecmds.obj
 0001:0000ba10       _CG_TaskOffense_f          3000ca10 f   cg_consolecmds.obj
 0001:0000ba60       _CG_TaskDefense_f          3000ca60 f   cg_consolecmds.obj
 0001:0000ba90       _CG_TaskPatrol_f           3000ca90 f   cg_consolecmds.obj
 0001:0000bac0       _CG_TaskCamp_f             3000cac0 f   cg_consolecmds.obj
 0001:0000baf0       _CG_TaskFollow_f           3000caf0 f   cg_consolecmds.obj
 0001:0000bb20       _CG_TaskRetrieve_f         3000cb20 f   cg_consolecmds.obj
 0001:0000bb50       _CG_TaskEscort_f           3000cb50 f   cg_consolecmds.obj
 0001:0000bb80       _CG_TaskOwnFlag_f          3000cb80 f   cg_consolecmds.obj
 0001:0000bba0       _CG_TauntKillInsult_f      3000cba0 f   cg_consolecmds.obj
 0001:0000bbb0       _CG_TauntPraise_f          3000cbb0 f   cg_consolecmds.obj
 0001:0000bbc0       _CG_TauntTaunt_f           3000cbc0 f   cg_consolecmds.obj
 0001:0000bbd0       _CG_TauntDeathInsult_f     3000cbd0 f   cg_consolecmds.obj
 0001:0000bbe0       _CG_TauntGauntlet_f        3000cbe0 f   cg_consolecmds.obj
 0001:0000bbf0       _CG_TaskSuicide_f          3000cbf0 f   cg_consolecmds.obj
 0001:0000bc30       _CG_StartOrbit_f           3000cc30 f   cg_consolecmds.obj
 0001:0000c0a0       _CG_DrawZoomMask           3000d0a0 f   cg_draw.obj
 0001:0000ce40       _CG_DrawAmmo               3000de40 f   cg_draw.obj
 0001:0000dd30       _CG_DrawMiniScoreboard     3000ed30 f   cg_draw.obj
 0001:0000de50       _CG_DrawEnemyInfo          3000ee50 f   cg_draw.obj
 0001:0000e230       _CG_DrawSnapshot           3000f230 f   cg_draw.obj
 0001:0000e2a0       _CG_DrawFPS                3000f2a0 f   cg_draw.obj
 0001:0000e360       _CG_DrawTimer              3000f360 f   cg_draw.obj
 0001:0000e400       _CG_DrawTeamOverlay        3000f400 f   cg_draw.obj
 0001:0000e830       _CG_DrawPowerupIcons       3000f830 f   cg_draw.obj
 0001:0000e940       _CG_DrawUpperRight         3000f940 f   cg_draw.obj
 0001:0000ea60       _CG_DrawDisconnect         3000fa60 f   cg_draw.obj
 0001:0000eb80       _CG_DrawLagometer          3000fb80 f   cg_draw.obj
 0001:0000eee0       _CG_DrawCenterString       3000fee0 f   cg_draw.obj
 0001:0000f310       _CG_DrawHolocronIcons      30010310 f   cg_draw.obj
 0001:0000f3e0       _CG_DrawActivePowers       300103e0 f   cg_draw.obj
 0001:0000f510       _CG_DrawRocketLocking      30010510 f   cg_draw.obj
 0001:0000f850       _CG_DrawSpectator          30010850 f   cg_draw.obj
 0001:0000fb90       _CG_DrawVote               30010b90 f   cg_draw.obj
 0001:0000fc60       _CG_DrawTeamVote           30010c60 f   cg_draw.obj
 0001:0000fdd0       _CG_DrawFollow             30010dd0 f   cg_draw.obj
 0001:0000feb0       _CG_DrawWarmup             30010eb0 f   cg_draw.obj
 0001:00010270       _CG_DrawCrosshair          30011270 f   cg_draw.obj
 0001:000105e0       _CG_ScanForCrosshairEntity 300115e0 f   cg_draw.obj
 0001:000108a0       _CG_DrawCrosshairNames     300118a0 f   cg_draw.obj
 0001:000109c0       _CG_Draw2D                 300119c0 f   cg_draw.obj
 0001:00011d50       _CG_TileClearBox           30012d50 f   cg_drawtools.obj
 0001:000127a0       _CG_DoGlassQuad            300137a0 f   cg_effects.obj
 0001:00012a70       _CG_CalcBiLerp             30013a70 f   cg_effects.obj
 0001:00012df0       _CG_CalcHeightWidth        30013df0 f   cg_effects.obj
 0001:00013cb0       _CG_EntityEffects          30014cb0 f   cg_ents.obj
 0001:00014230       _CG_General                30015230 f   cg_ents.obj
 0001:000157a0       _CG_Speaker                300167a0 f   cg_ents.obj
 0001:00015880       _CG_Item                   30016880 f   cg_ents.obj
 0001:00016180       _CG_Missile                30017180 f   cg_ents.obj
 0001:00016720       _CG_Mover                  30017720 f   cg_ents.obj
 0001:000168a0       _CG_Portal                 300178a0 f   cg_ents.obj
 0001:00016ab0       _CG_InterpolateEntityPosition 30017ab0 f   cg_ents.obj
 0001:00016c80       _CG_TeamBase               30017c80 f   cg_ents.obj
 0001:00016d40       _CG_AddCEntity             30017d40 f   cg_ents.obj
 0001:000175d0       _CG_Obituary               300185d0 f   cg_event.obj
 0001:00017cc0       _CG_UseItem                30018cc0 f   cg_event.obj
 0001:00017d90       _CG_ItemPickup             30018d90 f   cg_event.obj
 0001:00018000       _CG_BodyQueueCopy          30019000 f   cg_event.obj
 0001:0001c440       _CG_AddFadeScaleModel      3001d440 f   cg_localents.obj
 0001:0001c580       _CG_AddMoveScaleFade       3001d580 f   cg_localents.obj
 0001:0001c6a0       _CG_AddPuff                3001d6a0 f   cg_localents.obj
 0001:0001c7b0       _CG_AddScaleFade           3001d7b0 f   cg_localents.obj
 0001:0001c880       _CG_AddFallScaleFade       3001d880 f   cg_localents.obj
 0001:0001c960       _CG_AddExplosion           3001d960 f   cg_localents.obj
 0001:0001ca00       _CG_AddSpriteExplosion     3001da00 f   cg_localents.obj
 0001:0001d070       _C_GetLerpOrigin           3001e070 f   cg_main.obj
 0001:0001d0b0       _C_GetLerpAngles           3001e0b0 f   cg_main.obj
 0001:0001d0f0       _C_GetModelScale           3001e0f0 f   cg_main.obj
 0001:0001d130       _C_Trace                   3001e130 f   cg_main.obj
 0001:0001d160       _C_GetBoltPos              3001e160 f   cg_main.obj
 0001:0001d270       _C_ImpactMark              3001e270 f   cg_main.obj
 0001:0001d5c0       _CG_RegisterItemSounds     3001e5c0 f   cg_main.obj
 0001:0001d800       _CG_OwnerDrawHandleKey     3001e800 f   cg_main.obj
 0001:0001d800       _CG_FeederItemImage        3001e800 f   cg_main.obj
 0001:0001d810       _CG_FeederCount            3001e810 f   cg_main.obj
 0001:0001d940       _CG_InfoFromScoreIndex     3001e940 f   cg_main.obj
 0001:0001d9b0       _CG_FeederItemText         3001e9b0 f   cg_main.obj
 0001:0001dba0       _CG_FeederSelection        3001eba0 f   cg_main.obj
 0001:0001dc10       _CG_Cvar_Get               3001ec10 f   cg_main.obj
 0001:0001dc90       _CG_OwnerDrawWidth         3001ec90 f   cg_main.obj
 0001:0001dd50       _CG_PlayCinematic          3001ed50 f   cg_main.obj
 0001:0001dd90       _CG_StopCinematic          3001ed90 f   cg_main.obj
 0001:0001dda0       _CG_DrawCinematic          3001eda0 f   cg_main.obj
 0001:0001dde0       _CG_RunCinematicFrame      3001ede0 f   cg_main.obj
 0001:0001e300       _CG_ForceModelChange       3001f300 f   cg_main.obj
 0001:0001e3f0       _CG_RegisterSounds         3001f3f0 f   cg_main.obj
 0001:0001ed30       _CG_RegisterEffects        3001fd30 f   cg_main.obj
 0001:0001ed90       _CG_RegisterGraphics       3001fd90 f   cg_main.obj
 0001:0001f780       _CG_RegisterClients        30020780 f   cg_main.obj
 0001:00020160       _Distance                  30021160 f   cg_marks.obj
 0001:000226f0       _CG_SetSelectedPlayerName  300236f0 f   cg_newDraw.obj
 0001:00023000       _VectorLength              30024000 f   cg_players.obj
 0001:00023030       _CG_IsValidCharacterModel  30024030 f   cg_players.obj
 0001:000232a0       _CrossProduct              300242a0 f   cg_players.obj
 0001:000232d0       _CG_RegisterClientModelname 300242d0 f   cg_players.obj
 0001:00023a90       _CG_ColorFromString        30024a90 f   cg_players.obj
 0001:00023ae0       _CG_CopyClientInfoModel    30024ae0 f   cg_players.obj
 0001:00023c10       _CG_ScanForExistingClientInfo 30024c10 f   cg_players.obj
 0001:00023ed0       _CG_SetLerpFrameAnimation  30024ed0 f   cg_players.obj
 0001:00024580       _CG_FirstAnimFrame         30025580 f   cg_players.obj
 0001:00024640       _CG_FootstepForSurface     30025640 f   cg_players.obj
 0001:00024830       _CG_RunLerpFrame           30025830 f   cg_players.obj
 0001:00024bd0       _CG_PlayerAnimation        30025bd0 f   cg_players.obj
 0001:00024cf0       _CG_SwingAngles            30025cf0 f   cg_players.obj
 0001:00024e70       _CG_SwingAnglesATST        30025e70 f   cg_players.obj
 0001:00025520       _CG_G2PlayerAngles         30026520 f   cg_players.obj
 0001:000262c0       _CG_HasteTrail             300272c0 f   cg_players.obj
 0001:00026380       _CG_PlayerFlag             30027380 f   cg_players.obj
 0001:000265d0       _CG_PlayerPowerups         300275d0 f   cg_players.obj
 0001:00026710       _CG_PlayerFloatSprite      30027710 f   cg_players.obj
 0001:000267c0       _CG_PlayerSplash           300277c0 f   cg_players.obj
 0001:00028d40       _CG_G2EntSetLerpFrameAnimation 30029d40 f   cg_players.obj
 0001:00029010       _CG_G2EntRunLerpFrame      3002a010 f   cg_players.obj
 0001:00029360       _CG_G2EntAnimation         3002a360 f   cg_players.obj
 0001:000295d0       _CG_G2AnimEntAngles        3002a5d0 f   cg_players.obj
 0001:0002a740       _CG_SetDeferredClientInfo  3002b740 f   cg_players.obj
 0001:0002aee0       _CG_PlayerSprites          3002bee0 f   cg_players.obj
 0001:0002af50       _CG_PlayerShadow           3002bf50 f   cg_players.obj
 0001:0002ee80       _CG_ClipMoveToEntities     3002fe80 f   cg_predict.obj
 0001:0002f1c0       _CG_InterpolatePlayerState 300301c0 f   cg_predict.obj
 0001:0002f310       _CG_TouchItem              30030310 f   cg_predict.obj
 0001:0002f450       _CG_TouchTriggerPrediction 30030450 f   cg_predict.obj
 0001:00030570       _CG_DrawClientScore        30031570 f   cg_scoreboard.obj
 0001:000308d0       _CG_TeamScoreboard         300318d0 f   cg_scoreboard.obj
 0001:00031110       _CG_ParseScores            30032110 f   cg_servercmds.obj
 0001:000312d0       _CG_ParseTeamInfo          300322d0 f   cg_servercmds.obj
 0001:00031880       _CG_ConfigStringModified   30032880 f   cg_servercmds.obj
 0001:00031c80       _CG_AddToTeamChat          30032c80 f   cg_servercmds.obj
 0001:00031e80       _CG_MapRestart             30032e80 f   cg_servercmds.obj
 0001:000323b0       _CG_RemoveChatEscapeChar   300333b0 f   cg_servercmds.obj
 0001:00032550       _CG_ServerCommand          30033550 f   cg_servercmds.obj
 0001:00032a70       _CG_ResetEntity            30033a70 f   cg_snapshot.obj
 0001:00032c30       _CG_TransitionSnapshot     30033c30 f   cg_snapshot.obj
 0001:00032e10       _CG_SetNextSnap            30033e10 f   cg_snapshot.obj
 0001:00032f40       _CG_ReadNextSnapshot       30033f40 f   cg_snapshot.obj
 0001:00034b80       _CG_AddTestModel           30035b80 f   cg_view.obj
 0001:00034cd0       _CG_CalcVrect              30035cd0 f   cg_view.obj
 0001:00034d90       _CG_StepOffset             30035d90 f   cg_view.obj
 0001:00034dd0       _CG_CalcIdealThirdPersonViewTarget 30035dd0 f   cg_view.obj
 0001:00034e60       _CG_CalcIdealThirdPersonViewLocation 30035e60 f   cg_view.obj
 0001:00034ec0       _CG_ResetThirdPersonViewDamp 30035ec0 f   cg_view.obj
 0001:00035050       _CG_UpdateThirdPersonTargetDamp 30036050 f   cg_view.obj
 0001:000351c0       _CG_UpdateThirdPersonCameraDamp 300361c0 f   cg_view.obj
 0001:00035380       _CG_OffsetThirdPersonView  30036380 f   cg_view.obj
 0001:00035660       _CG_OffsetFirstPersonView  30036660 f   cg_view.obj
 0001:00035930       _CG_CalcFov                30036930 f   cg_view.obj
 0001:00035c50       _CG_DamageBlendBlob        30036c50 f   cg_view.obj
 0001:00035e50       _CG_CalcViewValues         30036e50 f   cg_view.obj
 0001:000360e0       _CG_PlayBufferedSounds     300370e0 f   cg_view.obj
 0001:00037890       _CG_MapTorsoToWeaponFrame  30038890 f   cg_weapons.obj
 0001:000379b0       _CG_CalculateWeaponPosition 300389b0 f   cg_weapons.obj
 0001:00037ad0       _CG_AddWeaponWithPowerups  30038ad0 f   cg_weapons.obj
 0001:00038a70       _CG_WeaponSelectable       30039a70 f   cg_weapons.obj
 0001:0003ba10       _hashForString             3003ca10 f   ui_shared.obj
 0001:0003df30       _Scroll_TextScroll_AutoFunc 3003ef30 f   ui_shared.obj
 0001:0003dfa0       _Scroll_TextScroll_ThumbFunc 3003efa0 f   ui_shared.obj
 0001:0003e0b0       _Scroll_ListBox_AutoFunc   3003f0b0 f   ui_shared.obj
 0001:0003e120       _Scroll_ListBox_ThumbFunc  3003f120 f   ui_shared.obj
 0001:0003e2d0       _Scroll_Slider_ThumbFunc   3003f2d0 f   ui_shared.obj
 0001:0003e780       _Menu_CloseCinematics      3003f780 f   ui_shared.obj
 0001:0003e8c0       _Item_CorrectedTextRect    3003f8c0 f   ui_shared.obj
 0001:0003e940       _Controls_GetKeyAssignment 3003f940 f   ui_shared.obj
 0001:000400c0       _Item_TextScroll_BuildLines 300410c0 f   ui_shared.obj
 0001:00040af0       _Menu_OverActiveItem       30041af0 f   ui_shared.obj
 0001:00040d60       _Menu_RunCloseScript       30041d60 f   ui_shared.obj
 0001:00042bc0       _$$$00001                  30043bc0 f   LIBC:strchr.obj
 0001:000435af       __shift                    300445af f   LIBC:cvt.obj
 0001:00043b9c       _has_osfxsr_set            30044b9c f   LIBC:cpu_disp.obj
 0001:000440ff       _write_char                300450ff f   LIBC:output.obj
 0001:00044132       _write_multi_char          30045132 f   LIBC:output.obj
 0001:00044156       _write_string              30045156 f   LIBC:output.obj
 0001:00044ddd       _doexit                    30045ddd f   LIBC:crt0dat.obj
 0001:00045153       _parse_cmdline             30046153 f   LIBC:stdargv.obj
 0001:000458f9       $$$00003                   300468f9 f   LIBC:exsup3.obj
 0001:00045c63       _CPtoLCID                  30046c63 f   LIBC:mbctype.obj
 0001:00045c92       _setSBCS                   30046c92 f   LIBC:mbctype.obj
 0001:00045cbb       _setSBUpLow                30046cbb f   LIBC:mbctype.obj
 0001:000466f9       __abstract_cw              300476f9 f   LIBC:ieee87.obj
 0001:0004678b       __hw_cw                    3004778b f   LIBC:ieee87.obj
 0001:00046864       _report_failure            30047864 f   LIBC:secchk.obj
 0001:00048d90       $$$00001                   30049d90 f   LIBC:exsup.obj
 0001:00048db0       __unwind_handler           30049db0 f   LIBC:exsup.obj
 0001:00048db0       $$$00003                   30049db0 f   LIBC:exsup.obj
 0001:00048dd2       $$$00005                   30049dd2 f   LIBC:exsup.obj
 0001:00048e3a       $$$00007                   30049e3a f   LIBC:exsup.obj
 0001:00048e7e       $$$00011                   30049e7e f   LIBC:exsup.obj
 0001:00049d6b       _flsall                    3004ad6b f   LIBC:fflush.obj
